(lp1
(lp2
(I6
cnumpy.core.multiarray
scalar
p3
(cnumpy
dtype
p4
(S'f8'
I0
I1
tRp5
(I3
S'<'
NNNI-1
I-1
I0
tbS'R@\x80\x8f\x97?h@'
tRp6
F0.3668670654296875
tp7
a(I6
g3
(g5
S'\n\xff[\xd6?Nc@'
tRp8
F0.23473596572875977
tp9
a(I6
g3
(g5
S'\xaf\xa4\xb2\xbf\xdd\xa1d@'
tRp10
F0.5724639892578125
tp11
a(I6
g3
(g5
S"'\x14m9\x1a\xb2b@"
tRp12
F0.68749618530273438
tp13
a(I6
g3
(g5
S'\xd7\xa0\x1aWaxp@'
tRp14
F0.52829885482788086
tp15
a(I6
g3
(g5
S'\xb6\xe8\xf8\x9c\x19\x82X@'
tRp16
F9.4791951179504395
tp17
a(I6
g3
(g5
S'\xcc\xb9\xc3"\xb8\x05d@'
tRp18
F0.29703187942504883
tp19
a(I6
g3
(g5
S'\xba\x0c\xa3\x93\xb1\xd1b@'
tRp20
F0.3196258544921875
tp21
a(I6
g3
(g5
S'\xd6\xd0x\x06a\xdf`@'
tRp22
F0.80118083953857422
tp23
a(I6
g3
(g5
S'\xd6\xd0x\x06a\xdf`@'
tRp24
F1.8285369873046875
tp25
a(I6
g3
(g5
S'\xd6\xd0x\x06a\xdf`@'
tRp26
F13.338665008544922
tp27
a(I6
g3
(g5
S'\xd6\xd0x\x06a\xdf`@'
tRp28
F1.5961570739746094
tp29
a(I6
g3
(g5
S'\xd6\xd0x\x06a\xdf`@'
tRp30
F1.5999300479888916
tp31
a(I6
g3
(g5
S'\xd6\xd0x\x06a\xdf`@'
tRp32
F1.6296730041503906
tp33
a(I6
g3
(g5
S'\xd6\xd0x\x06a\xdf`@'
tRp34
F1.7384970188140869
tp35
a(I6
g3
(g5
S'\xd6\xd0x\x06a\xdf`@'
tRp36
F17.206215858459473
tp37
a(I6
g3
(g5
S'\xd6\xd0x\x06a\xdf`@'
tRp38
F3.7069261074066162
tp39
aa(lp40
(I6
g3
(g5
S'\xf1\x9a\x8c\xdb\x16<p@'
tRp41
F0.35135507583618164
tp42
a(I6
g3
(g5
S'M\x84\xf6\xa9\x964p@'
tRp43
F0.51805496215820312
tp44
a(I6
g3
(g5
S'\xe0TR3%\x9es@'
tRp45
F0.55513310432434082
tp46
a(I6
g3
(g5
S'\xe0TR3%\x9es@'
tRp47
F0.25626182556152344
tp48
a(I6
g3
(g5
S'\xe0TR3%\x9es@'
tRp49
F0.27573895454406738
tp50
a(I6
g3
(g5
S'\x04\x12W\x11Z\xefS@'
tRp51
F10.620362043380737
tp52
a(I6
g3
(g5
S'\xd8\x81\xf0\xbf\xd8\x99F@'
tRp53
F0.33661293983459473
tp54
a(I6
g3
(g5
S'\xd8\x81\xf0\xbf\xd8\x99F@'
tRp55
F0.5100860595703125
tp56
a(I6
g3
(g5
S'\xd8\x81\xf0\xbf\xd8\x99F@'
tRp57
F3.0897929668426514
tp58
a(I6
g3
(g5
S'\xd8\x81\xf0\xbf\xd8\x99F@'
tRp59
F3.2539901733398438
tp60
a(I6
g3
(g5
S'(d\x80\xdf\xe9NC@'
tRp61
F31.985570907592773
tp62
a(I6
g3
(g5
S'(d\x80\xdf\xe9NC@'
tRp63
F52.391173124313354
tp64
a(I6
g3
(g5
S'\xe0TR3%\x9es@'
tRp65
F71.234990119934082
tp66
a(I6
g3
(g5
S'\xe0TR3%\x9es@'
tRp67
F0.30015993118286133
tp68
a(I6
g3
(g5
S'\xe0TR3%\x9es@'
tRp69
F0.30328512191772461
tp70
a(I6
g3
(g5
S'\x12\xe9\x91\x0f\xc0\xd4^@'
tRp71
F19.199526071548462
tp72
a(I6
g3
(g5
S'\x12\xe9\x91\x0f\xc0\xd4^@'
tRp73
F3.5030519962310791
tp74
aa(lp75
(I6
g3
(g5
S'\x00=B\xd5\x01tu@'
tRp76
F0.35206294059753418
tp77
a(I6
g3
(g5
S'?>\xcb\xc4\xa7mh@'
tRp78
F0.22560906410217285
tp79
a(I6
g3
(g5
S'b\r!N\xbd\x88d@'
tRp80
F0.62294101715087891
tp81
a(I6
g3
(g5
S'N|\xe9\x17\x1c\xeat@'
tRp82
F0.49558591842651367
tp83
a(I6
g3
(g5
S'N|\xe9\x17\x1c\xeat@'
tRp84
F0.24237608909606934
tp85
a(I6
g3
(g5
S'\x1a\xdd\xc3\xcbF\xb4p@'
tRp86
F9.9339699745178223
tp87
a(I6
g3
(g5
S'\xe8\xf8\x0b\x08\x1aN]@'
tRp88
F0.28237700462341309
tp89
a(I6
g3
(g5
S'H\xfa\x80\x96xyM@'
tRp90
F0.31735110282897949
tp91
a(I6
g3
(g5
S'\xe8\xf8\x0b\x08\x1aN]@'
tRp92
F0.34176898002624512
tp93
a(I6
g3
(g5
S'\xe8\xf8\x0b\x08\x1aN]@'
tRp94
F0.58291888236999512
tp95
a(I6
g3
(g5
S'X\xf8\x942\xbd\x91O@'
tRp96
F11.629949808120728
tp97
a(I6
g3
(g5
S'\xf8\x01&\xc5\x9c\xb0F@'
tRp98
F3.5756371021270752
tp99
a(I6
g3
(g5
S'X\xf8\x942\xbd\x91O@'
tRp100
F3.7711069583892822
tp101
a(I6
g3
(g5
S'\xf8\x01&\xc5\x9c\xb0F@'
tRp102
F3.7741308212280273
tp103
a(I6
g3
(g5
S'\xf8\x01&\xc5\x9c\xb0F@'
tRp104
F2.7333030700683594
tp105
a(I6
g3
(g5
S'\x0c\xbaa\x1fU\xdf`@'
tRp106
F18.397113084793091
tp107
a(I6
g3
(g5
S'\xf8\x01&\xc5\x9c\xb0F@'
tRp108
F3.0156309604644775
tp109
aa(lp110
(I6
g3
(g5
S'\x02\x95\xae\xb6\xcd_w@'
tRp111
F0.35593605041503906
tp112
a(I6
g3
(g5
S'\x98\x9c\x99pM\x88s@'
tRp113
F0.22754597663879395
tp114
a(I6
g3
(g5
S'\xa9R\xa4\x90\xed\x06w@'
tRp115
F0.550872802734375
tp116
a(I6
g3
(g5
S'\xa9R\xa4\x90\xed\x06w@'
tRp117
F0.23387503623962402
tp118
a(I6
g3
(g5
S'\xa9R\xa4\x90\xed\x06w@'
tRp119
F0.24263787269592285
tp120
a(I6
g3
(g5
S'\x96_2\xa7`\\b@'
tRp121
F10.16620397567749
tp122
a(I6
g3
(g5
S'G\xe7*\x96\x1czt@'
tRp123
F0.43989896774291992
tp124
a(I6
g3
(g5
S'\x96_2\xa7`\\b@'
tRp125
F0.3289189338684082
tp126
a(I6
g3
(g5
S'<\xda\x8b\xb8\x81CU@'
tRp127
F0.53500795364379883
tp128
a(I6
g3
(g5
S'\xe0WB\x0c\xb2\x155@'
tRp129
F0.52353310585021973
tp130
a(I6
g3
(g5
S'<\xda\x8b\xb8\x81CU@'
tRp131
F13.165219068527222
tp132
a(I6
g3
(g5
S'<\xda\x8b\xb8\x81CU@'
tRp133
F0.45732712745666504
tp134
a(I6
g3
(g5
S'<\xda\x8b\xb8\x81CU@'
tRp135
F0.49196100234985352
tp136
a(I6
g3
(g5
S'<\xda\x8b\xb8\x81CU@'
tRp137
F0.71497392654418945
tp138
a(I6
g3
(g5
S'<\xda\x8b\xb8\x81CU@'
tRp139
F0.48807501792907715
tp140
a(I6
g3
(g5
S'\x00\x00\x00\x00\x00\x00\x00\x00'
tRp141
F13.932983875274658
tp142
aa(lp143
(I6
g3
(g5
S'is\x1d\xe4YOp@'
tRp144
F0.35001087188720703
tp145
a(I6
g3
(g5
S'is\x1d\xe4YOp@'
tRp146
F0.22922492027282715
tp147
a(I6
g3
(g5
S'#\xfa\xd0\x0c<Pz@'
tRp148
F0.25393390655517578
tp149
a(I6
g3
(g5
S'#\xfa\xd0\x0c<Pz@'
tRp150
F0.23239398002624512
tp151
a(I6
g3
(g5
S'#\xfa\xd0\x0c<Pz@'
tRp152
F0.23952889442443848
tp153
a(I6
g3
(g5
S'\xbe\x92\x0fl\x13zp@'
tRp154
F9.3135180473327637
tp155
a(I6
g3
(g5
S'\xbe\x92\x0fl\x13zp@'
tRp156
F0.29630494117736816
tp157
a(I6
g3
(g5
S'\x1eg\xa0d\x0b\xd4a@'
tRp158
F0.31644701957702637
tp159
a(I6
g3
(g5
S'\xecGw\x1d"mV@'
tRp160
F0.3450920581817627
tp161
a(I6
g3
(g5
S'\xecGw\x1d"mV@'
tRp162
F0.3805840015411377
tp163
a(I6
g3
(g5
S'\xc0("\x87\xb5\x1a;@'
tRp164
F11.99539589881897
tp165
a(I6
g3
(g5
S'\xe8@wP\xdfsV@'
tRp166
F0.40104103088378906
tp167
a(I6
g3
(g5
S'\x00\x00\x00\x00\x00\x00\x00\x00'
tRp168
F0.55610489845275879
tp169
aa(lp170
(I6
g3
(g5
S'\xe5\xb7\x8b\xae\xfa\xaei@'
tRp171
F0.352294921875
tp172
a(I6
g3
(g5
S'\xb4(\xeb\x12X\x9ac@'
tRp173
F0.22001218795776367
tp174
a(I6
g3
(g5
S'I\xda\x05\x87\xa4\xdam@'
tRp175
F0.734619140625
tp176
a(I6
g3
(g5
S'Nz`"\xf8xd@'
tRp177
F0.59124517440795898
tp178
a(I6
g3
(g5
S'Nz`"\xf8xd@'
tRp179
F0.49309682846069336
tp180
a(I6
g3
(g5
S'\x0e\xe4%\x8c\xbbEV@'
tRp181
F11.074292898178101
tp182
a(I6
g3
(g5
S'\x0e\xe4%\x8c\xbbEV@'
tRp183
F0.25386619567871094
tp184
a(I6
g3
(g5
S'\x0e\xe4%\x8c\xbbEV@'
tRp185
F0.25819301605224609
tp186
a(I6
g3
(g5
S'\x0e\xe4%\x8c\xbbEV@'
tRp187
F0.26644492149353027
tp188
a(I6
g3
(g5
S'\x0e\xe4%\x8c\xbbEV@'
tRp189
F0.27000713348388672
tp190
a(I6
g3
(g5
S'\x0e\xe4%\x8c\xbbEV@'
tRp191
F13.4151291847229
tp192
a(I6
g3
(g5
S'\x0e\xe4%\x8c\xbbEV@'
tRp193
F0.28411388397216797
tp194
a(I6
g3
(g5
S'\x0e\xe4%\x8c\xbbEV@'
tRp195
F0.28736305236816406
tp196
a(I6
g3
(g5
S'\x0e\xe4%\x8c\xbbEV@'
tRp197
F0.29450297355651855
tp198
a(I6
g3
(g5
S'\x0e\xe4%\x8c\xbbEV@'
tRp199
F0.29909896850585938
tp200
a(I6
g3
(g5
S'Nz`"\xf8xd@'
tRp201
F19.775490045547485
tp202
a(I6
g3
(g5
S'Nz`"\xf8xd@'
tRp203
F0.31407999992370605
tp204
aa(lp205
(I6
g3
(g5
S'`)\x99\x8a\xa1\xfbu@'
tRp206
F0.35294294357299805
tp207
a(I6
g3
(g5
S'88\x1a\x90\xfc\xd2w@'
tRp208
F0.51168489456176758
tp209
a(I6
g3
(g5
S'$Bq{\x107u@'
tRp210
F0.46419882774353027
tp211
a(I6
g3
(g5
S'$Bq{\x107u@'
tRp212
F0.23244905471801758
tp213
a(I6
g3
(g5
S'$Bq{\x107u@'
tRp214
F0.24249410629272461
tp215
a(I6
g3
(g5
S'\xfb\xebOQ\x89\xf3o@'
tRp216
F9.6841080188751221
tp217
a(I6
g3
(g5
S'W\x0e\xce\x9d\xe8\x99h@'
tRp218
F0.3030848503112793
tp219
a(I6
g3
(g5
S'\x8f\xe1\xd81\x19)q@'
tRp220
F0.47064709663391113
tp221
a(I6
g3
(g5
S'\x80\xc8\xf0\x1a2/\x18@'
tRp222
F0.50838899612426758
tp223
a(I6
g3
(g5
S'\x80\xc8\xf0\x1a2/\x18@'
tRp224
F0.79528594017028809
tp225
a(I6
g3
(g5
S'\x80\xc8\xf0\x1a2/\x18@'
tRp226
F12.344175100326538
tp227
a(I6
g3
(g5
S'\x80\xc8\xf0\x1a2/\x18@'
tRp228
F0.61884307861328125
tp229
a(I6
g3
(g5
S'\x80\xc8\xf0\x1a2/\x18@'
tRp230
F0.77551603317260742
tp231
a(I6
g3
(g5
S'\x80\xc8\xf0\x1a2/\x18@'
tRp232
F0.79397082328796387
tp233
a(I6
g3
(g5
S'\x80\xc8\xf0\x1a2/\x18@'
tRp234
F0.6313779354095459
tp235
a(I6
g3
(g5
S'\x80\xc8\xf0\x1a2/\x18@'
tRp236
F14.320852994918823
tp237
a(I6
g3
(g5
S'\x80\xc8\xf0\x1a2/\x18@'
tRp238
F0.76854109764099121
tp239
aa(lp240
(I6
g3
(g5
S'\xee\xcd\xe9\r\xc75n@'
tRp241
F0.35344600677490234
tp242
a(I6
g3
(g5
S'\xcbc\xec\xabA\xc4e@'
tRp243
F0.22711491584777832
tp244
a(I6
g3
(g5
S'\x98/w}k\xd9V@'
tRp245
F0.47481703758239746
tp246
a(I6
g3
(g5
S'Y\x150T\x98Uy@'
tRp247
F0.43764805793762207
tp248
a(I6
g3
(g5
S'Y\x150T\x98Uy@'
tRp249
F0.25736403465270996
tp250
a(I6
g3
(g5
S'\xbe\x02\xf8\xb9\xf5\x9dq@'
tRp251
F9.432096004486084
tp252
a(I6
g3
(g5
S'\xc0\x00\xe1\xeb\xf4\xb7+@'
tRp253
F0.34360098838806152
tp254
a(I6
g3
(g5
S'\xc0\x00\xe1\xeb\xf4\xb7+@'
tRp255
F0.44865202903747559
tp256
a(I6
g3
(g5
S'\xc0\x00\xe1\xeb\xf4\xb7+@'
tRp257
F0.33827114105224609
tp258
a(I6
g3
(g5
S'\xc0\x00\xe1\xeb\xf4\xb7+@'
tRp259
F0.34486985206604004
tp260
a(I6
g3
(g5
S'\xc0\x00\xe1\xeb\xf4\xb7+@'
tRp261
F12.10929799079895
tp262
a(I6
g3
(g5
S'\xc0\x00\xe1\xeb\xf4\xb7+@'
tRp263
F0.53881382942199707
tp264
a(I6
g3
(g5
S'\xc0\x00\xe1\xeb\xf4\xb7+@'
tRp265
F0.55407094955444336
tp266
a(I6
g3
(g5
S'\xc0\x00\xe1\xeb\xf4\xb7+@'
tRp267
F0.56607413291931152
tp268
a(I6
g3
(g5
S'\xc0\x00\xe1\xeb\xf4\xb7+@'
tRp269
F0.5667269229888916
tp270
a(I6
g3
(g5
S'Y\x150T\x98Uy@'
tRp271
F13.854125022888184
tp272
a(I6
g3
(g5
S'Y\x150T\x98Uy@'
tRp273
F0.31556797027587891
tp274
aa(lp275
(I6
g3
(g5
S'\xff\n\xcc\xafm\xfco@'
tRp276
F0.3522181510925293
tp277
a(I6
g3
(g5
S'\xd2U\xab8`\x03t@'
tRp278
F0.45858597755432129
tp279
a(I6
g3
(g5
S'\x85\xf8\xd7\xe7Z\x04l@'
tRp280
F0.52240514755249023
tp281
a(I6
g3
(g5
S'3O\xaeZ\x19\x8ex@'
tRp282
F0.66237187385559082
tp283
a(I6
g3
(g5
S'3O\xaeZ\x19\x8ex@'
tRp284
F0.28882098197937012
tp285
a(I6
g3
(g5
S'3O\xaeZ\x19\x8ex@'
tRp286
F11.082885026931763
tp287
a(I6
g3
(g5
S'3O\xaeZ\x19\x8ex@'
tRp288
F0.26893091201782227
tp289
a(I6
g3
(g5
S'3O\xaeZ\x19\x8ex@'
tRp290
F0.25940513610839844
tp291
a(I6
g3
(g5
S'3O\xaeZ\x19\x8ex@'
tRp292
F0.26233100891113281
tp293
a(I6
g3
(g5
S'3O\xaeZ\x19\x8ex@'
tRp294
F0.27168703079223633
tp295
a(I6
g3
(g5
S'\x96L\xb1\xd4V\x07r@'
tRp296
F11.363265037536621
tp297
a(I6
g3
(g5
S'\x85\xf8\xd7\xe7Z\x04l@'
tRp298
F0.36014795303344727
tp299
a(I6
g3
(g5
S'\xc0\x11=\x10\xbavH@'
tRp300
F0.57555603981018066
tp301
a(I6
g3
(g5
S'\xc0\x11=\x10\xbavH@'
tRp302
F0.51378893852233887
tp303
a(I6
g3
(g5
S'\xc0\x11=\x10\xbavH@'
tRp304
F0.64556789398193359
tp305
a(I6
g3
(g5
S'\xc0\x11=\x10\xbavH@'
tRp306
F14.021580934524536
tp307
a(I6
g3
(g5
S'\xc0\x11=\x10\xbavH@'
tRp308
F0.56341314315795898
tp309
aa(lp310
(I6
g3
(g5
S'\x00\x06\x92\xf0!\x80o@'
tRp311
F0.35253691673278809
tp312
a(I6
g3
(g5
S'h\xcc;O\xa2Uj@'
tRp313
F0.25781702995300293
tp314
a(I6
g3
(g5
S'\xa9\x84\xb4\x98\x1a/q@'
tRp315
F0.3276679515838623
tp316
a(I6
g3
(g5
S'\xa9\x84\xb4\x98\x1a/q@'
tRp317
F0.26582002639770508
tp318
a(I6
g3
(g5
S'\xa9\x84\xb4\x98\x1a/q@'
tRp319
F0.2914268970489502
tp320
a(I6
g3
(g5
S'J\x1f\xddX\xb9Ak@'
tRp321
F13.566937923431396
tp322
a(I6
g3
(g5
S'\xa9\x84\xb4\x98\x1a/q@'
tRp323
F2.3072671890258789
tp324
a(I6
g3
(g5
S'\xa9\x84\xb4\x98\x1a/q@'
tRp325
F0.25864601135253906
tp326
a(I6
g3
(g5
S'\xa9\x84\xb4\x98\x1a/q@'
tRp327
F0.26252889633178711
tp328
a(I6
g3
(g5
S'\xa9\x84\xb4\x98\x1a/q@'
tRp329
F0.2707059383392334
tp330
a(I6
g3
(g5
S'\x02,7f\xa0\xa7b@'
tRp331
F11.440475940704346
tp332
a(I6
g3
(g5
S'\xb2!C\\\xbb\xc1R@'
tRp333
F0.32548189163208008
tp334
a(I6
g3
(g5
S'\xc4v\xf9a\xb5\xd7S@'
tRp335
F0.37000107765197754
tp336
a(I6
g3
(g5
S'\xbc\xe3w}#\x17S@'
tRp337
F0.38088607788085938
tp338
a(I6
g3
(g5
S'\xc4v\xf9a\xb5\xd7S@'
tRp339
F0.71009707450866699
tp340
a(I6
g3
(g5
S'\xc4v\xf9a\xb5\xd7S@'
tRp341
F15.149919033050537
tp342
a(I6
g3
(g5
S'\xc4v\xf9a\xb5\xd7S@'
tRp343
F0.77939391136169434
tp344
aa(lp345
(I6
g3
(g5
S'\x14t,\xcceCQ@'
tRp346
F0.35180306434631348
tp347
a(I6
g3
(g5
S'\x92$5o\x9fYd@'
tRp348
F0.23047995567321777
tp349
a(I6
g3
(g5
S'\x81\xda\xd4\\\xcc\xe0p@'
tRp350
F0.45421504974365234
tp351
a(I6
g3
(g5
S'\x81\xda\xd4\\\xcc\xe0p@'
tRp352
F0.23136591911315918
tp353
a(I6
g3
(g5
S'\x81\xda\xd4\\\xcc\xe0p@'
tRp354
F0.24153494834899902
tp355
a(I6
g3
(g5
S']\xd1\x04H\x9b\xbbm@'
tRp356
F9.3011610507965088
tp357
a(I6
g3
(g5
S'\x0e\x92\xdb\xe4T\x01d@'
tRp358
F0.30975604057312012
tp359
a(I6
g3
(g5
S'\xf0\x93\xdd"P\x08d@'
tRp360
F0.3010101318359375
tp361
a(I6
g3
(g5
S'\xb4\x91\xd22\x9cUU@'
tRp362
F0.34552001953125
tp363
a(I6
g3
(g5
S'\xacl\x1f\x1e\x07\xa5T@'
tRp364
F0.44837093353271484
tp365
a(I6
g3
(g5
S'\xa0\xee\xd5\xc9\xafn2@'
tRp366
F12.008562803268433
tp367
a(I6
g3
(g5
S'\xa0\xee\xd5\xc9\xafn2@'
tRp368
F0.63513994216918945
tp369
a(I6
g3
(g5
S'\xa0\xee\xd5\xc9\xafn2@'
tRp370
F0.39555597305297852
tp371
a(I6
g3
(g5
S'\xa0\xee\xd5\xc9\xafn2@'
tRp372
F0.80754590034484863
tp373
a(I6
g3
(g5
S'\xa0\xee\xd5\xc9\xafn2@'
tRp374
F0.59548187255859375
tp375
a(I6
g3
(g5
S'\xa0\xee\xd5\xc9\xafn2@'
tRp376
F14.129369974136353
tp377
a(I6
g3
(g5
S'\xa0\xee\xd5\xc9\xafn2@'
tRp378
F0.62929010391235352
tp379
aa(lp380
(I6
g3
(g5
S'\xd2\xfd]\xdd\x18\xbau@'
tRp381
F0.35409188270568848
tp382
a(I6
g3
(g5
S'\xe0\x9d.\xf9\xc9<e@'
tRp383
F0.22318005561828613
tp384
a(I6
g3
(g5
S'\x8c\xdc\xfcn\xdb\x90V@'
tRp385
F0.64308500289916992
tp386
a(I6
g3
(g5
S'\xe4p\x8e\xe9\xbc-t@'
tRp387
F0.30183315277099609
tp388
a(I6
g3
(g5
S'\xe4p\x8e\xe9\xbc-t@'
tRp389
F0.29821991920471191
tp390
a(I6
g3
(g5
S'\x08%\xbcf\xc6sN@'
tRp391
F11.583891153335571
tp392
a(I6
g3
(g5
S'\x8c\xdc\xfcn\xdb\x90V@'
tRp393
F3.9529759883880615
tp394
a(I6
g3
(g5
S'\x8c\xdc\xfcn\xdb\x90V@'
tRp395
F5.1985640525817871
tp396
a(I6
g3
(g5
S'\x8c\xdc\xfcn\xdb\x90V@'
tRp397
F3.7957861423492432
tp398
a(I6
g3
(g5
S'\x00\x00\x00\x00\x00\x00\x00\x00'
tRp399
F3.7060031890869141
tp400
aa(lp401
(I6
g3
(g5
S'\x117\xbe\xed\x12ly@'
tRp402
F0.3523249626159668
tp403
a(I6
g3
(g5
S'V\xca\x00\x16 \x91p@'
tRp404
F0.45455312728881836
tp405
a(I6
g3
(g5
S'$\xe9\xed?\xe7yY@'
tRp406
F0.47379493713378906
tp407
a(I6
g3
(g5
S'$\xe9\xed?\xe7yY@'
tRp408
F0.51391410827636719
tp409
a(I6
g3
(g5
S'\x117\xbe\xed\x12ly@'
tRp410
F0.54752397537231445
tp411
a(I6
g3
(g5
S'\x14\xce;u\xcc\x15]@'
tRp412
F9.6375620365142822
tp413
a(I6
g3
(g5
S'$\xe9\xed?\xe7yY@'
tRp414
F0.30063486099243164
tp415
a(I6
g3
(g5
S'H\xf0?\x8enz[@'
tRp416
F0.32672810554504395
tp417
a(I6
g3
(g5
S'\xba\x98\xe8\x8f\x02\x06j@'
tRp418
F0.58400702476501465
tp419
a(I6
g3
(g5
S'\xf4\xf0\xa1\x1a\xba\xddQ@'
tRp420
F0.75554108619689941
tp421
a(I6
g3
(g5
S'\x1cy\x93 \x15\xc7R@'
tRp422
F11.86170482635498
tp423
a(I6
g3
(g5
S'\xf4\xf0\xa1\x1a\xba\xddQ@'
tRp424
F10.025882005691528
tp425
a(I6
g3
(g5
S'\x08?|?\x01OC@'
tRp426
F3.9926800727844238
tp427
a(I6
g3
(g5
S'D\x91"m\xb5\x81T@'
tRp428
F3.4677028656005859
tp429
a(I6
g3
(g5
S'8\xeaj\x82?\xf9A@'
tRp430
F3.3597099781036377
tp431
a(I6
g3
(g5
S'p\x1d\xbcL\x81\xb3?@'
tRp432
F18.370660066604614
tp433
a(I6
g3
(g5
S'p\x1d\xbcL\x81\xb3?@'
tRp434
F2.6431291103363037
tp435
aa(lp436
(I6
g3
(g5
S'\xc4\x86>+\x9c\x1bp@'
tRp437
F0.35712409019470215
tp438
a(I6
g3
(g5
S'\x82P;\x01\xac\x02l@'
tRp439
F0.51514601707458496
tp440
a(I6
g3
(g5
S'\xce=\x00\x81b\xb2u@'
tRp441
F0.26364707946777344
tp442
a(I6
g3
(g5
S'\xce=\x00\x81b\xb2u@'
tRp443
F0.23187494277954102
tp444
a(I6
g3
(g5
S'\xce=\x00\x81b\xb2u@'
tRp445
F0.23840904235839844
tp446
a(I6
g3
(g5
S'1\xbd\xe2pr\x8cf@'
tRp447
F9.3684840202331543
tp448
a(I6
g3
(g5
S'\x9dqP\x1ex\x9a`@'
tRp449
F0.29856681823730469
tp450
a(I6
g3
(g5
S'\xae_\x87T\xba\xd5\\@'
tRp451
F0.31519293785095215
tp452
a(I6
g3
(g5
S'j\xfb\xd5|\xd7\\d@'
tRp453
F0.45804500579833984
tp454
a(I6
g3
(g5
S'j\xfb\xd5|\xd7\\d@'
tRp455
F0.49189996719360352
tp456
a(I6
g3
(g5
S'\xae_\x87T\xba\xd5\\@'
tRp457
F11.900744199752808
tp458
a(I6
g3
(g5
S'\xae_\x87T\xba\xd5\\@'
tRp459
F0.40534591674804688
tp460
a(I6
g3
(g5
S'\xae_\x87T\xba\xd5\\@'
tRp461
F0.54718303680419922
tp462
a(I6
g3
(g5
S'\xb0w\xb4x}IG@'
tRp463
F0.3952181339263916
tp464
a(I6
g3
(g5
S'\xb0w\xb4x}IG@'
tRp465
F0.43743205070495605
tp466
a(I6
g3
(g5
S'\xb0w\xb4x}IG@'
tRp467
F13.851444005966187
tp468
a(I6
g3
(g5
S'\xb0w\xb4x}IG@'
tRp469
F0.45452380180358887
tp470
aa(lp471
(I6
g3
(g5
S'^\x84f\xdd\xd4\xffq@'
tRp472
F0.3544011116027832
tp473
a(I6
g3
(g5
S'B\xb0\xe8\x0f>kl@'
tRp474
F0.50422501564025879
tp475
a(I6
g3
(g5
S'B\xb0\xe8\x0f>kl@'
tRp476
F0.45035910606384277
tp477
a(I6
g3
(g5
S'B\xb0\xe8\x0f>kl@'
tRp478
F0.60425305366516113
tp479
a(I6
g3
(g5
S'B\xb0\xe8\x0f>kl@'
tRp480
F1.1505320072174072
tp481
a(I6
g3
(g5
S'\xc6P\x86{Ub`@'
tRp482
F10.82859206199646
tp483
a(I6
g3
(g5
S'T\xe4\xceds1q@'
tRp484
F0.60579705238342285
tp485
a(I6
g3
(g5
S'`[\xba\xfa\xa6\x12^@'
tRp486
F0.27375006675720215
tp487
a(I6
g3
(g5
S'+i;5\xfeYf@'
tRp488
F0.34115099906921387
tp489
a(I6
g3
(g5
S'T\xe4\xceds1q@'
tRp490
F0.32909584045410156
tp491
a(I6
g3
(g5
S'\x00\x00\x00\x00\x00\x00\x00\x00'
tRp492
F11.616742134094238
tp493
aa(lp494
(I6
g3
(g5
S')J\xf5t\xac\xbem@'
tRp495
F0.3542029857635498
tp496
a(I6
g3
(g5
S'-\xe9\x1d\n\n\xaap@'
tRp497
F0.22697901725769043
tp498
a(I6
g3
(g5
S'\x80f=\xf4\x07\x0bw@'
tRp499
F0.74260401725769043
tp500
a(I6
g3
(g5
S'\x80f=\xf4\x07\x0bw@'
tRp501
F0.23157095909118652
tp502
a(I6
g3
(g5
S'\x80f=\xf4\x07\x0bw@'
tRp503
F0.24171113967895508
tp504
a(I6
g3
(g5
S' ;\xba\x9d\x16\x93p@'
tRp505
F9.5678179264068604
tp506
a(I6
g3
(g5
S'\xbcvt\xcd\xff\xc1e@'
tRp507
F0.32914590835571289
tp508
a(I6
g3
(g5
S'\x02\xb3\xce\xb8\x00ml@'
tRp509
F0.36439895629882812
tp510
a(I6
g3
(g5
S'\x95\xdfM\x11Tpd@'
tRp511
F0.83861589431762695
tp512
a(I6
g3
(g5
S'\x95\xdfM\x11Tpd@'
tRp513
F0.63820600509643555
tp514
a(I6
g3
(g5
S'\x95\xdfM\x11Tpd@'
tRp515
F13.1646409034729
tp516
a(I6
g3
(g5
S'\x95\xdfM\x11Tpd@'
tRp517
F1.8160269260406494
tp518
a(I6
g3
(g5
S'\x95\xdfM\x11Tpd@'
tRp519
F1.8037569522857666
tp520
a(I6
g3
(g5
S'\x95\xdfM\x11Tpd@'
tRp521
F0.66626501083374023
tp522
a(I6
g3
(g5
S'\x95\xdfM\x11Tpd@'
tRp523
F1.1408319473266602
tp524
a(I6
g3
(g5
S'\x95\xdfM\x11Tpd@'
tRp525
F14.717721939086914
tp526
a(I6
g3
(g5
S'\x95\xdfM\x11Tpd@'
tRp527
F0.7095940113067627
tp528
aa(lp529
(I6
g3
(g5
S'X\x18\xe6\xb5T\xccq@'
tRp530
F0.35012292861938477
tp531
a(I6
g3
(g5
S'\xda\x82{\x02\xd3\xefi@'
tRp532
F0.43829703330993652
tp533
a(I6
g3
(g5
S'\xda\x82{\x02\xd3\xefi@'
tRp534
F0.50840091705322266
tp535
a(I6
g3
(g5
S"\xdck\xdf'V\x08u@"
tRp536
F0.28747391700744629
tp537
a(I6
g3
(g5
S"\xdck\xdf'V\x08u@"
tRp538
F0.23855185508728027
tp539
a(I6
g3
(g5
S'\xe4\xaaE8b*l@'
tRp540
F9.823124885559082
tp541
a(I6
g3
(g5
S"\xdck\xdf'V\x08u@"
tRp542
F0.31628012657165527
tp543
a(I6
g3
(g5
S'\xa5.\xbb\xf1M\xefq@'
tRp544
F0.30313205718994141
tp545
a(I6
g3
(g5
S'\xd0\x9e\x00\x8eZyV@'
tRp546
F0.31498908996582031
tp547
a(I6
g3
(g5
S'\x80c\x89(.\x96_@'
tRp548
F0.30653786659240723
tp549
a(I6
g3
(g5
S'\x04|V\xf2\x1fhS@'
tRp550
F12.411224842071533
tp551
a(I6
g3
(g5
S'\x94b\xc675\x1bU@'
tRp552
F0.32845807075500488
tp553
a(I6
g3
(g5
S'\x94b\xc675\x1bU@'
tRp554
F0.58962297439575195
tp555
a(I6
g3
(g5
S'\xe0D}\x13e\xc5>@'
tRp556
F0.46460509300231934
tp557
a(I6
g3
(g5
S'\xe0D}\x13e\xc5>@'
tRp558
F0.454833984375
tp559
a(I6
g3
(g5
S'\x00\x00\x00\x00\x00\x00\x00\x00'
tRp560
F13.561208963394165
tp561
aa(lp562
(I6
g3
(g5
S'\x86\xb0\xd0\\z\xc2t@'
tRp563
F0.35064005851745605
tp564
a(I6
g3
(g5
S'"g\xcd\x9bI\x04w@'
tRp565
F0.22283482551574707
tp566
a(I6
g3
(g5
S'"g\xcd\x9bI\x04w@'
tRp567
F0.2248530387878418
tp568
a(I6
g3
(g5
S'"g\xcd\x9bI\x04w@'
tRp569
F0.23166608810424805
tp570
a(I6
g3
(g5
S'"g\xcd\x9bI\x04w@'
tRp571
F0.23846006393432617
tp572
a(I6
g3
(g5
S'xG\xdc\xb6\x9d\xeao@'
tRp573
F9.6094841957092285
tp574
a(I6
g3
(g5
S'>\x8dg\x15i\xecs@'
tRp575
F0.33192777633666992
tp576
a(I6
g3
(g5
S'\x9caW|%:^@'
tRp577
F0.49198102951049805
tp578
a(I6
g3
(g5
S'\xec\x92\x9e&W>k@'
tRp579
F0.66097187995910645
tp580
a(I6
g3
(g5
S'\x08\xfa\xbfb\xa3\xdaQ@'
tRp581
F0.46750998497009277
tp582
a(I6
g3
(g5
S'P/\xe3#\xbc\xdeK@'
tRp583
F12.824075937271118
tp584
a(I6
g3
(g5
S'\x80\x01\xa3\x85\xbf\xfd\x18@'
tRp585
F0.96649408340454102
tp586
a(I6
g3
(g5
S'\x80\x01\xa3\x85\xbf\xfd\x18@'
tRp587
F0.78130602836608887
tp588
a(I6
g3
(g5
S'\x80\x01\xa3\x85\xbf\xfd\x18@'
tRp589
F1.0989670753479004
tp590
a(I6
g3
(g5
S'\x80\x01\xa3\x85\xbf\xfd\x18@'
tRp591
F0.64897799491882324
tp592
a(I6
g3
(g5
S'\x80\x01\xa3\x85\xbf\xfd\x18@'
tRp593
F14.596268892288208
tp594
a(I6
g3
(g5
S'\x80\x01\xa3\x85\xbf\xfd\x18@'
tRp595
F0.65428805351257324
tp596
aa(lp597
(I6
g3
(g5
S'\xa0\r\xdb+\xf4\xfcg@'
tRp598
F0.3506309986114502
tp599
a(I6
g3
(g5
S'\n\xfd\x8d\xc8\x81\x8fn@'
tRp600
F0.23104310035705566
tp601
a(I6
g3
(g5
S'\xcb\xea\x05\xc6o\x16u@'
tRp602
F0.5691378116607666
tp603
a(I6
g3
(g5
S'\xcb\xea\x05\xc6o\x16u@'
tRp604
F0.25775694847106934
tp605
a(I6
g3
(g5
S'\xcb\xea\x05\xc6o\x16u@'
tRp606
F0.27891087532043457
tp607
a(I6
g3
(g5
S'\x96\xcd\xe6\x95t\xfad@'
tRp608
F9.8070180416107178
tp609
a(I6
g3
(g5
S'\x9a\x9a\xc1\xb6q]`@'
tRp610
F0.29316091537475586
tp611
a(I6
g3
(g5
S'\x1e4C\xe3\xb8\xe4n@'
tRp612
F0.31111502647399902
tp613
a(I6
g3
(g5
S'\x88\xe4\xe37,UD@'
tRp614
F0.49208307266235352
tp615
a(I6
g3
(g5
S'\x88\xe4\xe37,UD@'
tRp616
F0.64580893516540527
tp617
a(I6
g3
(g5
S'\x88\xe4\xe37,UD@'
tRp618
F12.139785051345825
tp619
a(I6
g3
(g5
S'\x88\xe4\xe37,UD@'
tRp620
F0.70017600059509277
tp621
a(I6
g3
(g5
S'\x88\xe4\xe37,UD@'
tRp622
F0.72786998748779297
tp623
a(I6
g3
(g5
S'\x88\xe4\xe37,UD@'
tRp624
F0.70324492454528809
tp625
a(I6
g3
(g5
S'\x88\xe4\xe37,UD@'
tRp626
F0.75721001625061035
tp627
a(I6
g3
(g5
S'\x88\xe4\xe37,UD@'
tRp628
F14.301070928573608
tp629
a(I6
g3
(g5
S'\x88\xe4\xe37,UD@'
tRp630
F0.72506999969482422
tp631
aa(lp632
(I6
g3
(g5
S"U\xa2\xde6W'q@"
tRp633
F0.35413789749145508
tp634
a(I6
g3
(g5
S'$\xc98\xea\x8eGm@'
tRp635
F0.22680401802062988
tp636
a(I6
g3
(g5
S'$\xc98\xea\x8eGm@'
tRp637
F0.64034605026245117
tp638
a(I6
g3
(g5
S'\xe8#\xd8(\x05\xb2h@'
tRp639
F0.29306411743164062
tp640
a(I6
g3
(g5
S'z.\x9f\xca\xc6\xa3j@'
tRp641
F0.4873499870300293
tp642
a(I6
g3
(g5
S'z.\x9f\xca\xc6\xa3j@'
tRp643
F9.4341070652008057
tp644
a(I6
g3
(g5
S'\xa0`c/\x16\xe7p@'
tRp645
F0.26775503158569336
tp646
a(I6
g3
(g5
S'\xa0`c/\x16\xe7p@'
tRp647
F0.31269121170043945
tp648
a(I6
g3
(g5
S'\x0c\x8eZK\xe6\x82X@'
tRp649
F0.34185004234313965
tp650
a(I6
g3
(g5
S'\xdc\xde\xdd\xb0g\xdde@'
tRp651
F0.59648394584655762
tp652
a(I6
g3
(g5
S'\xc8\r`\xca\x9f\xe6T@'
tRp653
F11.983405113220215
tp654
a(I6
g3
(g5
S'\xc8\r`\xca\x9f\xe6T@'
tRp655
F0.54814004898071289
tp656
a(I6
g3
(g5
S'\xc8\r`\xca\x9f\xe6T@'
tRp657
F0.56097102165222168
tp658
a(I6
g3
(g5
S'\xc8\r`\xca\x9f\xe6T@'
tRp659
F0.55861806869506836
tp660
a(I6
g3
(g5
S'\xc8\r`\xca\x9f\xe6T@'
tRp661
F0.57631897926330566
tp662
a(I6
g3
(g5
S'\xc8\r`\xca\x9f\xe6T@'
tRp663
F14.075650930404663
tp664
a(I6
g3
(g5
S'\xc8\r`\xca\x9f\xe6T@'
tRp665
F0.64986491203308105
tp666
aa.