(lp1
(lp2
(I1
cnumpy.core.multiarray
scalar
p3
(cnumpy
dtype
p4
(S'f8'
I0
I1
tRp5
(I3
S'<'
NNNI-1
I-1
I0
tbS"d\xb1\xdf'Pdl@"
tRp6
F0.06548309326171875
tp7
a(I1
g3
(g5
S'\x81\xc6\xf0\x8a*\xc8k@'
tRp8
F0.066648960113525391
tp9
a(I1
g3
(g5
S'\x81\xc6\xf0\x8a*\xc8k@'
tRp10
F0.097245931625366211
tp11
a(I1
g3
(g5
S"d\xb1\xdf'Pdl@"
tRp12
F0.12759494781494141
tp13
a(I1
g3
(g5
S'\x81\xc6\xf0\x8a*\xc8k@'
tRp14
F0.071713924407958984
tp15
a(I1
g3
(g5
S'\x8b\xdd\xa5n\xd3\xa1h@'
tRp16
F7.3950049877166748
tp17
a(I1
g3
(g5
S'\x1b\x98^\x1a(\xdd`@'
tRp18
F0.083121061325073242
tp19
a(I1
g3
(g5
S'\x81\xc6\xf0\x8a*\xc8k@'
tRp20
F0.082086086273193359
tp21
a(I1
g3
(g5
S'\x81\xc6\xf0\x8a*\xc8k@'
tRp22
F0.078336000442504883
tp23
a(I1
g3
(g5
S'\x8b\xdd\xa5n\xd3\xa1h@'
tRp24
F0.0821990966796875
tp25
a(I1
g3
(g5
S'\x10\x81\xa96\x7f\x03d@'
tRp26
F8.0315680503845215
tp27
a(I1
g3
(g5
S'~\x05_\xf9\x14\x03f@'
tRp28
F0.08835291862487793
tp29
a(I1
g3
(g5
S'\xdc)\xbb\xfe\xe9\x88c@'
tRp30
F0.08942103385925293
tp31
a(I1
g3
(g5
S'_\x18\x89\xdd\x95[c@'
tRp32
F0.094851970672607422
tp33
a(I1
g3
(g5
S'v\xf7\xa6\xa2\xaa8V@'
tRp34
F0.091403007507324219
tp35
a(I1
g3
(g5
S'i/>\xc1>5`@'
tRp36
F8.6527149677276611
tp37
a(I1
g3
(g5
S'i/>\xc1>5`@'
tRp38
F0.13329815864562988
tp39
a(I1
g3
(g5
S'i/>\xc1>5`@'
tRp40
F0.13653802871704102
tp41
a(I1
g3
(g5
S'i/>\xc1>5`@'
tRp42
F0.13795089721679688
tp43
a(I1
g3
(g5
S'i/>\xc1>5`@'
tRp44
F0.13747906684875488
tp45
a(I1
g3
(g5
S'\xba\xae\xee\x97\x00-[@'
tRp46
F9.6080410480499268
tp47
a(I1
g3
(g5
S'\xba\xae\xee\x97\x00-[@'
tRp48
F0.20026707649230957
tp49
a(I1
g3
(g5
S'_\x18\x89\xdd\x95[c@'
tRp50
F0.27663302421569824
tp51
a(I1
g3
(g5
S'v\xf7\xa6\xa2\xaa8V@'
tRp52
F0.27040696144104004
tp53
a(I1
g3
(g5
S'v\xf7\xa6\xa2\xaa8V@'
tRp54
F1.215688943862915
tp55
a(I1
g3
(g5
S'v\xf7\xa6\xa2\xaa8V@'
tRp56
F10.942243814468384
tp57
a(I1
g3
(g5
S'(\x85\xac\x9d` 0@'
tRp58
F1.1777229309082031
tp59
a(I1
g3
(g5
S'*\xac\xf9\xcfn\x91S@'
tRp60
F1.1267101764678955
tp61
a(I1
g3
(g5
S'*\xac\xf9\xcfn\x91S@'
tRp62
F1.0656929016113281
tp63
a(I1
g3
(g5
S'(\x85\xac\x9d` 0@'
tRp64
F1.1354551315307617
tp65
a(I1
g3
(g5
S'*\xac\xf9\xcfn\x91S@'
tRp66
F11.744142055511475
tp67
a(I1
g3
(g5
S'*\xac\xf9\xcfn\x91S@'
tRp68
F1.3301730155944824
tp69
a(I1
g3
(g5
S'*\xac\xf9\xcfn\x91S@'
tRp70
F1.0647029876708984
tp71
a(I1
g3
(g5
S'*\xac\xf9\xcfn\x91S@'
tRp72
F1.3939821720123291
tp73
a(I1
g3
(g5
S'*\xac\xf9\xcfn\x91S@'
tRp74
F1.0353121757507324
tp75
a(I1
g3
(g5
S'*\xac\xf9\xcfn\x91S@'
tRp76
F13.674805879592896
tp77
a(I1
g3
(g5
S'(\x85\xac\x9d` 0@'
tRp78
F1.7117710113525391
tp79
a(I1
g3
(g5
S'*\xac\xf9\xcfn\x91S@'
tRp80
F0.76042795181274414
tp81
a(I1
g3
(g5
S'*\xac\xf9\xcfn\x91S@'
tRp82
F0.42293000221252441
tp83
a(I1
g3
(g5
S'*\xac\xf9\xcfn\x91S@'
tRp84
F1.2357509136199951
tp85
a(I1
g3
(g5
S'LT\xacY\x87\x0e@@'
tRp86
F11.62803316116333
tp87
a(I1
g3
(g5
S'LT\xacY\x87\x0e@@'
tRp88
F0.29976606369018555
tp89
a(I1
g3
(g5
S'\xda_\x08\x10w\xafd@'
tRp90
F0.32927680015563965
tp91
a(I1
g3
(g5
S'\xdc \x9a\xa1\x8ctj@'
tRp92
F0.10800695419311523
tp93
a(I1
g3
(g5
S'*\xac\xf9\xcfn\x91S@'
tRp94
F0.095717906951904297
tp95
a(I1
g3
(g5
S'7\x84d\x15L5b@'
tRp96
F10.842020988464355
tp97
a(I1
g3
(g5
S'*\xac\xf9\xcfn\x91S@'
tRp98
F0.10093498229980469
tp99
a(I1
g3
(g5
S'v\xf7\xa6\xa2\xaa8V@'
tRp100
F0.097410917282104492
tp101
a(I1
g3
(g5
S'LT\xacY\x87\x0e@@'
tRp102
F0.097738981246948242
tp103
a(I1
g3
(g5
S'@Zj\x95\xde9%@'
tRp104
F0.11009502410888672
tp105
a(I1
g3
(g5
S'@Zj\x95\xde9%@'
tRp106
F10.857843160629272
tp107
a(I1
g3
(g5
S'@Zj\x95\xde9%@'
tRp108
F0.1029198169708252
tp109
a(I1
g3
(g5
S'@Zj\x95\xde9%@'
tRp110
F0.10752081871032715
tp111
a(I1
g3
(g5
S'@Zj\x95\xde9%@'
tRp112
F0.10403299331665039
tp113
a(I1
g3
(g5
S'@Zj\x95\xde9%@'
tRp114
F0.1040809154510498
tp115
a(I1
g3
(g5
S'@Zj\x95\xde9%@'
tRp116
F10.909451007843018
tp117
a(I1
g3
(g5
S'@Zj\x95\xde9%@'
tRp118
F0.14572405815124512
tp119
a(I1
g3
(g5
S'@Zj\x95\xde9%@'
tRp120
F0.14525580406188965
tp121
a(I1
g3
(g5
S'@Zj\x95\xde9%@'
tRp122
F0.14630794525146484
tp123
a(I1
g3
(g5
S'@Zj\x95\xde9%@'
tRp124
F0.14621782302856445
tp125
a(I1
g3
(g5
S'@Zj\x95\xde9%@'
tRp126
F11.314600944519043
tp127
a(I1
g3
(g5
S'@Zj\x95\xde9%@'
tRp128
F0.15669584274291992
tp129
a(I1
g3
(g5
S'@Zj\x95\xde9%@'
tRp130
F0.15676283836364746
tp131
a(I1
g3
(g5
S'@Zj\x95\xde9%@'
tRp132
F0.17225813865661621
tp133
a(I1
g3
(g5
S'@Zj\x95\xde9%@'
tRp134
F0.15774798393249512
tp135
a(I1
g3
(g5
S'@Zj\x95\xde9%@'
tRp136
F11.644773006439209
tp137
a(I1
g3
(g5
S'@Zj\x95\xde9%@'
tRp138
F0.16979098320007324
tp139
a(I1
g3
(g5
S'@Zj\x95\xde9%@'
tRp140
F0.17017579078674316
tp141
a(I1
g3
(g5
S'@Zj\x95\xde9%@'
tRp142
F0.1707000732421875
tp143
a(I1
g3
(g5
S'@Zj\x95\xde9%@'
tRp144
F0.17116403579711914
tp145
a(I1
g3
(g5
S'@Zj\x95\xde9%@'
tRp146
F11.948101997375488
tp147
a(I1
g3
(g5
S'@Zj\x95\xde9%@'
tRp148
F0.16177701950073242
tp149
a(I1
g3
(g5
S'@Zj\x95\xde9%@'
tRp150
F0.16208696365356445
tp151
a(I1
g3
(g5
S'@Zj\x95\xde9%@'
tRp152
F0.1625208854675293
tp153
a(I1
g3
(g5
S'@Zj\x95\xde9%@'
tRp154
F0.16315007209777832
tp155
a(I1
g3
(g5
S'@Zj\x95\xde9%@'
tRp156
F12.285810947418213
tp157
a(I1
g3
(g5
S'@Zj\x95\xde9%@'
tRp158
F0.17471504211425781
tp159
a(I1
g3
(g5
S'@Zj\x95\xde9%@'
tRp160
F0.1751399040222168
tp161
a(I1
g3
(g5
S'@Zj\x95\xde9%@'
tRp162
F0.17534184455871582
tp163
a(I1
g3
(g5
S'@Zj\x95\xde9%@'
tRp164
F0.17618703842163086
tp165
a(I1
g3
(g5
S'@Zj\x95\xde9%@'
tRp166
F12.544924974441528
tp167
a(I1
g3
(g5
S'@Zj\x95\xde9%@'
tRp168
F0.15620613098144531
tp169
a(I1
g3
(g5
S'@Zj\x95\xde9%@'
tRp170
F0.17108392715454102
tp171
a(I1
g3
(g5
S'@Zj\x95\xde9%@'
tRp172
F0.15722417831420898
tp173
a(I1
g3
(g5
S'@Zj\x95\xde9%@'
tRp174
F0.1580970287322998
tp175
a(I1
g3
(g5
S'@Zj\x95\xde9%@'
tRp176
F12.926979064941406
tp177
a(I1
g3
(g5
S'@Zj\x95\xde9%@'
tRp178
F0.16738414764404297
tp179
a(I1
g3
(g5
S'@Zj\x95\xde9%@'
tRp180
F0.16771197319030762
tp181
a(I1
g3
(g5
S'@Zj\x95\xde9%@'
tRp182
F0.1684410572052002
tp183
a(I1
g3
(g5
S'@Zj\x95\xde9%@'
tRp184
F0.16855192184448242
tp185
a(I1
g3
(g5
S'@Zj\x95\xde9%@'
tRp186
F13.218845844268799
tp187
a(I1
g3
(g5
S'@Zj\x95\xde9%@'
tRp188
F0.16159701347351074
tp189
a(I1
g3
(g5
S'@Zj\x95\xde9%@'
tRp190
F0.16213798522949219
tp191
a(I1
g3
(g5
S'@Zj\x95\xde9%@'
tRp192
F0.16277599334716797
tp193
a(I1
g3
(g5
S'@Zj\x95\xde9%@'
tRp194
F0.16313695907592773
tp195
a(I1
g3
(g5
S'@Zj\x95\xde9%@'
tRp196
F13.57422399520874
tp197
a(I1
g3
(g5
S'@Zj\x95\xde9%@'
tRp198
F0.16434502601623535
tp199
a(I1
g3
(g5
S'@Zj\x95\xde9%@'
tRp200
F0.16486597061157227
tp201
a(I1
g3
(g5
S'@Zj\x95\xde9%@'
tRp202
F0.16496896743774414
tp203
a(I1
g3
(g5
S'@Zj\x95\xde9%@'
tRp204
F0.16524696350097656
tp205
aa(lp206
(I1
g3
(g5
S'\xdf\xb6v\xfb`\xd4j@'
tRp207
F0.062747955322265625
tp208
a(I1
g3
(g5
S'\xdaTP`\x1bZZ@'
tRp209
F0.065654993057250977
tp210
a(I1
g3
(g5
S'(\xc4\xc3\no-c@'
tRp211
F0.11378312110900879
tp212
a(I1
g3
(g5
S'(\xc4\xc3\no-c@'
tRp213
F0.13028192520141602
tp214
a(I1
g3
(g5
S'(\xc4\xc3\no-c@'
tRp215
F0.080152988433837891
tp216
a(I1
g3
(g5
S'\t\xb7\xf1uX\x95o@'
tRp217
F7.1992590427398682
tp218
a(I1
g3
(g5
S'!\xd8\xc6s\xfd\xe4k@'
tRp219
F0.10353922843933105
tp220
a(I1
g3
(g5
S'!\xd8\xc6s\xfd\xe4k@'
tRp221
F0.10828685760498047
tp222
a(I1
g3
(g5
S'\x9e\xaf\xd5\xbd\x9c\xc2n@'
tRp223
F0.078143119812011719
tp224
a(I1
g3
(g5
S'\xda\xfcY\xeb\x80\xeec@'
tRp225
F0.072575092315673828
tp226
a(I1
g3
(g5
S'\x80\xca1\x11(\xfa^@'
tRp227
F8.1830110549926758
tp228
a(I1
g3
(g5
S'j\xaf\xa8&\x1cxZ@'
tRp229
F0.1265418529510498
tp230
a(I1
g3
(g5
S'\xaa\xbb\xf9\xa0\xb0T]@'
tRp231
F0.087972879409790039
tp232
a(I1
g3
(g5
S'\xaa\xbb\xf9\xa0\xb0T]@'
tRp233
F0.19649505615234375
tp234
a(I1
g3
(g5
S'\xda\xfcY\xeb\x80\xeec@'
tRp235
F0.14430999755859375
tp236
a(I1
g3
(g5
S"\xe4'\xb0\x00^\x1aN@"
tRp237
F8.7031519412994385
tp238
a(I1
g3
(g5
S'\x00\xdcM\xe0\x99\x057@'
tRp239
F0.21664595603942871
tp240
a(I1
g3
(g5
S'\x00\xdcM\xe0\x99\x057@'
tRp241
F0.20540499687194824
tp242
a(I1
g3
(g5
S'\x00\xdcM\xe0\x99\x057@'
tRp243
F0.27238893508911133
tp244
a(I1
g3
(g5
S'\x00\xdcM\xe0\x99\x057@'
tRp245
F0.26388406753540039
tp246
a(I1
g3
(g5
S'\x00\xdcM\xe0\x99\x057@'
tRp247
F9.4535129070281982
tp248
a(I1
g3
(g5
S'\x00\xdcM\xe0\x99\x057@'
tRp249
F0.19340896606445312
tp250
a(I1
g3
(g5
S'\x00\xdcM\xe0\x99\x057@'
tRp251
F0.20140695571899414
tp252
a(I1
g3
(g5
S'\x00\xdcM\xe0\x99\x057@'
tRp253
F0.17322301864624023
tp254
a(I1
g3
(g5
S'\x00\xdcM\xe0\x99\x057@'
tRp255
F0.19104409217834473
tp256
a(I1
g3
(g5
S'\x00\xdcM\xe0\x99\x057@'
tRp257
F10.755966901779175
tp258
a(I1
g3
(g5
S'\xc4\\oN9\x91^@'
tRp259
F0.23572897911071777
tp260
a(I1
g3
(g5
S'\x00\xdcM\xe0\x99\x057@'
tRp261
F0.24276995658874512
tp262
a(I1
g3
(g5
S'\x00\xdcM\xe0\x99\x057@'
tRp263
F0.24953889846801758
tp264
a(I1
g3
(g5
S'\x00\xdcM\xe0\x99\x057@'
tRp265
F0.32367587089538574
tp266
a(I1
g3
(g5
S'\x00\xdcM\xe0\x99\x057@'
tRp267
F12.496776103973389
tp268
a(I1
g3
(g5
S'\x00\xdcM\xe0\x99\x057@'
tRp269
F0.22648191452026367
tp270
a(I1
g3
(g5
S"\xe4'\xb0\x00^\x1aN@"
tRp271
F0.18439888954162598
tp272
a(I1
g3
(g5
S"\xe4'\xb0\x00^\x1aN@"
tRp273
F0.10709810256958008
tp274
a(I1
g3
(g5
S"\xe4'\xb0\x00^\x1aN@"
tRp275
F0.10703206062316895
tp276
a(I1
g3
(g5
S"\xe4'\xb0\x00^\x1aN@"
tRp277
F10.091933965682983
tp278
a(I1
g3
(g5
S"\xe4'\xb0\x00^\x1aN@"
tRp279
F0.12645792961120605
tp280
a(I1
g3
(g5
S"\xe4'\xb0\x00^\x1aN@"
tRp281
F0.12553000450134277
tp282
a(I1
g3
(g5
S"\xe4'\xb0\x00^\x1aN@"
tRp283
F0.12633109092712402
tp284
a(I1
g3
(g5
S"\xe4'\xb0\x00^\x1aN@"
tRp285
F0.12664294242858887
tp286
a(I1
g3
(g5
S'\xe0TR3%\x9es@'
tRp287
F10.640123844146729
tp288
a(I1
g3
(g5
S'\xe0TR3%\x9es@'
tRp289
F0.084604024887084961
tp290
a(I1
g3
(g5
S'\xe0TR3%\x9es@'
tRp291
F0.085038900375366211
tp292
a(I1
g3
(g5
S'\xe0TR3%\x9es@'
tRp293
F0.086349010467529297
tp294
a(I1
g3
(g5
S'\xe0TR3%\x9es@'
tRp295
F0.085814952850341797
tp296
a(I1
g3
(g5
S"\xe4'\xb0\x00^\x1aN@"
tRp297
F10.338474035263062
tp298
a(I1
g3
(g5
S"\xe4'\xb0\x00^\x1aN@"
tRp299
F0.10999107360839844
tp300
a(I1
g3
(g5
S"\xe4'\xb0\x00^\x1aN@"
tRp301
F0.11185598373413086
tp302
a(I1
g3
(g5
S"\xe4'\xb0\x00^\x1aN@"
tRp303
F0.1110990047454834
tp304
a(I1
g3
(g5
S"\xe4'\xb0\x00^\x1aN@"
tRp305
F0.11112594604492188
tp306
a(I1
g3
(g5
S"\xe4'\xb0\x00^\x1aN@"
tRp307
F10.556231021881104
tp308
a(I1
g3
(g5
S"\xe4'\xb0\x00^\x1aN@"
tRp309
F0.11241722106933594
tp310
a(I1
g3
(g5
S"\xe4'\xb0\x00^\x1aN@"
tRp311
F0.11294698715209961
tp312
a(I1
g3
(g5
S"\xe4'\xb0\x00^\x1aN@"
tRp313
F0.11416482925415039
tp314
a(I1
g3
(g5
S"\xe4'\xb0\x00^\x1aN@"
tRp315
F0.1139070987701416
tp316
a(I1
g3
(g5
S'\x00\xdcM\xe0\x99\x057@'
tRp317
F10.938285827636719
tp318
a(I1
g3
(g5
S'\x00\xdcM\xe0\x99\x057@'
tRp319
F0.12778306007385254
tp320
a(I1
g3
(g5
S'\x00\xdcM\xe0\x99\x057@'
tRp321
F0.12804794311523438
tp322
a(I1
g3
(g5
S'\x00\xdcM\xe0\x99\x057@'
tRp323
F0.12921595573425293
tp324
a(I1
g3
(g5
S'\x00\xdcM\xe0\x99\x057@'
tRp325
F0.12967300415039062
tp326
a(I1
g3
(g5
S'\x00\xdcM\xe0\x99\x057@'
tRp327
F11.197252988815308
tp328
a(I1
g3
(g5
S'\x00\xdcM\xe0\x99\x057@'
tRp329
F0.1360931396484375
tp330
a(I1
g3
(g5
S'\x00\xdcM\xe0\x99\x057@'
tRp331
F0.13635087013244629
tp332
a(I1
g3
(g5
S'\x00\xdcM\xe0\x99\x057@'
tRp333
F0.13667607307434082
tp334
a(I1
g3
(g5
S'\x00\xdcM\xe0\x99\x057@'
tRp335
F0.13707304000854492
tp336
a(I1
g3
(g5
S'\x00\xdcM\xe0\x99\x057@'
tRp337
F11.561071872711182
tp338
a(I1
g3
(g5
S'\x00\xdcM\xe0\x99\x057@'
tRp339
F0.11617708206176758
tp340
a(I1
g3
(g5
S'\x00\xdcM\xe0\x99\x057@'
tRp341
F0.11685299873352051
tp342
a(I1
g3
(g5
S'\x00\xdcM\xe0\x99\x057@'
tRp343
F0.12274503707885742
tp344
a(I1
g3
(g5
S'\x00\xdcM\xe0\x99\x057@'
tRp345
F0.11790204048156738
tp346
a(I1
g3
(g5
S'\xe0TR3%\x9es@'
tRp347
F11.910430908203125
tp348
a(I1
g3
(g5
S'\xe0TR3%\x9es@'
tRp349
F0.099260091781616211
tp350
a(I1
g3
(g5
S'\xe0TR3%\x9es@'
tRp351
F0.10114693641662598
tp352
a(I1
g3
(g5
S'\xe0TR3%\x9es@'
tRp353
F0.10183000564575195
tp354
a(I1
g3
(g5
S'\xe0TR3%\x9es@'
tRp355
F0.10653591156005859
tp356
a(I1
g3
(g5
S'\x00\xdcM\xe0\x99\x057@'
tRp357
F12.138146877288818
tp358
a(I1
g3
(g5
S'\x00\xdcM\xe0\x99\x057@'
tRp359
F0.14666008949279785
tp360
a(I1
g3
(g5
S'\x00\xdcM\xe0\x99\x057@'
tRp361
F0.14687705039978027
tp362
a(I1
g3
(g5
S'\x00\xdcM\xe0\x99\x057@'
tRp363
F0.1478271484375
tp364
a(I1
g3
(g5
S'\x00\xdcM\xe0\x99\x057@'
tRp365
F0.1550290584564209
tp366
a(I1
g3
(g5
S'\x00\xdcM\xe0\x99\x057@'
tRp367
F12.536641836166382
tp368
a(I1
g3
(g5
S'\x00\xdcM\xe0\x99\x057@'
tRp369
F0.12198209762573242
tp370
a(I1
g3
(g5
S'\x00\xdcM\xe0\x99\x057@'
tRp371
F0.12229299545288086
tp372
a(I1
g3
(g5
S'\x00\xdcM\xe0\x99\x057@'
tRp373
F0.12860107421875
tp374
a(I1
g3
(g5
S'\x00\xdcM\xe0\x99\x057@'
tRp375
F0.12317490577697754
tp376
a(I1
g3
(g5
S'\x00\xdcM\xe0\x99\x057@'
tRp377
F12.844497203826904
tp378
a(I1
g3
(g5
S'\x00\xdcM\xe0\x99\x057@'
tRp379
F0.14763712882995605
tp380
a(I1
g3
(g5
S'\x00\xdcM\xe0\x99\x057@'
tRp381
F0.14801812171936035
tp382
a(I1
g3
(g5
S'\x00\xdcM\xe0\x99\x057@'
tRp383
F0.14884400367736816
tp384
a(I1
g3
(g5
S'\x00\xdcM\xe0\x99\x057@'
tRp385
F0.14880609512329102
tp386
a(I1
g3
(g5
S"\xe4'\xb0\x00^\x1aN@"
tRp387
F13.212018013000488
tp388
a(I1
g3
(g5
S"\xe4'\xb0\x00^\x1aN@"
tRp389
F0.15310883522033691
tp390
a(I1
g3
(g5
S"\xe4'\xb0\x00^\x1aN@"
tRp391
F0.15295791625976562
tp392
a(I1
g3
(g5
S"\xe4'\xb0\x00^\x1aN@"
tRp393
F0.1537940502166748
tp394
a(I1
g3
(g5
S"\xe4'\xb0\x00^\x1aN@"
tRp395
F0.15598702430725098
tp396
a(I1
g3
(g5
S"\xe4'\xb0\x00^\x1aN@"
tRp397
F13.451376914978027
tp398
a(I1
g3
(g5
S"\xe4'\xb0\x00^\x1aN@"
tRp399
F0.13461399078369141
tp400
a(I1
g3
(g5
S"\xe4'\xb0\x00^\x1aN@"
tRp401
F0.13498806953430176
tp402
a(I1
g3
(g5
S"\xe4'\xb0\x00^\x1aN@"
tRp403
F0.1357719898223877
tp404
a(I1
g3
(g5
S"\xe4'\xb0\x00^\x1aN@"
tRp405
F0.13599205017089844
tp406
aa(lp407
(I1
g3
(g5
S'\xbc\x94>S\x91\xdcv@'
tRp408
F0.063145875930786133
tp409
a(I1
g3
(g5
S'p+b\x05\xd5\x06v@'
tRp410
F0.065575838088989258
tp411
a(I1
g3
(g5
S'p+b\x05\xd5\x06v@'
tRp412
F0.11072993278503418
tp413
a(I1
g3
(g5
S'\x1a\xdd\xc3\xcbF\xb4p@'
tRp414
F0.1118781566619873
tp415
a(I1
g3
(g5
S'\x9c\xe7\xce\xfb\x14\xbdo@'
tRp416
F0.071502923965454102
tp417
a(I1
g3
(g5
S'\x9c\xe7\xce\xfb\x14\xbdo@'
tRp418
F7.3118910789489746
tp419
a(I1
g3
(g5
S'p+b\x05\xd5\x06v@'
tRp420
F0.073452949523925781
tp421
a(I1
g3
(g5
S'\x9c\xe7\xce\xfb\x14\xbdo@'
tRp422
F0.074265003204345703
tp423
a(I1
g3
(g5
S'\xed\xa0\xe5\x80\xd2\x91h@'
tRp424
F0.076689004898071289
tp425
a(I1
g3
(g5
S'\xb4S\x9a\xd0(\xf7Y@'
tRp426
F0.07279515266418457
tp427
a(I1
g3
(g5
S'\x9c\xe7\xce\xfb\x14\xbdo@'
tRp428
F7.7231600284576416
tp429
a(I1
g3
(g5
S'\x9c\xe7\xce\xfb\x14\xbdo@'
tRp430
F0.073742151260375977
tp431
a(I1
g3
(g5
S'\xed\xa0\xe5\x80\xd2\x91h@'
tRp432
F0.081588983535766602
tp433
a(I1
g3
(g5
S'\xed\xa0\xe5\x80\xd2\x91h@'
tRp434
F0.097814083099365234
tp435
a(I1
g3
(g5
S'\xed\xa0\xe5\x80\xd2\x91h@'
tRp436
F0.10083508491516113
tp437
a(I1
g3
(g5
S'\x85s\x9e\x1cK=j@'
tRp438
F8.1185410022735596
tp439
a(I1
g3
(g5
S'\x85s\x9e\x1cK=j@'
tRp440
F0.24606609344482422
tp441
a(I1
g3
(g5
S'\x85s\x9e\x1cK=j@'
tRp442
F0.14693403244018555
tp443
a(I1
g3
(g5
S'\x85s\x9e\x1cK=j@'
tRp444
F0.18234014511108398
tp445
a(I1
g3
(g5
S'\x85s\x9e\x1cK=j@'
tRp446
F0.14968013763427734
tp447
a(I1
g3
(g5
S'\x85s\x9e\x1cK=j@'
tRp448
F8.494999885559082
tp449
a(I1
g3
(g5
S'\x85s\x9e\x1cK=j@'
tRp450
F0.1515498161315918
tp451
a(I1
g3
(g5
S'\x85s\x9e\x1cK=j@'
tRp452
F0.11850690841674805
tp453
a(I1
g3
(g5
S'\xe8\xf8\x0b\x08\x1aN]@'
tRp454
F0.17251801490783691
tp455
a(I1
g3
(g5
S'\xe8\xf8\x0b\x08\x1aN]@'
tRp456
F0.1307990550994873
tp457
a(I1
g3
(g5
S'\xe8\xf8\x0b\x08\x1aN]@'
tRp458
F9.4621880054473877
tp459
a(I1
g3
(g5
S'\xe8\xf8\x0b\x08\x1aN]@'
tRp460
F0.22099900245666504
tp461
a(I1
g3
(g5
S'\xb0\xe7\xe6\xfa\x02\\R@'
tRp462
F0.17199087142944336
tp463
a(I1
g3
(g5
S'\xb0\xe7\xe6\xfa\x02\\R@'
tRp464
F0.17716479301452637
tp465
a(I1
g3
(g5
S'\xb0\xe7\xe6\xfa\x02\\R@'
tRp466
F0.15661096572875977
tp467
a(I1
g3
(g5
S'\xb0\xe7\xe6\xfa\x02\\R@'
tRp468
F10.14483904838562
tp469
a(I1
g3
(g5
S'\xb0\xe7\xe6\xfa\x02\\R@'
tRp470
F0.24101686477661133
tp471
a(I1
g3
(g5
S'\xb0\xe7\xe6\xfa\x02\\R@'
tRp472
F0.20560121536254883
tp473
a(I1
g3
(g5
S'\xb0\xe7\xe6\xfa\x02\\R@'
tRp474
F0.22734308242797852
tp475
a(I1
g3
(g5
S'\xb0\xe7\xe6\xfa\x02\\R@'
tRp476
F0.44568109512329102
tp477
a(I1
g3
(g5
S'\xb0\xe7\xe6\xfa\x02\\R@'
tRp478
F12.349923849105835
tp479
a(I1
g3
(g5
S'\xb0\xe7\xe6\xfa\x02\\R@'
tRp480
F0.1470339298248291
tp481
a(I1
g3
(g5
S'\xb0\xe7\xe6\xfa\x02\\R@'
tRp482
F0.15082502365112305
tp483
a(I1
g3
(g5
S'\xb0\xe7\xe6\xfa\x02\\R@'
tRp484
F0.14701008796691895
tp485
a(I1
g3
(g5
S'\xb0\xe7\xe6\xfa\x02\\R@'
tRp486
F0.1643979549407959
tp487
a(I1
g3
(g5
S'\xb0\xe7\xe6\xfa\x02\\R@'
tRp488
F12.527493953704834
tp489
a(I1
g3
(g5
S'\x88\xba\\\xf8CY`@'
tRp490
F0.34107613563537598
tp491
a(I1
g3
(g5
S'\x88\xba\\\xf8CY`@'
tRp492
F0.47480893135070801
tp493
a(I1
g3
(g5
S'\xb0\xe7\xe6\xfa\x02\\R@'
tRp494
F0.82018494606018066
tp495
a(I1
g3
(g5
S'\xb0\xe7\xe6\xfa\x02\\R@'
tRp496
F1.3795540332794189
tp497
a(I1
g3
(g5
S'\x00\x85\xea\x86#\nN@'
tRp498
F12.500454187393188
tp499
a(I1
g3
(g5
S'\xb0\xe7\xe6\xfa\x02\\R@'
tRp500
F0.17342305183410645
tp501
a(I1
g3
(g5
S'\xb4S\x9a\xd0(\xf7Y@'
tRp502
F0.10303807258605957
tp503
a(I1
g3
(g5
S'\xb4S\x9a\xd0(\xf7Y@'
tRp504
F0.10077118873596191
tp505
a(I1
g3
(g5
S'\xb4S\x9a\xd0(\xf7Y@'
tRp506
F0.11002516746520996
tp507
a(I1
g3
(g5
S'\xb4S\x9a\xd0(\xf7Y@'
tRp508
F11.163921117782593
tp509
a(I1
g3
(g5
S'\x00\x85\xea\x86#\nN@'
tRp510
F0.1104128360748291
tp511
a(I1
g3
(g5
S'\x00\x85\xea\x86#\nN@'
tRp512
F0.1065371036529541
tp513
a(I1
g3
(g5
S'\x00\xf1{[\xd5\x8d\xf9?'
tRp514
F0.1100928783416748
tp515
a(I1
g3
(g5
S'\xe8\x17\xeb\x91Q\x99J@'
tRp516
F0.11266803741455078
tp517
a(I1
g3
(g5
S'\xe8\x17\xeb\x91Q\x99J@'
tRp518
F11.198076963424683
tp519
a(I1
g3
(g5
S'\xe8\x17\xeb\x91Q\x99J@'
tRp520
F0.10845303535461426
tp521
a(I1
g3
(g5
S'\xe8\x17\xeb\x91Q\x99J@'
tRp522
F0.10915303230285645
tp523
a(I1
g3
(g5
S'\xe8\x17\xeb\x91Q\x99J@'
tRp524
F0.10989689826965332
tp525
a(I1
g3
(g5
S'\xe8\x17\xeb\x91Q\x99J@'
tRp526
F0.11025404930114746
tp527
a(I1
g3
(g5
S'\xb0\xe7\xe6\xfa\x02\\R@'
tRp528
F11.190721988677979
tp529
a(I1
g3
(g5
S'\x00\xf1{[\xd5\x8d\xf9?'
tRp530
F0.1155698299407959
tp531
a(I1
g3
(g5
S'\x00\xf1{[\xd5\x8d\xf9?'
tRp532
F0.1118621826171875
tp533
a(I1
g3
(g5
S'\x00\xf1{[\xd5\x8d\xf9?'
tRp534
F0.10974717140197754
tp535
a(I1
g3
(g5
S'\x00\xf1{[\xd5\x8d\xf9?'
tRp536
F0.12601399421691895
tp537
a(I1
g3
(g5
S'\xe8\x17\xeb\x91Q\x99J@'
tRp538
F11.473836898803711
tp539
a(I1
g3
(g5
S'\xe8\x17\xeb\x91Q\x99J@'
tRp540
F0.11739397048950195
tp541
a(I1
g3
(g5
S'\xd0\xae:\x1clhI@'
tRp542
F0.11492800712585449
tp543
a(I1
g3
(g5
S'\xe8\x17\xeb\x91Q\x99J@'
tRp544
F0.11331892013549805
tp545
a(I1
g3
(g5
S'\xb0\xe7\xe6\xfa\x02\\R@'
tRp546
F0.12222003936767578
tp547
a(I1
g3
(g5
S'\xb0\xe7\xe6\xfa\x02\\R@'
tRp548
F11.763143062591553
tp549
a(I1
g3
(g5
S'\xb0\xe7\xe6\xfa\x02\\R@'
tRp550
F0.11727404594421387
tp551
a(I1
g3
(g5
S'\xb0\xe7\xe6\xfa\x02\\R@'
tRp552
F0.12301015853881836
tp553
a(I1
g3
(g5
S'\xb0\xe7\xe6\xfa\x02\\R@'
tRp554
F0.12330985069274902
tp555
a(I1
g3
(g5
S'\xb0\xe7\xe6\xfa\x02\\R@'
tRp556
F0.1240689754486084
tp557
a(I1
g3
(g5
S'\xb0\xe7\xe6\xfa\x02\\R@'
tRp558
F12.15162205696106
tp559
a(I1
g3
(g5
S'\xb0\xe7\xe6\xfa\x02\\R@'
tRp560
F0.13866400718688965
tp561
a(I1
g3
(g5
S'\xb0\xe7\xe6\xfa\x02\\R@'
tRp562
F0.12177419662475586
tp563
a(I1
g3
(g5
S'\xb0\xe7\xe6\xfa\x02\\R@'
tRp564
F0.12198209762573242
tp565
a(I1
g3
(g5
S'\xb0\xe7\xe6\xfa\x02\\R@'
tRp566
F0.12259411811828613
tp567
a(I1
g3
(g5
S'\x00\xf1{[\xd5\x8d\xf9?'
tRp568
F12.437956094741821
tp569
a(I1
g3
(g5
S'\x00\xf1{[\xd5\x8d\xf9?'
tRp570
F0.1233220100402832
tp571
a(I1
g3
(g5
S'\x00\xf1{[\xd5\x8d\xf9?'
tRp572
F0.12304496765136719
tp573
a(I1
g3
(g5
S'\x00\xf1{[\xd5\x8d\xf9?'
tRp574
F0.12349319458007812
tp575
a(I1
g3
(g5
S'\x00\xf1{[\xd5\x8d\xf9?'
tRp576
F0.12826108932495117
tp577
a(I1
g3
(g5
S'\x00\x00\x00\x00\x00\x00\x00\x00'
tRp578
F12.754217147827148
tp579
aa(lp580
(I1
g3
(g5
S'\x98\x81ECh\x07s@'
tRp581
F0.06317901611328125
tp582
a(I1
g3
(g5
S'DH\x9b\xb48\xd6p@'
tRp583
F0.065340995788574219
tp584
a(I1
g3
(g5
S'DH\x9b\xb48\xd6p@'
tRp585
F0.12845897674560547
tp586
a(I1
g3
(g5
S'DH\x9b\xb48\xd6p@'
tRp587
F0.12587094306945801
tp588
a(I1
g3
(g5
S'DH\x9b\xb48\xd6p@'
tRp589
F0.12113595008850098
tp590
a(I1
g3
(g5
S'\x8d\xa4.\n4\x9el@'
tRp591
F8.9910130500793457
tp592
a(I1
g3
(g5
S'DH\x9b\xb48\xd6p@'
tRp593
F1.2502188682556152
tp594
a(I1
g3
(g5
S'DH\x9b\xb48\xd6p@'
tRp595
F0.30449008941650391
tp596
a(I1
g3
(g5
S'\xa9R\xa4\x90\xed\x06w@'
tRp597
F0.28185606002807617
tp598
a(I1
g3
(g5
S'\xa9R\xa4\x90\xed\x06w@'
tRp599
F0.75743317604064941
tp600
a(I1
g3
(g5
S'DH\x9b\xb48\xd6p@'
tRp601
F8.5443258285522461
tp602
a(I1
g3
(g5
S'DH\x9b\xb48\xd6p@'
tRp603
F0.32568693161010742
tp604
a(I1
g3
(g5
S'e$!)1\xafj@'
tRp605
F0.44921493530273438
tp606
a(I1
g3
(g5
S'e$!)1\xafj@'
tRp607
F0.3521418571472168
tp608
a(I1
g3
(g5
S'f\xeex\xcef\xadi@'
tRp609
F0.38794207572937012
tp610
a(I1
g3
(g5
S'\x96_2\xa7`\\b@'
tRp611
F13.408998966217041
tp612
a(I1
g3
(g5
S'\xcem\xcb\x17R\xbd^@'
tRp613
F8.5357799530029297
tp614
a(I1
g3
(g5
S'\x93\x0f\xbfM9\xb4`@'
tRp615
F5.607964038848877
tp616
a(I1
g3
(g5
S'e$!)1\xafj@'
tRp617
F12.555644989013672
tp618
a(I1
g3
(g5
S'\x96_2\xa7`\\b@'
tRp619
F8.5849721431732178
tp620
a(I1
g3
(g5
S'4\xe7T\x90F\x9cZ@'
tRp621
F11.532789945602417
tp622
a(I1
g3
(g5
S'DH\x9b\xb48\xd6p@'
tRp623
F0.18323898315429688
tp624
a(I1
g3
(g5
S'\xa4\x11\x7fd}\x85Z@'
tRp625
F0.093531131744384766
tp626
a(I1
g3
(g5
S'\x16\xa95u\xf1`k@'
tRp627
F0.10047698020935059
tp628
a(I1
g3
(g5
S'\xa1M.4\x8f\x95e@'
tRp629
F0.10043096542358398
tp630
a(I1
g3
(g5
S'\xbe\xdf?\x88cKd@'
tRp631
F10.063071012496948
tp632
a(I1
g3
(g5
S'e$!)1\xafj@'
tRp633
F0.098095893859863281
tp634
a(I1
g3
(g5
S'\x96_2\xa7`\\b@'
tRp635
F0.091045856475830078
tp636
a(I1
g3
(g5
S'\x96_2\xa7`\\b@'
tRp637
F0.1300818920135498
tp638
a(I1
g3
(g5
S'4\xe7T\x90F\x9cZ@'
tRp639
F0.10248994827270508
tp640
a(I1
g3
(g5
S'\x96_2\xa7`\\b@'
tRp641
F10.940158128738403
tp642
a(I1
g3
(g5
S'\x98\xf0}(\xc7\xff[@'
tRp643
F0.1173250675201416
tp644
a(I1
g3
(g5
S'\xcc0\xf3?\xfa\x1fT@'
tRp645
F0.097723007202148438
tp646
a(I1
g3
(g5
S'H\x84\x12\xb1,\x1eV@'
tRp647
F0.092049121856689453
tp648
a(I1
g3
(g5
S'<\xda\x8b\xb8\x81CU@'
tRp649
F0.14091897010803223
tp650
a(I1
g3
(g5
S'\x88\x04\xf8\xf4\rNF@'
tRp651
F10.924337148666382
tp652
a(I1
g3
(g5
S'\x96_2\xa7`\\b@'
tRp653
F0.12726712226867676
tp654
a(I1
g3
(g5
S'<\xda\x8b\xb8\x81CU@'
tRp655
F0.14451384544372559
tp656
a(I1
g3
(g5
S'<\xda\x8b\xb8\x81CU@'
tRp657
F0.13070797920227051
tp658
a(I1
g3
(g5
S'<\xda\x8b\xb8\x81CU@'
tRp659
F0.13198018074035645
tp660
a(I1
g3
(g5
S'\xe0WB\x0c\xb2\x155@'
tRp661
F10.768834829330444
tp662
a(I1
g3
(g5
S'<\xda\x8b\xb8\x81CU@'
tRp663
F0.14600419998168945
tp664
a(I1
g3
(g5
S'\x80\t{\x1c \xd9\x14@'
tRp665
F0.12249994277954102
tp666
a(I1
g3
(g5
S'<\xda\x8b\xb8\x81CU@'
tRp667
F0.11997699737548828
tp668
a(I1
g3
(g5
S'<\xda\x8b\xb8\x81CU@'
tRp669
F0.12747406959533691
tp670
a(I1
g3
(g5
S'<\xda\x8b\xb8\x81CU@'
tRp671
F11.323722839355469
tp672
a(I1
g3
(g5
S'<\xda\x8b\xb8\x81CU@'
tRp673
F0.14117288589477539
tp674
a(I1
g3
(g5
S'<\xda\x8b\xb8\x81CU@'
tRp675
F0.14191293716430664
tp676
a(I1
g3
(g5
S'<\xda\x8b\xb8\x81CU@'
tRp677
F0.14194798469543457
tp678
a(I1
g3
(g5
S'<\xda\x8b\xb8\x81CU@'
tRp679
F0.14256000518798828
tp680
a(I1
g3
(g5
S'<\xda\x8b\xb8\x81CU@'
tRp681
F10.991344928741455
tp682
a(I1
g3
(g5
S'<\xda\x8b\xb8\x81CU@'
tRp683
F0.14853000640869141
tp684
a(I1
g3
(g5
S'<\xda\x8b\xb8\x81CU@'
tRp685
F0.14832186698913574
tp686
a(I1
g3
(g5
S'<\xda\x8b\xb8\x81CU@'
tRp687
F0.14887881278991699
tp688
a(I1
g3
(g5
S'<\xda\x8b\xb8\x81CU@'
tRp689
F0.1491701602935791
tp690
a(I1
g3
(g5
S'<\xda\x8b\xb8\x81CU@'
tRp691
F11.322890043258667
tp692
a(I1
g3
(g5
S'<\xda\x8b\xb8\x81CU@'
tRp693
F0.15140485763549805
tp694
a(I1
g3
(g5
S'<\xda\x8b\xb8\x81CU@'
tRp695
F0.15196490287780762
tp696
a(I1
g3
(g5
S'<\xda\x8b\xb8\x81CU@'
tRp697
F0.15241217613220215
tp698
a(I1
g3
(g5
S'<\xda\x8b\xb8\x81CU@'
tRp699
F0.15292501449584961
tp700
a(I1
g3
(g5
S'<\xda\x8b\xb8\x81CU@'
tRp701
F11.805393934249878
tp702
a(I1
g3
(g5
S'<\xda\x8b\xb8\x81CU@'
tRp703
F0.1626889705657959
tp704
a(I1
g3
(g5
S'<\xda\x8b\xb8\x81CU@'
tRp705
F0.15594005584716797
tp706
a(I1
g3
(g5
S'<\xda\x8b\xb8\x81CU@'
tRp707
F0.15760588645935059
tp708
a(I1
g3
(g5
S'<\xda\x8b\xb8\x81CU@'
tRp709
F0.15690183639526367
tp710
a(I1
g3
(g5
S'<\xda\x8b\xb8\x81CU@'
tRp711
F12.072761058807373
tp712
a(I1
g3
(g5
S'<\xda\x8b\xb8\x81CU@'
tRp713
F0.1435401439666748
tp714
a(I1
g3
(g5
S'<\xda\x8b\xb8\x81CU@'
tRp715
F0.1432490348815918
tp716
a(I1
g3
(g5
S'<\xda\x8b\xb8\x81CU@'
tRp717
F0.14369297027587891
tp718
a(I1
g3
(g5
S'<\xda\x8b\xb8\x81CU@'
tRp719
F0.14445805549621582
tp720
a(I1
g3
(g5
S'\x80\t{\x1c \xd9\x14@'
tRp721
F12.253664970397949
tp722
a(I1
g3
(g5
S'\x80\t{\x1c \xd9\x14@'
tRp723
F0.13719892501831055
tp724
a(I1
g3
(g5
S'\x80\t{\x1c \xd9\x14@'
tRp725
F0.13989686965942383
tp726
a(I1
g3
(g5
S'\x80\t{\x1c \xd9\x14@'
tRp727
F0.13892102241516113
tp728
a(I1
g3
(g5
S'\x80\t{\x1c \xd9\x14@'
tRp729
F0.1393430233001709
tp730
a(I1
g3
(g5
S'<\xda\x8b\xb8\x81CU@'
tRp731
F12.750520944595337
tp732
a(I1
g3
(g5
S'<\xda\x8b\xb8\x81CU@'
tRp733
F0.151123046875
tp734
a(I1
g3
(g5
S'<\xda\x8b\xb8\x81CU@'
tRp735
F0.15134406089782715
tp736
a(I1
g3
(g5
S'<\xda\x8b\xb8\x81CU@'
tRp737
F0.15138912200927734
tp738
a(I1
g3
(g5
S'<\xda\x8b\xb8\x81CU@'
tRp739
F0.15246295928955078
tp740
a(I1
g3
(g5
S'\xe0WB\x0c\xb2\x155@'
tRp741
F12.996905088424683
tp742
a(I1
g3
(g5
S'\xe0WB\x0c\xb2\x155@'
tRp743
F0.12955403327941895
tp744
a(I1
g3
(g5
S'\xe0WB\x0c\xb2\x155@'
tRp745
F0.16459417343139648
tp746
a(I1
g3
(g5
S'\xe0WB\x0c\xb2\x155@'
tRp747
F0.16521191596984863
tp748
a(I1
g3
(g5
S'\xe0WB\x0c\xb2\x155@'
tRp749
F0.16593599319458008
tp750
a(I1
g3
(g5
S'\x80\t{\x1c \xd9\x14@'
tRp751
F13.185405015945435
tp752
a(I1
g3
(g5
S'\x80\t{\x1c \xd9\x14@'
tRp753
F0.15639185905456543
tp754
a(I1
g3
(g5
S'\x80\t{\x1c \xd9\x14@'
tRp755
F0.16107892990112305
tp756
a(I1
g3
(g5
S'\x80\t{\x1c \xd9\x14@'
tRp757
F0.16068911552429199
tp758
a(I1
g3
(g5
S'\x80\t{\x1c \xd9\x14@'
tRp759
F0.16664409637451172
tp760
a(I1
g3
(g5
S'\x80\t{\x1c \xd9\x14@'
tRp761
F13.673737049102783
tp762
a(I1
g3
(g5
S'\x80\t{\x1c \xd9\x14@'
tRp763
F0.19805192947387695
tp764
a(I1
g3
(g5
S'\x80\t{\x1c \xd9\x14@'
tRp765
F0.21674299240112305
tp766
a(I1
g3
(g5
S'\x80\t{\x1c \xd9\x14@'
tRp767
F0.19955110549926758
tp768
a(I1
g3
(g5
S'\x80\t{\x1c \xd9\x14@'
tRp769
F0.20023083686828613
tp770
a(I1
g3
(g5
S'\x80\t{\x1c \xd9\x14@'
tRp771
F13.989933967590332
tp772
a(I1
g3
(g5
S'\x80\t{\x1c \xd9\x14@'
tRp773
F0.13906288146972656
tp774
a(I1
g3
(g5
S'\x80\t{\x1c \xd9\x14@'
tRp775
F0.13925409317016602
tp776
a(I1
g3
(g5
S'\x80\t{\x1c \xd9\x14@'
tRp777
F0.13980412483215332
tp778
a(I1
g3
(g5
S'\x80\t{\x1c \xd9\x14@'
tRp779
F0.14057111740112305
tp780
aa(lp781
(I1
g3
(g5
S'3\xea\xd67\x13?v@'
tRp782
F0.063215970993041992
tp783
a(I1
g3
(g5
S'\xbe\x92\x0fl\x13zp@'
tRp784
F0.0655670166015625
tp785
a(I1
g3
(g5
S'\xbe\x92\x0fl\x13zp@'
tRp786
F0.098589181900024414
tp787
a(I1
g3
(g5
S'\xbe\x92\x0fl\x13zp@'
tRp788
F0.1238548755645752
tp789
a(I1
g3
(g5
S'\x9e\xc6Gz\xec i@'
tRp790
F0.12413811683654785
tp791
a(I1
g3
(g5
S'\x9e\xc6Gz\xec i@'
tRp792
F7.2488880157470703
tp793
a(I1
g3
(g5
S'\x9e\xc6Gz\xec i@'
tRp794
F0.069494009017944336
tp795
a(I1
g3
(g5
S'\x9e\xc6Gz\xec i@'
tRp796
F0.070399045944213867
tp797
a(I1
g3
(g5
S'\x9e\xc6Gz\xec i@'
tRp798
F0.070976018905639648
tp799
a(I1
g3
(g5
S'j!\xf6zd\xf8c@'
tRp800
F0.071810007095336914
tp801
a(I1
g3
(g5
S'j!\xf6zd\xf8c@'
tRp802
F7.7676651477813721
tp803
a(I1
g3
(g5
S'j!\xf6zd\xf8c@'
tRp804
F0.075918197631835938
tp805
a(I1
g3
(g5
S'j!\xf6zd\xf8c@'
tRp806
F0.075587987899780273
tp807
a(I1
g3
(g5
S'j!\xf6zd\xf8c@'
tRp808
F0.16898298263549805
tp809
a(I1
g3
(g5
S'\xbe\x92\x0fl\x13zp@'
tRp810
F0.15842795372009277
tp811
a(I1
g3
(g5
S'\xae\xa2\tA<\x8bt@'
tRp812
F7.9388759136199951
tp813
a(I1
g3
(g5
S'\xae\xa2\tA<\x8bt@'
tRp814
F0.078613996505737305
tp815
a(I1
g3
(g5
S'\xbe\x92\x0fl\x13zp@'
tRp816
F0.078777074813842773
tp817
a(I1
g3
(g5
S'\xbe\x92\x0fl\x13zp@'
tRp818
F0.082662820816040039
tp819
a(I1
g3
(g5
S'Y\x95\xf4\xe0`\xa1p@'
tRp820
F0.080445051193237305
tp821
a(I1
g3
(g5
S'\xbe\x92\x0fl\x13zp@'
tRp822
F8.4358761310577393
tp823
a(I1
g3
(g5
S'J\x80\xcd\xd8\x9e\xcbk@'
tRp824
F0.085063934326171875
tp825
a(I1
g3
(g5
S'\x86\xa4d\x05\xb25h@'
tRp826
F0.083811044692993164
tp827
a(I1
g3
(g5
S'R\xff\x12\x06*\rc@'
tRp828
F0.088008880615234375
tp829
a(I1
g3
(g5
S'0\x13T$\xea\xe9_@'
tRp830
F0.093669891357421875
tp831
a(I1
g3
(g5
S'\xee$v\xe1\x05\xf5c@'
tRp832
F9.3965079784393311
tp833
a(I1
g3
(g5
S'\x1e\xa6\x83\x18\xf4\x84a@'
tRp834
F0.085939168930053711
tp835
a(I1
g3
(g5
S'\x86\xa4d\x05\xb25h@'
tRp836
F0.089713811874389648
tp837
a(I1
g3
(g5
S'\x90\x8a\xe4\xe4i\xb3h@'
tRp838
F0.11538791656494141
tp839
a(I1
g3
(g5
S'0\x13T$\xea\xe9_@'
tRp840
F0.090051889419555664
tp841
a(I1
g3
(g5
S'\x86\xa4d\x05\xb25h@'
tRp842
F9.3912768363952637
tp843
a(I1
g3
(g5
S'\x94\xd4k`\xbd\x17Q@'
tRp844
F0.093667984008789062
tp845
a(I1
g3
(g5
S'\x94\xd4k`\xbd\x17Q@'
tRp846
F0.10335493087768555
tp847
a(I1
g3
(g5
S'\xa6E\x8d\xa7wb`@'
tRp848
F0.10362386703491211
tp849
a(I1
g3
(g5
S'\x94\xd4k`\xbd\x17Q@'
tRp850
F0.1021728515625
tp851
a(I1
g3
(g5
S'\x00\xf4y\x01\xfe\x04\x17@'
tRp852
F9.9770190715789795
tp853
a(I1
g3
(g5
S'\x00\xf4y\x01\xfe\x04\x17@'
tRp854
F0.10227203369140625
tp855
a(I1
g3
(g5
S'\x00\xf4y\x01\xfe\x04\x17@'
tRp856
F0.10238790512084961
tp857
a(I1
g3
(g5
S'\x00\xf4y\x01\xfe\x04\x17@'
tRp858
F0.10264897346496582
tp859
a(I1
g3
(g5
S'\x00\xf4y\x01\xfe\x04\x17@'
tRp860
F0.10344290733337402
tp861
a(I1
g3
(g5
S'\x94\xd4k`\xbd\x17Q@'
tRp862
F9.9794020652770996
tp863
a(I1
g3
(g5
S'\x94\xd4k`\xbd\x17Q@'
tRp864
F0.10724496841430664
tp865
a(I1
g3
(g5
S'\x94\xd4k`\xbd\x17Q@'
tRp866
F0.10435700416564941
tp867
a(I1
g3
(g5
S'\x94\xd4k`\xbd\x17Q@'
tRp868
F0.10780692100524902
tp869
a(I1
g3
(g5
S'\xc0("\x87\xb5\x1a;@'
tRp870
F0.11621284484863281
tp871
a(I1
g3
(g5
S'\x94\xd4k`\xbd\x17Q@'
tRp872
F10.231328010559082
tp873
a(I1
g3
(g5
S'\x94\xd4k`\xbd\x17Q@'
tRp874
F0.1091759204864502
tp875
a(I1
g3
(g5
S'\x94\xd4k`\xbd\x17Q@'
tRp876
F0.10508108139038086
tp877
a(I1
g3
(g5
S'\x94\xd4k`\xbd\x17Q@'
tRp878
F0.12811088562011719
tp879
a(I1
g3
(g5
S'\x00\xf4y\x01\xfe\x04\x17@'
tRp880
F0.11752104759216309
tp881
a(I1
g3
(g5
S'\x94\xd4k`\xbd\x17Q@'
tRp882
F10.605447769165039
tp883
a(I1
g3
(g5
S'\x94\xd4k`\xbd\x17Q@'
tRp884
F0.11185908317565918
tp885
a(I1
g3
(g5
S'\x94\xd4k`\xbd\x17Q@'
tRp886
F0.11210489273071289
tp887
a(I1
g3
(g5
S'\x94\xd4k`\xbd\x17Q@'
tRp888
F0.13178110122680664
tp889
a(I1
g3
(g5
S'\x94\xd4k`\xbd\x17Q@'
tRp890
F0.11327409744262695
tp891
a(I1
g3
(g5
S'\x94\xd4k`\xbd\x17Q@'
tRp892
F10.837010145187378
tp893
a(I1
g3
(g5
S'\x94\xd4k`\xbd\x17Q@'
tRp894
F0.11426711082458496
tp895
a(I1
g3
(g5
S'\x94\xd4k`\xbd\x17Q@'
tRp896
F0.11493301391601562
tp897
a(I1
g3
(g5
S'\x94\xd4k`\xbd\x17Q@'
tRp898
F0.1155550479888916
tp899
a(I1
g3
(g5
S'\x94\xd4k`\xbd\x17Q@'
tRp900
F0.11569905281066895
tp901
a(I1
g3
(g5
S'\x00\xf4y\x01\xfe\x04\x17@'
tRp902
F11.162939071655273
tp903
a(I1
g3
(g5
S'\x94\xd4k`\xbd\x17Q@'
tRp904
F0.12355494499206543
tp905
a(I1
g3
(g5
S'\x94\xd4k`\xbd\x17Q@'
tRp906
F0.15206813812255859
tp907
a(I1
g3
(g5
S'\x94\xd4k`\xbd\x17Q@'
tRp908
F0.11732816696166992
tp909
a(I1
g3
(g5
S'\x94\xd4k`\xbd\x17Q@'
tRp910
F0.13255500793457031
tp911
a(I1
g3
(g5
S'\x94\xd4k`\xbd\x17Q@'
tRp912
F11.720983982086182
tp913
a(I1
g3
(g5
S'\x00\x00\x00\x00\x00\x00\x00\x00'
tRp914
F0.12955880165100098
tp915
aa(lp916
(I1
g3
(g5
S'\x13\xba\xe7\xbb\xfd\xd4p@'
tRp917
F0.062693119049072266
tp918
a(I1
g3
(g5
S'\x9e\xc0\xd1\x1a\x89hj@'
tRp919
F0.065149068832397461
tp920
a(I1
g3
(g5
S'\x906\xa4\xeb\xf8sl@'
tRp921
F0.077235937118530273
tp922
a(I1
g3
(g5
S'Nz`"\xf8xd@'
tRp923
F0.16329598426818848
tp924
a(I1
g3
(g5
S'l\xb3\xc9\xfb\xf0=k@'
tRp925
F0.14348483085632324
tp926
a(I1
g3
(g5
S'\xe3\xff\xcb\x9e~\xfcc@'
tRp927
F7.7143890857696533
tp928
a(I1
g3
(g5
S'\xe3\xff\xcb\x9e~\xfcc@'
tRp929
F0.11808204650878906
tp930
a(I1
g3
(g5
S'\xe3\xff\xcb\x9e~\xfcc@'
tRp931
F0.15854406356811523
tp932
a(I1
g3
(g5
S'l\x87\x1a\x04+\x81`@'
tRp933
F0.28098011016845703
tp934
a(I1
g3
(g5
S'l\x87\x1a\x04+\x81`@'
tRp935
F0.11299800872802734
tp936
a(I1
g3
(g5
S'\xe3\xff\xcb\x9e~\xfcc@'
tRp937
F8.0654418468475342
tp938
a(I1
g3
(g5
S'\xaeC^\xcd+|h@'
tRp939
F0.15958905220031738
tp940
a(I1
g3
(g5
S'l\x87\x1a\x04+\x81`@'
tRp941
F1.4950211048126221
tp942
a(I1
g3
(g5
S'\xaeC^\xcd+|h@'
tRp943
F0.17917704582214355
tp944
a(I1
g3
(g5
S'\xe3\xff\xcb\x9e~\xfcc@'
tRp945
F0.21732282638549805
tp946
a(I1
g3
(g5
S'\x0e\xe4%\x8c\xbbEV@'
tRp947
F8.9114470481872559
tp948
a(I1
g3
(g5
S'\x0e\xe4%\x8c\xbbEV@'
tRp949
F0.20388698577880859
tp950
a(I1
g3
(g5
S'\x0e\xe4%\x8c\xbbEV@'
tRp951
F0.17741990089416504
tp952
a(I1
g3
(g5
S'\x0e\xe4%\x8c\xbbEV@'
tRp953
F0.18394184112548828
tp954
a(I1
g3
(g5
S'\x0e\xe4%\x8c\xbbEV@'
tRp955
F0.17843985557556152
tp956
a(I1
g3
(g5
S'l\x87\x1a\x04+\x81`@'
tRp957
F9.759382963180542
tp958
a(I1
g3
(g5
S'~\x8fZJ1\xddV@'
tRp959
F0.66754913330078125
tp960
a(I1
g3
(g5
S'~\x8fZJ1\xddV@'
tRp961
F0.43282008171081543
tp962
a(I1
g3
(g5
S'h\xc9\x96\x9c-AH@'
tRp963
F0.58664298057556152
tp964
a(I1
g3
(g5
S'%+|\x9f\xd6\xe7a@'
tRp965
F0.98665881156921387
tp966
a(I1
g3
(g5
S'n\x80\xbd\x7f\xd8\xd3]@'
tRp967
F9.9216389656066895
tp968
a(I1
g3
(g5
S'\x00\x00\x00\x00\x00\x00\x00\x00'
tRp969
F0.10104489326477051
tp970
aa(lp971
(I1
g3
(g5
S'88\x1a\x90\xfc\xd2w@'
tRp972
F0.062821865081787109
tp973
a(I1
g3
(g5
S'88\x1a\x90\xfc\xd2w@'
tRp974
F0.065109968185424805
tp975
a(I1
g3
(g5
S'\xf9\x11\xe2\xa8\xca\xc5v@'
tRp976
F0.1167759895324707
tp977
a(I1
g3
(g5
S'\xf9\x11\xe2\xa8\xca\xc5v@'
tRp978
F0.13639283180236816
tp979
a(I1
g3
(g5
S'`)\x99\x8a\xa1\xfbu@'
tRp980
F0.069933176040649414
tp981
a(I1
g3
(g5
S'\xf9\x11\xe2\xa8\xca\xc5v@'
tRp982
F7.3355958461761475
tp983
a(I1
g3
(g5
S'\xf9\x11\xe2\xa8\xca\xc5v@'
tRp984
F0.1436312198638916
tp985
a(I1
g3
(g5
S'`)\x99\x8a\xa1\xfbu@'
tRp986
F0.15950798988342285
tp987
a(I1
g3
(g5
S'\x02\xf5\xa6\\\xf7\x03p@'
tRp988
F0.18010687828063965
tp989
a(I1
g3
(g5
S'\xd8\xc7\tV\xa7he@'
tRp990
F0.19380998611450195
tp991
a(I1
g3
(g5
S'\xfc\xb4v\xfa\x16:m@'
tRp992
F8.2609570026397705
tp993
a(I1
g3
(g5
S'\xdb\x8e-\xab\xb5\x94t@'
tRp994
F0.4517209529876709
tp995
a(I1
g3
(g5
S'\xfc\xb4v\xfa\x16:m@'
tRp996
F0.20706987380981445
tp997
a(I1
g3
(g5
S'\xd8\xc7\tV\xa7he@'
tRp998
F0.26683497428894043
tp999
a(I1
g3
(g5
S'\xb8\xf2\x03Mx9V@'
tRp1000
F0.2287290096282959
tp1001
a(I1
g3
(g5
S'\xb8\xf2\x03Mx9V@'
tRp1002
F9.4943039417266846
tp1003
a(I1
g3
(g5
S'\xb8\xf2\x03Mx9V@'
tRp1004
F0.2860720157623291
tp1005
a(I1
g3
(g5
S'\xb8\xf2\x03Mx9V@'
tRp1006
F0.26656413078308105
tp1007
a(I1
g3
(g5
S'\xb8\xf2\x03Mx9V@'
tRp1008
F0.7662498950958252
tp1009
a(I1
g3
(g5
S'\xb8\xf2\x03Mx9V@'
tRp1010
F0.38665485382080078
tp1011
a(I1
g3
(g5
S'X\x14z$\x0b\x83g@'
tRp1012
F10.688836097717285
tp1013
a(I1
g3
(g5
S'X\x14z$\x0b\x83g@'
tRp1014
F0.77052211761474609
tp1015
a(I1
g3
(g5
S'X\x14z$\x0b\x83g@'
tRp1016
F1.2606000900268555
tp1017
a(I1
g3
(g5
S'X\x14z$\x0b\x83g@'
tRp1018
F0.67649006843566895
tp1019
a(I1
g3
(g5
S'X\x14z$\x0b\x83g@'
tRp1020
F0.91387701034545898
tp1021
a(I1
g3
(g5
S'X\x14z$\x0b\x83g@'
tRp1022
F13.049421072006226
tp1023
a(I1
g3
(g5
S'\xa06\x10\xa7\xda\x1aa@'
tRp1024
F0.76975178718566895
tp1025
a(I1
g3
(g5
S'\xa06\x10\xa7\xda\x1aa@'
tRp1026
F1.0277421474456787
tp1027
a(I1
g3
(g5
S'\xa06\x10\xa7\xda\x1aa@'
tRp1028
F0.76800704002380371
tp1029
a(I1
g3
(g5
S'\xa06\x10\xa7\xda\x1aa@'
tRp1030
F0.85649490356445312
tp1031
a(I1
g3
(g5
S'\xa06\x10\xa7\xda\x1aa@'
tRp1032
F22.137650012969971
tp1033
a(I1
g3
(g5
S'\xa06\x10\xa7\xda\x1aa@'
tRp1034
F54.758599996566772
tp1035
a(I1
g3
(g5
S'\x00U3;\x9c\xedF@'
tRp1036
F115.95948195457458
tp1037
a(I1
g3
(g5
S'\xa06\x10\xa7\xda\x1aa@'
tRp1038
F10.844929933547974
tp1039
a(I1
g3
(g5
S'\xa06\x10\xa7\xda\x1aa@'
tRp1040
F8.8178901672363281
tp1041
a(I1
g3
(g5
S':\xf0\xc4\x0c\xb6!b@'
tRp1042
F16.431668996810913
tp1043
a(I1
g3
(g5
S'\xb8\xf2\x03Mx9V@'
tRp1044
F0.53940010070800781
tp1045
a(I1
g3
(g5
S':\xf0\xc4\x0c\xb6!b@'
tRp1046
F1.7891011238098145
tp1047
a(I1
g3
(g5
S'\xc0\xcf\xdb\xc3\x98\x1ef@'
tRp1048
F5.4724631309509277
tp1049
a(I1
g3
(g5
S'\xd0\x9by]&\xaaT@'
tRp1050
F1.477773904800415
tp1051
a(I1
g3
(g5
S'\xf0\x9c\x0f_\xd6\x97T@'
tRp1052
F14.679719209671021
tp1053
a(I1
g3
(g5
S'\x18vv\xad\x86\xf3T@'
tRp1054
F0.11188101768493652
tp1055
a(I1
g3
(g5
S'\xc0\xcf\xdb\xc3\x98\x1ef@'
tRp1056
F0.10131311416625977
tp1057
a(I1
g3
(g5
S'\xa0\xab&\xacC\xbd`@'
tRp1058
F0.10527420043945312
tp1059
a(I1
g3
(g5
S'\xf05\xf0\xfb\x9d\xccX@'
tRp1060
F0.099761009216308594
tp1061
a(I1
g3
(g5
S'\xf05\xf0\xfb\x9d\xccX@'
tRp1062
F11.487049102783203
tp1063
a(I1
g3
(g5
S'\xf05\xf0\xfb\x9d\xccX@'
tRp1064
F0.10930895805358887
tp1065
a(I1
g3
(g5
S'\x00\xf58\x02z\xf8G@'
tRp1066
F0.11045694351196289
tp1067
a(I1
g3
(g5
S'\x00\xf58\x02z\xf8G@'
tRp1068
F0.10313796997070312
tp1069
a(I1
g3
(g5
S'\x80\xc8\xf0\x1a2/\x18@'
tRp1070
F0.12026381492614746
tp1071
a(I1
g3
(g5
S'\x00\xf58\x02z\xf8G@'
tRp1072
F12.215194940567017
tp1073
a(I1
g3
(g5
S'\x00\xf58\x02z\xf8G@'
tRp1074
F0.1136019229888916
tp1075
a(I1
g3
(g5
S'\x00\xf58\x02z\xf8G@'
tRp1076
F0.113800048828125
tp1077
a(I1
g3
(g5
S'\x00\xf58\x02z\xf8G@'
tRp1078
F0.11475896835327148
tp1079
a(I1
g3
(g5
S'\x00\xf58\x02z\xf8G@'
tRp1080
F0.11516308784484863
tp1081
a(I1
g3
(g5
S'\x00\x00\x00\x00\x00\x00\x00\x00'
tRp1082
F11.179459810256958
tp1083
aa(lp1084
(I1
g3
(g5
S'\x18\xc8jx\x814s@'
tRp1085
F0.063174962997436523
tp1086
a(I1
g3
(g5
S'\xe9/\xa4M-Lq@'
tRp1087
F0.065581083297729492
tp1088
a(I1
g3
(g5
S'\xa2\x8c\x9e\x9dR\x0bg@'
tRp1089
F0.095270872116088867
tp1090
a(I1
g3
(g5
S'\x01\xbd+\xf3\xfa\xdbj@'
tRp1091
F0.13972091674804688
tp1092
a(I1
g3
(g5
S'\xa2\x8c\x9e\x9dR\x0bg@'
tRp1093
F0.070991992950439453
tp1094
a(I1
g3
(g5
S'\xf0\xc1yn\xdf\x91]@'
tRp1095
F7.2582550048828125
tp1096
a(I1
g3
(g5
S'\xf0\xc1yn\xdf\x91]@'
tRp1097
F0.082292079925537109
tp1098
a(I1
g3
(g5
S'&\xb4\xe6\xb4\xf7Uj@'
tRp1099
F0.080501079559326172
tp1100
a(I1
g3
(g5
S'\xd2\xcaRw\xd7yi@'
tRp1101
F0.11385202407836914
tp1102
a(I1
g3
(g5
S'\xf0\xc1yn\xdf\x91]@'
tRp1103
F0.10322999954223633
tp1104
a(I1
g3
(g5
S'\xf0Z\xa7m>>e@'
tRp1105
F7.9932289123535156
tp1106
a(I1
g3
(g5
S'&\xb4\xe6\xb4\xf7Uj@'
tRp1107
F0.10271811485290527
tp1108
a(I1
g3
(g5
S'&\xb4\xe6\xb4\xf7Uj@'
tRp1109
F0.090529203414916992
tp1110
a(I1
g3
(g5
S'&\xb4\xe6\xb4\xf7Uj@'
tRp1111
F0.28542995452880859
tp1112
a(I1
g3
(g5
S'\xf0Z\xa7m>>e@'
tRp1113
F0.93901205062866211
tp1114
a(I1
g3
(g5
S'\xf0Z\xa7m>>e@'
tRp1115
F9.3446900844573975
tp1116
a(I1
g3
(g5
S'Y\x150T\x98Uy@'
tRp1117
F0.077900171279907227
tp1118
a(I1
g3
(g5
S'Y\x150T\x98Uy@'
tRp1119
F0.077248096466064453
tp1120
a(I1
g3
(g5
S'Y\x150T\x98Uy@'
tRp1121
F0.077538967132568359
tp1122
a(I1
g3
(g5
S'Y\x150T\x98Uy@'
tRp1123
F0.078464984893798828
tp1124
a(I1
g3
(g5
S'*}i)Dmw@'
tRp1125
F8.9541969299316406
tp1126
a(I1
g3
(g5
S'\xf0Z\xa7m>>e@'
tRp1127
F0.085648059844970703
tp1128
a(I1
g3
(g5
S'\xb8\xf3\xc9\xfe\xe6Ya@'
tRp1129
F0.10121297836303711
tp1130
a(I1
g3
(g5
S'\xe8\xc6s\xfc\xee\xe6l@'
tRp1131
F0.096816062927246094
tp1132
a(I1
g3
(g5
S'&\xb4\xe6\xb4\xf7Uj@'
tRp1133
F0.10949897766113281
tp1134
a(I1
g3
(g5
S'\xe8\xc6s\xfc\xee\xe6l@'
tRp1135
F9.4283149242401123
tp1136
a(I1
g3
(g5
S'XW\xc3\xcc\xc5\x84P@'
tRp1137
F0.11967706680297852
tp1138
a(I1
g3
(g5
S'XW\xc3\xcc\xc5\x84P@'
tRp1139
F0.09522700309753418
tp1140
a(I1
g3
(g5
S'\x00\x00\x00\x00\x00\x00\x00\x00'
tRp1141
F0.10760784149169922
tp1142
aa(lp1143
(I1
g3
(g5
S'\xe0\xfe\xe8\xf9\xef\x88t@'
tRp1144
F0.062751054763793945
tp1145
a(I1
g3
(g5
S'\xa4\xf5\xee\x95\xe6\x8cr@'
tRp1146
F0.065394163131713867
tp1147
a(I1
g3
(g5
S'\xa4\xf5\xee\x95\xe6\x8cr@'
tRp1148
F0.077626228332519531
tp1149
a(I1
g3
(g5
S'\xa4\xf5\xee\x95\xe6\x8cr@'
tRp1150
F0.12512111663818359
tp1151
a(I1
g3
(g5
S'@\x90&\x81\xf5\xe9p@'
tRp1152
F0.15141510963439941
tp1153
a(I1
g3
(g5
S'@\x90&\x81\xf5\xe9p@'
tRp1154
F7.2984490394592285
tp1155
a(I1
g3
(g5
S'\xa4\xf5\xee\x95\xe6\x8cr@'
tRp1156
F0.071588039398193359
tp1157
a(I1
g3
(g5
S'\\\xc0\xd1\x13\x93\xa3p@'
tRp1158
F0.072441816329956055
tp1159
a(I1
g3
(g5
S'\\\xc0\xd1\x13\x93\xa3p@'
tRp1160
F0.07355189323425293
tp1161
a(I1
g3
(g5
S'\x0e*\x1b\x1b\xd7\x82p@'
tRp1162
F0.28814601898193359
tp1163
a(I1
g3
(g5
S'\xf6E\xb4\xf6\x0f\x92v@'
tRp1164
F8.3946659564971924
tp1165
a(I1
g3
(g5
S'\xae\xe8\x1aKy\xb5e@'
tRp1166
F0.16079187393188477
tp1167
a(I1
g3
(g5
S'h\x81Ka\xd2\xcb_@'
tRp1168
F0.18048787117004395
tp1169
a(I1
g3
(g5
S'\x08\x8c?\x1e\xa2\xdcd@'
tRp1170
F0.20473408699035645
tp1171
a(I1
g3
(g5
S'\x08\x8c?\x1e\xa2\xdcd@'
tRp1172
F0.1266629695892334
tp1173
a(I1
g3
(g5
S'\x08\x8c?\x1e\xa2\xdcd@'
tRp1174
F9.4724009037017822
tp1175
a(I1
g3
(g5
S'?2~K\xb3\x82t@'
tRp1176
F0.11964893341064453
tp1177
a(I1
g3
(g5
S'eB\xda\x8d\x1a\x10k@'
tRp1178
F0.080438137054443359
tp1179
a(I1
g3
(g5
S'u\xb3\xabt[\xfbh@'
tRp1180
F0.1016240119934082
tp1181
a(I1
g3
(g5
S'u\xb3\xabt[\xfbh@'
tRp1182
F0.088560104370117188
tp1183
a(I1
g3
(g5
S'3O\xaeZ\x19\x8ex@'
tRp1184
F9.1108849048614502
tp1185
a(I1
g3
(g5
S'3O\xaeZ\x19\x8ex@'
tRp1186
F0.084974050521850586
tp1187
a(I1
g3
(g5
S'3O\xaeZ\x19\x8ex@'
tRp1188
F0.079690217971801758
tp1189
a(I1
g3
(g5
S'3O\xaeZ\x19\x8ex@'
tRp1190
F0.079478025436401367
tp1191
a(I1
g3
(g5
S'3O\xaeZ\x19\x8ex@'
tRp1192
F0.079756975173950195
tp1193
a(I1
g3
(g5
S'\xc0\xa1O\xcc\xc7\x05c@'
tRp1194
F9.5379509925842285
tp1195
a(I1
g3
(g5
S'\xae\xe8\x1aKy\xb5e@'
tRp1196
F0.093526840209960938
tp1197
a(I1
g3
(g5
S'`\xedYM\x0cEU@'
tRp1198
F0.091094017028808594
tp1199
a(I1
g3
(g5
S'|&c}D\t\\@'
tRp1200
F0.091828107833862305
tp1201
a(I1
g3
(g5
S'u\xb3\xabt[\xfbh@'
tRp1202
F0.1043241024017334
tp1203
a(I1
g3
(g5
S'`\xedYM\x0cEU@'
tRp1204
F9.8433740139007568
tp1205
a(I1
g3
(g5
S'`\xedYM\x0cEU@'
tRp1206
F0.095654964447021484
tp1207
a(I1
g3
(g5
S'`\xedYM\x0cEU@'
tRp1208
F0.096410989761352539
tp1209
a(I1
g3
(g5
S'`\xedYM\x0cEU@'
tRp1210
F0.096933126449584961
tp1211
a(I1
g3
(g5
S'`\xedYM\x0cEU@'
tRp1212
F0.097405195236206055
tp1213
a(I1
g3
(g5
S'\xf0\xad}E\xcb\x7f_@'
tRp1214
F9.7332909107208252
tp1215
a(I1
g3
(g5
S'P\xd5,\xb7$bL@'
tRp1216
F0.11562180519104004
tp1217
a(I1
g3
(g5
S'`T\xd3!8\x95>@'
tRp1218
F0.093827962875366211
tp1219
a(I1
g3
(g5
S'P\xd5,\xb7$bL@'
tRp1220
F0.14032602310180664
tp1221
a(I1
g3
(g5
S'P\xd5,\xb7$bL@'
tRp1222
F0.097204923629760742
tp1223
a(I1
g3
(g5
S'P\xd5,\xb7$bL@'
tRp1224
F10.020787954330444
tp1225
a(I1
g3
(g5
S'`T\xd3!8\x95>@'
tRp1226
F0.12999510765075684
tp1227
a(I1
g3
(g5
S'`T\xd3!8\x95>@'
tRp1228
F0.1192619800567627
tp1229
a(I1
g3
(g5
S'`T\xd3!8\x95>@'
tRp1230
F0.14666414260864258
tp1231
a(I1
g3
(g5
S'`T\xd3!8\x95>@'
tRp1232
F0.14373493194580078
tp1233
a(I1
g3
(g5
S'`T\xd3!8\x95>@'
tRp1234
F10.359305858612061
tp1235
a(I1
g3
(g5
S'`T\xd3!8\x95>@'
tRp1236
F0.10641813278198242
tp1237
a(I1
g3
(g5
S'`T\xd3!8\x95>@'
tRp1238
F0.1073150634765625
tp1239
a(I1
g3
(g5
S'`T\xd3!8\x95>@'
tRp1240
F0.10714507102966309
tp1241
a(I1
g3
(g5
S'`T\xd3!8\x95>@'
tRp1242
F0.10802698135375977
tp1243
a(I1
g3
(g5
S'`T\xd3!8\x95>@'
tRp1244
F10.758169889450073
tp1245
a(I1
g3
(g5
S'`T\xd3!8\x95>@'
tRp1246
F0.14481496810913086
tp1247
a(I1
g3
(g5
S'`T\xd3!8\x95>@'
tRp1248
F0.14230513572692871
tp1249
a(I1
g3
(g5
S'`T\xd3!8\x95>@'
tRp1250
F0.14443612098693848
tp1251
a(I1
g3
(g5
S'`T\xd3!8\x95>@'
tRp1252
F0.14603590965270996
tp1253
a(I1
g3
(g5
S'`T\xd3!8\x95>@'
tRp1254
F11.027281999588013
tp1255
a(I1
g3
(g5
S'`T\xd3!8\x95>@'
tRp1256
F0.1576988697052002
tp1257
a(I1
g3
(g5
S'`T\xd3!8\x95>@'
tRp1258
F0.15821003913879395
tp1259
a(I1
g3
(g5
S'`T\xd3!8\x95>@'
tRp1260
F0.15662288665771484
tp1261
a(I1
g3
(g5
S'`T\xd3!8\x95>@'
tRp1262
F0.1608891487121582
tp1263
a(I1
g3
(g5
S'`T\xd3!8\x95>@'
tRp1264
F11.464475870132446
tp1265
a(I1
g3
(g5
S'`T\xd3!8\x95>@'
tRp1266
F0.14721798896789551
tp1267
a(I1
g3
(g5
S'`T\xd3!8\x95>@'
tRp1268
F0.14738798141479492
tp1269
a(I1
g3
(g5
S'`T\xd3!8\x95>@'
tRp1270
F0.15086603164672852
tp1271
a(I1
g3
(g5
S'`T\xd3!8\x95>@'
tRp1272
F0.15046191215515137
tp1273
a(I1
g3
(g5
S'`T\xd3!8\x95>@'
tRp1274
F11.753619194030762
tp1275
a(I1
g3
(g5
S'`T\xd3!8\x95>@'
tRp1276
F0.15064907073974609
tp1277
a(I1
g3
(g5
S'`T\xd3!8\x95>@'
tRp1278
F0.15004301071166992
tp1279
a(I1
g3
(g5
S'`T\xd3!8\x95>@'
tRp1280
F0.15104794502258301
tp1281
a(I1
g3
(g5
S'`T\xd3!8\x95>@'
tRp1282
F0.15384507179260254
tp1283
a(I1
g3
(g5
S'`T\xd3!8\x95>@'
tRp1284
F12.049203157424927
tp1285
a(I1
g3
(g5
S'`T\xd3!8\x95>@'
tRp1286
F0.16057491302490234
tp1287
a(I1
g3
(g5
S'`T\xd3!8\x95>@'
tRp1288
F0.16217398643493652
tp1289
a(I1
g3
(g5
S'`T\xd3!8\x95>@'
tRp1290
F0.16308403015136719
tp1291
a(I1
g3
(g5
S'`T\xd3!8\x95>@'
tRp1292
F0.16177701950073242
tp1293
a(I1
g3
(g5
S'`T\xd3!8\x95>@'
tRp1294
F12.305305957794189
tp1295
a(I1
g3
(g5
S'`T\xd3!8\x95>@'
tRp1296
F0.13349604606628418
tp1297
a(I1
g3
(g5
S'`T\xd3!8\x95>@'
tRp1298
F0.13370895385742188
tp1299
a(I1
g3
(g5
S'`T\xd3!8\x95>@'
tRp1300
F0.13471794128417969
tp1301
a(I1
g3
(g5
S'`T\xd3!8\x95>@'
tRp1302
F0.13483095169067383
tp1303
a(I1
g3
(g5
S'`T\xd3!8\x95>@'
tRp1304
F12.625149011611938
tp1305
a(I1
g3
(g5
S'`T\xd3!8\x95>@'
tRp1306
F0.14491009712219238
tp1307
a(I1
g3
(g5
S'`T\xd3!8\x95>@'
tRp1308
F0.1462860107421875
tp1309
a(I1
g3
(g5
S'`T\xd3!8\x95>@'
tRp1310
F0.14614200592041016
tp1311
a(I1
g3
(g5
S'`T\xd3!8\x95>@'
tRp1312
F0.14620304107666016
tp1313
a(I1
g3
(g5
S'`T\xd3!8\x95>@'
tRp1314
F12.959907054901123
tp1315
a(I1
g3
(g5
S'`T\xd3!8\x95>@'
tRp1316
F0.14685511589050293
tp1317
a(I1
g3
(g5
S'`T\xd3!8\x95>@'
tRp1318
F0.16377997398376465
tp1319
a(I1
g3
(g5
S'`T\xd3!8\x95>@'
tRp1320
F0.14769506454467773
tp1321
a(I1
g3
(g5
S'`T\xd3!8\x95>@'
tRp1322
F0.14826107025146484
tp1323
a(I1
g3
(g5
S'`T\xd3!8\x95>@'
tRp1324
F13.276481866836548
tp1325
a(I1
g3
(g5
S'`T\xd3!8\x95>@'
tRp1326
F0.14997506141662598
tp1327
a(I1
g3
(g5
S'`T\xd3!8\x95>@'
tRp1328
F0.14997601509094238
tp1329
a(I1
g3
(g5
S'`T\xd3!8\x95>@'
tRp1330
F0.15158510208129883
tp1331
a(I1
g3
(g5
S'`T\xd3!8\x95>@'
tRp1332
F0.15071606636047363
tp1333
a(I1
g3
(g5
S'`T\xd3!8\x95>@'
tRp1334
F13.685317039489746
tp1335
a(I1
g3
(g5
S'`T\xd3!8\x95>@'
tRp1336
F0.14370083808898926
tp1337
a(I1
g3
(g5
S'`T\xd3!8\x95>@'
tRp1338
F0.16070699691772461
tp1339
a(I1
g3
(g5
S'`T\xd3!8\x95>@'
tRp1340
F0.14501786231994629
tp1341
a(I1
g3
(g5
S'`T\xd3!8\x95>@'
tRp1342
F0.14524602890014648
tp1343
aa(lp1344
(I1
g3
(g5
S'\xc5U\x9cfp\xe1j@'
tRp1345
F0.062651872634887695
tp1346
a(I1
g3
(g5
S'\xc5U\x9cfp\xe1j@'
tRp1347
F0.065252065658569336
tp1348
a(I1
g3
(g5
S'\xc5U\x9cfp\xe1j@'
tRp1349
F0.095391035079956055
tp1350
a(I1
g3
(g5
S'\x0fo\xe7\xce\x07\xa3f@'
tRp1351
F0.13678097724914551
tp1352
a(I1
g3
(g5
S'\x0fo\xe7\xce\x07\xa3f@'
tRp1353
F0.069710016250610352
tp1354
a(I1
g3
(g5
S'\x0fo\xe7\xce\x07\xa3f@'
tRp1355
F7.2351570129394531
tp1356
a(I1
g3
(g5
S'\x0fo\xe7\xce\x07\xa3f@'
tRp1357
F0.069216012954711914
tp1358
a(I1
g3
(g5
S'\xc0\xf4\x01V\xbc\xb6j@'
tRp1359
F0.070222854614257812
tp1360
a(I1
g3
(g5
S'\xc0\xf4\x01V\xbc\xb6j@'
tRp1361
F0.071367979049682617
tp1362
a(I1
g3
(g5
S'\x0fo\xe7\xce\x07\xa3f@'
tRp1363
F0.071944952011108398
tp1364
a(I1
g3
(g5
S'i W*t\x82`@'
tRp1365
F8.0682110786437988
tp1366
a(I1
g3
(g5
S'\x88%\xd3\xfcK\xa7\\@'
tRp1367
F0.12458491325378418
tp1368
a(I1
g3
(g5
S'\x88%\xd3\xfcK\xa7\\@'
tRp1369
F0.12349486351013184
tp1370
a(I1
g3
(g5
S'\x88%\xd3\xfcK\xa7\\@'
tRp1371
F0.12451386451721191
tp1372
a(I1
g3
(g5
S'\x88%\xd3\xfcK\xa7\\@'
tRp1373
F0.12476205825805664
tp1374
a(I1
g3
(g5
S'\x88%\xd3\xfcK\xa7\\@'
tRp1375
F8.6901571750640869
tp1376
a(I1
g3
(g5
S'\x88%\xd3\xfcK\xa7\\@'
tRp1377
F0.14946603775024414
tp1378
a(I1
g3
(g5
S'\x88%\xd3\xfcK\xa7\\@'
tRp1379
F0.14210891723632812
tp1380
a(I1
g3
(g5
S'\x88%\xd3\xfcK\xa7\\@'
tRp1381
F0.14257192611694336
tp1382
a(I1
g3
(g5
S'\x88%\xd3\xfcK\xa7\\@'
tRp1383
F0.13033795356750488
tp1384
a(I1
g3
(g5
S'\x88%\xd3\xfcK\xa7\\@'
tRp1385
F8.8953680992126465
tp1386
a(I1
g3
(g5
S'\x88%\xd3\xfcK\xa7\\@'
tRp1387
F0.1299281120300293
tp1388
a(I1
g3
(g5
S'\x88%\xd3\xfcK\xa7\\@'
tRp1389
F0.13191890716552734
tp1390
a(I1
g3
(g5
S'\x88%\xd3\xfcK\xa7\\@'
tRp1391
F0.13344907760620117
tp1392
a(I1
g3
(g5
S'\x88%\xd3\xfcK\xa7\\@'
tRp1393
F0.12896299362182617
tp1394
a(I1
g3
(g5
S'\x88%\xd3\xfcK\xa7\\@'
tRp1395
F8.9611260890960693
tp1396
a(I1
g3
(g5
S'\x88%\xd3\xfcK\xa7\\@'
tRp1397
F0.18596291542053223
tp1398
a(I1
g3
(g5
S'\xffB_\x88W\xf2b@'
tRp1399
F0.20539999008178711
tp1400
a(I1
g3
(g5
S'\xffB_\x88W\xf2b@'
tRp1401
F0.20609092712402344
tp1402
a(I1
g3
(g5
S'\xffB_\x88W\xf2b@'
tRp1403
F0.21878695487976074
tp1404
a(I1
g3
(g5
S'\xffB_\x88W\xf2b@'
tRp1405
F9.677109956741333
tp1406
a(I1
g3
(g5
S'zy\x1e\x96\x0e\x92b@'
tRp1407
F0.29730892181396484
tp1408
a(I1
g3
(g5
S'zy\x1e\x96\x0e\x92b@'
tRp1409
F0.18035387992858887
tp1410
a(I1
g3
(g5
S'zy\x1e\x96\x0e\x92b@'
tRp1411
F0.19539999961853027
tp1412
a(I1
g3
(g5
S'\x1f\x07\x0c\xc2\xdc\xc0d@'
tRp1413
F0.17920088768005371
tp1414
a(I1
g3
(g5
S'\x1f\x07\x0c\xc2\xdc\xc0d@'
tRp1415
F9.9413201808929443
tp1416
a(I1
g3
(g5
S'\x1f\x07\x0c\xc2\xdc\xc0d@'
tRp1417
F0.24436306953430176
tp1418
a(I1
g3
(g5
S'\x10\xf8\x90#Z!`@'
tRp1419
F0.2774360179901123
tp1420
a(I1
g3
(g5
S'\xb4"\xb8\x17\xe3\xc5W@'
tRp1421
F0.24103379249572754
tp1422
a(I1
g3
(g5
S'\xb4"\xb8\x17\xe3\xc5W@'
tRp1423
F0.21677684783935547
tp1424
a(I1
g3
(g5
S'\xb4"\xb8\x17\xe3\xc5W@'
tRp1425
F10.360432147979736
tp1426
a(I1
g3
(g5
S'\xb4"\xb8\x17\xe3\xc5W@'
tRp1427
F0.16558694839477539
tp1428
a(I1
g3
(g5
S'\xb4"\xb8\x17\xe3\xc5W@'
tRp1429
F0.14708304405212402
tp1430
a(I1
g3
(g5
S'\xb4"\xb8\x17\xe3\xc5W@'
tRp1431
F0.14380693435668945
tp1432
a(I1
g3
(g5
S'\xb4"\xb8\x17\xe3\xc5W@'
tRp1433
F0.15728282928466797
tp1434
a(I1
g3
(g5
S'\xb4"\xb8\x17\xe3\xc5W@'
tRp1435
F11.755146026611328
tp1436
a(I1
g3
(g5
S'\x80\xb13\x9ev\xe14@'
tRp1437
F0.23185896873474121
tp1438
a(I1
g3
(g5
S'\x80\xb13\x9ev\xe14@'
tRp1439
F0.16486501693725586
tp1440
a(I1
g3
(g5
S'\x80\xb13\x9ev\xe14@'
tRp1441
F0.16968798637390137
tp1442
a(I1
g3
(g5
S'\x80\xb13\x9ev\xe14@'
tRp1443
F0.16479015350341797
tp1444
a(I1
g3
(g5
S'\x80\xb13\x9ev\xe14@'
tRp1445
F11.687263011932373
tp1446
a(I1
g3
(g5
S'\x80\xb13\x9ev\xe14@'
tRp1447
F0.16967201232910156
tp1448
a(I1
g3
(g5
S'\x80\xb13\x9ev\xe14@'
tRp1449
F0.18155694007873535
tp1450
a(I1
g3
(g5
S'\x80\xb13\x9ev\xe14@'
tRp1451
F0.17362213134765625
tp1452
a(I1
g3
(g5
S'\x80\xb13\x9ev\xe14@'
tRp1453
F0.17598986625671387
tp1454
a(I1
g3
(g5
S'\x80\xb13\x9ev\xe14@'
tRp1455
F12.276149988174438
tp1456
a(I1
g3
(g5
S'\x80\xb13\x9ev\xe14@'
tRp1457
F0.15928101539611816
tp1458
a(I1
g3
(g5
S'\x80\xb13\x9ev\xe14@'
tRp1459
F0.1854701042175293
tp1460
a(I1
g3
(g5
S'\x80\xb13\x9ev\xe14@'
tRp1461
F0.1631779670715332
tp1462
a(I1
g3
(g5
S'\x80\xb13\x9ev\xe14@'
tRp1463
F0.18164682388305664
tp1464
a(I1
g3
(g5
S'\x80\xb13\x9ev\xe14@'
tRp1465
F12.317753076553345
tp1466
a(I1
g3
(g5
S'\x80\xb13\x9ev\xe14@'
tRp1467
F0.17800092697143555
tp1468
a(I1
g3
(g5
S'\x80\xb13\x9ev\xe14@'
tRp1469
F0.2156980037689209
tp1470
a(I1
g3
(g5
S'\x80\xb13\x9ev\xe14@'
tRp1471
F0.17571806907653809
tp1472
a(I1
g3
(g5
S'\x80\xb13\x9ev\xe14@'
tRp1473
F0.21650004386901855
tp1474
a(I1
g3
(g5
S'\x80\xb13\x9ev\xe14@'
tRp1475
F12.562288045883179
tp1476
a(I1
g3
(g5
S'\x80\xb13\x9ev\xe14@'
tRp1477
F0.17757081985473633
tp1478
a(I1
g3
(g5
S'\x80\xb13\x9ev\xe14@'
tRp1479
F0.21360898017883301
tp1480
a(I1
g3
(g5
S'\x80\xb13\x9ev\xe14@'
tRp1481
F0.17864513397216797
tp1482
a(I1
g3
(g5
S'\x80\xb13\x9ev\xe14@'
tRp1483
F0.22438693046569824
tp1484
a(I1
g3
(g5
S'\x80\xb13\x9ev\xe14@'
tRp1485
F12.852746963500977
tp1486
a(I1
g3
(g5
S'\x80\xb13\x9ev\xe14@'
tRp1487
F0.15964889526367188
tp1488
a(I1
g3
(g5
S'\x80\xb13\x9ev\xe14@'
tRp1489
F0.14438509941101074
tp1490
a(I1
g3
(g5
S'\x80\xb13\x9ev\xe14@'
tRp1491
F0.14476799964904785
tp1492
a(I1
g3
(g5
S'\x80\xb13\x9ev\xe14@'
tRp1493
F0.1440589427947998
tp1494
a(I1
g3
(g5
S'\xc7[\x01\x9a\xdc\x99a@'
tRp1495
F12.319998025894165
tp1496
a(I1
g3
(g5
S'\xc7[\x01\x9a\xdc\x99a@'
tRp1497
F0.14113211631774902
tp1498
a(I1
g3
(g5
S'\xc7[\x01\x9a\xdc\x99a@'
tRp1499
F0.14004611968994141
tp1500
a(I1
g3
(g5
S'\xc7[\x01\x9a\xdc\x99a@'
tRp1501
F0.13898706436157227
tp1502
a(I1
g3
(g5
S'\xc7[\x01\x9a\xdc\x99a@'
tRp1503
F0.13911199569702148
tp1504
a(I1
g3
(g5
S'\x80\xb13\x9ev\xe14@'
tRp1505
F12.597639083862305
tp1506
a(I1
g3
(g5
S'\x80\xb13\x9ev\xe14@'
tRp1507
F0.15113186836242676
tp1508
a(I1
g3
(g5
S'\x80\xb13\x9ev\xe14@'
tRp1509
F0.14889001846313477
tp1510
a(I1
g3
(g5
S'\x80\xb13\x9ev\xe14@'
tRp1511
F0.1477971076965332
tp1512
a(I1
g3
(g5
S'\x80\xb13\x9ev\xe14@'
tRp1513
F0.15880513191223145
tp1514
a(I1
g3
(g5
S'\x00\x15\x06\xc9\xc5\xeeL@'
tRp1515
F12.925451040267944
tp1516
a(I1
g3
(g5
S'\x00\x15\x06\xc9\xc5\xeeL@'
tRp1517
F0.17311716079711914
tp1518
a(I1
g3
(g5
S'\x00\x15\x06\xc9\xc5\xeeL@'
tRp1519
F0.16911005973815918
tp1520
a(I1
g3
(g5
S'\x00\x15\x06\xc9\xc5\xeeL@'
tRp1521
F0.17641687393188477
tp1522
a(I1
g3
(g5
S'\x00\x15\x06\xc9\xc5\xeeL@'
tRp1523
F0.17114806175231934
tp1524
a(I1
g3
(g5
S'\x80\xb13\x9ev\xe14@'
tRp1525
F13.020482063293457
tp1526
a(I1
g3
(g5
S'\x80\xb13\x9ev\xe14@'
tRp1527
F0.13918113708496094
tp1528
a(I1
g3
(g5
S'\x80\xb13\x9ev\xe14@'
tRp1529
F0.13931608200073242
tp1530
a(I1
g3
(g5
S'\x80\xb13\x9ev\xe14@'
tRp1531
F0.13933610916137695
tp1532
a(I1
g3
(g5
S'\x80\xb13\x9ev\xe14@'
tRp1533
F0.14061117172241211
tp1534
a(I1
g3
(g5
S'\x00\x15\x06\xc9\xc5\xeeL@'
tRp1535
F13.341985940933228
tp1536
a(I1
g3
(g5
S'\x00\x15\x06\xc9\xc5\xeeL@'
tRp1537
F0.12954306602478027
tp1538
a(I1
g3
(g5
S'\x00\x15\x06\xc9\xc5\xeeL@'
tRp1539
F0.13023495674133301
tp1540
a(I1
g3
(g5
S'\x00\x15\x06\xc9\xc5\xeeL@'
tRp1541
F0.13051795959472656
tp1542
a(I1
g3
(g5
S'\x00\x15\x06\xc9\xc5\xeeL@'
tRp1543
F0.1315159797668457
tp1544
aa(lp1545
(I1
g3
(g5
S'\x1f\xdd\x07\xaan\xf3h@'
tRp1546
F0.063229084014892578
tp1547
a(I1
g3
(g5
S'\x81\xda\xd4\\\xcc\xe0p@'
tRp1548
F0.06552886962890625
tp1549
a(I1
g3
(g5
S'\xb0\xad\x81\xf0\xcf\xb3g@'
tRp1550
F0.11277508735656738
tp1551
a(I1
g3
(g5
S'\x9d\xe42\x14\xc1\xee`@'
tRp1552
F0.11200594902038574
tp1553
a(I1
g3
(g5
S'\xf0\xa3k5\xfd\t\\@'
tRp1554
F0.085323095321655273
tp1555
a(I1
g3
(g5
S'\xa0\ne\xed-\x0b3@'
tRp1556
F7.3158419132232666
tp1557
a(I1
g3
(g5
S'\xa0\ne\xed-\x0b3@'
tRp1558
F0.075500965118408203
tp1559
a(I1
g3
(g5
S'\xa0\ne\xed-\x0b3@'
tRp1560
F0.076580047607421875
tp1561
a(I1
g3
(g5
S'\xa0\ne\xed-\x0b3@'
tRp1562
F0.075056076049804688
tp1563
a(I1
g3
(g5
S'\x80v\x98\x9a\xd9H0@'
tRp1564
F0.074146032333374023
tp1565
a(I1
g3
(g5
S'\x00\x00\x00\x00\x00\x00\x00\x00'
tRp1566
F7.7443020343780518
tp1567
aa(lp1568
(I1
g3
(g5
S'\x00\xbf\xaa!\xf9\x8bx@'
tRp1569
F0.06270289421081543
tp1570
a(I1
g3
(g5
S'\x05\xe6\x85\xbc\xea\xbfp@'
tRp1571
F0.065562963485717773
tp1572
a(I1
g3
(g5
S'@\xcbO\x9b\xc6\x14t@'
tRp1573
F0.077552080154418945
tp1574
a(I1
g3
(g5
S'\x05\xe6\x85\xbc\xea\xbfp@'
tRp1575
F0.12393999099731445
tp1576
a(I1
g3
(g5
S'\x05\xe6\x85\xbc\xea\xbfp@'
tRp1577
F0.1307990550994873
tp1578
a(I1
g3
(g5
S'\x05\xe6\x85\xbc\xea\xbfp@'
tRp1579
F7.4059679508209229
tp1580
a(I1
g3
(g5
S'\x05\xe6\x85\xbc\xea\xbfp@'
tRp1581
F0.21014094352722168
tp1582
a(I1
g3
(g5
S'\x05\xe6\x85\xbc\xea\xbfp@'
tRp1583
F0.071625947952270508
tp1584
a(I1
g3
(g5
S'J\xfaf\xc6\x14mo@'
tRp1585
F0.090332984924316406
tp1586
a(I1
g3
(g5
S'`b\xfdAf\x0bs@'
tRp1587
F0.073709964752197266
tp1588
a(I1
g3
(g5
S'\xd2\xfd]\xdd\x18\xbau@'
tRp1589
F8.2969779968261719
tp1590
a(I1
g3
(g5
S'J\xfaf\xc6\x14mo@'
tRp1591
F0.085893869400024414
tp1592
a(I1
g3
(g5
S'@\xcbO\x9b\xc6\x14t@'
tRp1593
F0.21674299240112305
tp1594
a(I1
g3
(g5
S'\xb2\xca\xb6\x84\xb8xe@'
tRp1595
F0.24036097526550293
tp1596
a(I1
g3
(g5
S'(\x95JBp"l@'
tRp1597
F0.23033380508422852
tp1598
a(I1
g3
(g5
S'J\xfaf\xc6\x14mo@'
tRp1599
F9.3604860305786133
tp1600
a(I1
g3
(g5
S'J\xfaf\xc6\x14mo@'
tRp1601
F3.3788838386535645
tp1602
a(I1
g3
(g5
S'J\xfaf\xc6\x14mo@'
tRp1603
F3.0914690494537354
tp1604
a(I1
g3
(g5
S'\xc6\x7fAG\x0b\tb@'
tRp1605
F7.0883569717407227
tp1606
a(I1
g3
(g5
S'J\xfaf\xc6\x14mo@'
tRp1607
F6.9739139080047607
tp1608
a(I1
g3
(g5
S'\xca\xe4\x10e\x87\xb4e@'
tRp1609
F10.555160999298096
tp1610
a(I1
g3
(g5
S'\xca\xe4\x10e\x87\xb4e@'
tRp1611
F0.284912109375
tp1612
a(I1
g3
(g5
S'\x80\xba\x91\xf8Z\xef\r@'
tRp1613
F0.27227306365966797
tp1614
a(I1
g3
(g5
S'\x80\xba\x91\xf8Z\xef\r@'
tRp1615
F0.29790306091308594
tp1616
a(I1
g3
(g5
S'\x80\xba\x91\xf8Z\xef\r@'
tRp1617
F0.24790620803833008
tp1618
a(I1
g3
(g5
S'\x80\xba\x91\xf8Z\xef\r@'
tRp1619
F11.814939975738525
tp1620
a(I1
g3
(g5
S'\\\xa0"\x0b^)P@'
tRp1621
F0.31219983100891113
tp1622
a(I1
g3
(g5
S'\\\xa0"\x0b^)P@'
tRp1623
F0.24396300315856934
tp1624
a(I1
g3
(g5
S'\\\xa0"\x0b^)P@'
tRp1625
F0.28482198715209961
tp1626
a(I1
g3
(g5
S'\x80\xba\x91\xf8Z\xef\r@'
tRp1627
F0.24682188034057617
tp1628
a(I1
g3
(g5
S'\x80\xba\x91\xf8Z\xef\r@'
tRp1629
F11.175728797912598
tp1630
a(I1
g3
(g5
S'\x80\xba\x91\xf8Z\xef\r@'
tRp1631
F0.23366999626159668
tp1632
a(I1
g3
(g5
S'\x80\xba\x91\xf8Z\xef\r@'
tRp1633
F0.26623106002807617
tp1634
a(I1
g3
(g5
S'\x80\xba\x91\xf8Z\xef\r@'
tRp1635
F0.26899409294128418
tp1636
a(I1
g3
(g5
S'\x80\xba\x91\xf8Z\xef\r@'
tRp1637
F0.27476596832275391
tp1638
a(I1
g3
(g5
S'\x80\xba\x91\xf8Z\xef\r@'
tRp1639
F11.516860008239746
tp1640
a(I1
g3
(g5
S'\x80\xba\x91\xf8Z\xef\r@'
tRp1641
F0.24306893348693848
tp1642
a(I1
g3
(g5
S'dj\xc1FV\x80W@'
tRp1643
F0.24255895614624023
tp1644
a(I1
g3
(g5
S'\x80\xba\x91\xf8Z\xef\r@'
tRp1645
F0.13505697250366211
tp1646
a(I1
g3
(g5
S'\xca\xe4\x10e\x87\xb4e@'
tRp1647
F0.13968205451965332
tp1648
a(I1
g3
(g5
S'\xd4\xb8p\x9a\x95`T@'
tRp1649
F10.066672086715698
tp1650
a(I1
g3
(g5
S'\xca\xe4\x10e\x87\xb4e@'
tRp1651
F0.1863100528717041
tp1652
a(I1
g3
(g5
S'\xd4\xb8p\x9a\x95`T@'
tRp1653
F0.10735297203063965
tp1654
a(I1
g3
(g5
S'\xd4\xb8p\x9a\x95`T@'
tRp1655
F0.15077710151672363
tp1656
a(I1
g3
(g5
S'\x80\xba\x91\xf8Z\xef\r@'
tRp1657
F0.11875581741333008
tp1658
a(I1
g3
(g5
S'\xd4\xb8p\x9a\x95`T@'
tRp1659
F10.411329030990601
tp1660
a(I1
g3
(g5
S'\x80\xba\x91\xf8Z\xef\r@'
tRp1661
F0.16727304458618164
tp1662
a(I1
g3
(g5
S'\x80\xba\x91\xf8Z\xef\r@'
tRp1663
F0.15089201927185059
tp1664
a(I1
g3
(g5
S'\x80\xba\x91\xf8Z\xef\r@'
tRp1665
F0.15248990058898926
tp1666
a(I1
g3
(g5
S'\xd4\xb8p\x9a\x95`T@'
tRp1667
F0.12479496002197266
tp1668
a(I1
g3
(g5
S'\x80\xba\x91\xf8Z\xef\r@'
tRp1669
F11.05523681640625
tp1670
a(I1
g3
(g5
S'\xd4\xb8p\x9a\x95`T@'
tRp1671
F0.11718297004699707
tp1672
a(I1
g3
(g5
S'\x00\x00\x00\x00\x00\x00\x00\x00'
tRp1673
F0.15688490867614746
tp1674
aa(lp1675
(I1
g3
(g5
S'\rY]\xc4\xc0\xe7u@'
tRp1676
F0.062546968460083008
tp1677
a(I1
g3
(g5
S'\x83\x11\xf2?\xb6\x86o@'
tRp1678
F0.065053939819335938
tp1679
a(I1
g3
(g5
S'\x93c\xdd\xa6b%h@'
tRp1680
F0.09870600700378418
tp1681
a(I1
g3
(g5
S'\x9b\x1f\x9f\xf9\x06.o@'
tRp1682
F0.095764875411987305
tp1683
a(I1
g3
(g5
S'\x15\x02\xd3\xf7\x167r@'
tRp1684
F0.097617149353027344
tp1685
a(I1
g3
(g5
S'\x93c\xdd\xa6b%h@'
tRp1686
F7.2535140514373779
tp1687
a(I1
g3
(g5
S'\x80\xd7\x95\x80\x12Hg@'
tRp1688
F0.070670127868652344
tp1689
a(I1
g3
(g5
S'\x15\x02\xd3\xf7\x167r@'
tRp1690
F0.071336984634399414
tp1691
a(I1
g3
(g5
S'\x0b<\xaf\xe4n\xc8q@'
tRp1692
F0.072385072708129883
tp1693
a(I1
g3
(g5
S'a\xa6\xc5\xd9\xde\xb4s@'
tRp1694
F0.072691917419433594
tp1695
a(I1
g3
(g5
S'\x86ES\xd0\xcc\x95n@'
tRp1696
F7.9716649055480957
tp1697
a(I1
g3
(g5
S'8\xe9Y\xff\xa5\x89f@'
tRp1698
F0.091305017471313477
tp1699
a(I1
g3
(g5
S'\x06\xb1\xd7\xd6\xd5jb@'
tRp1700
F0.20561718940734863
tp1701
a(I1
g3
(g5
S'\xb1+\xecH\xdbKo@'
tRp1702
F0.20148301124572754
tp1703
a(I1
g3
(g5
S'l\x9e\xec\xa6Z\xc5j@'
tRp1704
F0.56557512283325195
tp1705
a(I1
g3
(g5
S'\xa9\xc3\xda\xed\xdb\x04s@'
tRp1706
F9.1039729118347168
tp1707
a(I1
g3
(g5
S'\xa9\xc3\xda\xed\xdb\x04s@'
tRp1708
F0.10774779319763184
tp1709
a(I1
g3
(g5
S'm\xd7}\x9a\xb2sp@'
tRp1710
F0.23229694366455078
tp1711
a(I1
g3
(g5
S'm\xd7}\x9a\xb2sp@'
tRp1712
F0.19941997528076172
tp1713
a(I1
g3
(g5
S'C\x1b\xdd\xba\xd0)i@'
tRp1714
F0.2781369686126709
tp1715
a(I1
g3
(g5
S'C\x1b\xdd\xba\xd0)i@'
tRp1716
F9.9630680084228516
tp1717
a(I1
g3
(g5
S'\x117\xbe\xed\x12ly@'
tRp1718
F0.07910609245300293
tp1719
a(I1
g3
(g5
S'\x117\xbe\xed\x12ly@'
tRp1720
F0.079422950744628906
tp1721
a(I1
g3
(g5
S'\x117\xbe\xed\x12ly@'
tRp1722
F0.080111980438232422
tp1723
a(I1
g3
(g5
S'\x117\xbe\xed\x12ly@'
tRp1724
F0.080592870712280273
tp1725
a(I1
g3
(g5
S'\x117\xbe\xed\x12ly@'
tRp1726
F9.425307035446167
tp1727
a(I1
g3
(g5
S'\x117\xbe\xed\x12ly@'
tRp1728
F0.081412076950073242
tp1729
a(I1
g3
(g5
S'\x117\xbe\xed\x12ly@'
tRp1730
F0.084619998931884766
tp1731
a(I1
g3
(g5
S'\x117\xbe\xed\x12ly@'
tRp1732
F0.082942008972167969
tp1733
a(I1
g3
(g5
S'\x117\xbe\xed\x12ly@'
tRp1734
F0.082931041717529297
tp1735
a(I1
g3
(g5
S'\x80\x82\xf1\xc8\x04\xaa\x1b@'
tRp1736
F9.4618790149688721
tp1737
a(I1
g3
(g5
S'\x00\x00\x00\x00\x00\x00\x00\x00'
tRp1738
F0.10669994354248047
tp1739
aa(lp1740
(I1
g3
(g5
S'\xf5\x97\r\x8c\xc5Cl@'
tRp1741
F0.080585956573486328
tp1742
a(I1
g3
(g5
S'\xa3\x153\x8e\xff\xdcp@'
tRp1743
F0.065747976303100586
tp1744
a(I1
g3
(g5
S'\xf5\x97\r\x8c\xc5Cl@'
tRp1745
F0.095879077911376953
tp1746
a(I1
g3
(g5
S'.\xd6\x00\x98*\x14j@'
tRp1747
F0.11458706855773926
tp1748
a(I1
g3
(g5
S'.\xd6\x00\x98*\x14j@'
tRp1749
F0.10563111305236816
tp1750
a(I1
g3
(g5
S'.\xd6\x00\x98*\x14j@'
tRp1751
F7.2989659309387207
tp1752
a(I1
g3
(g5
S'\xf5\x97\r\x8c\xc5Cl@'
tRp1753
F0.1285240650177002
tp1754
a(I1
g3
(g5
S'.\xd6\x00\x98*\x14j@'
tRp1755
F0.1227271556854248
tp1756
a(I1
g3
(g5
S'.\xd6\x00\x98*\x14j@'
tRp1757
F0.12012100219726562
tp1758
a(I1
g3
(g5
S'\xf5\x97\r\x8c\xc5Cl@'
tRp1759
F0.12484288215637207
tp1760
a(I1
g3
(g5
S'\x9a\x8anE0"d@'
tRp1761
F8.0618159770965576
tp1762
a(I1
g3
(g5
S'\x9a\x8anE0"d@'
tRp1763
F0.18759894371032715
tp1764
a(I1
g3
(g5
S'\x9a\x8anE0"d@'
tRp1765
F0.18059206008911133
tp1766
a(I1
g3
(g5
S'\x9a\x8anE0"d@'
tRp1767
F1.1341948509216309
tp1768
a(I1
g3
(g5
S'\x08\xdd}\xcfB\xfc_@'
tRp1769
F2.3573598861694336
tp1770
a(I1
g3
(g5
S'\x08\xdd}\xcfB\xfc_@'
tRp1771
F11.464301109313965
tp1772
a(I1
g3
(g5
S'\x08\xdd}\xcfB\xfc_@'
tRp1773
F2.7363879680633545
tp1774
a(I1
g3
(g5
S'\x08\xdd}\xcfB\xfc_@'
tRp1775
F6.5063638687133789
tp1776
a(I1
g3
(g5
S'K\xb0\xcb[\xbc-b@'
tRp1777
F6.9404470920562744
tp1778
a(I1
g3
(g5
S'\xe4EY*N\x18T@'
tRp1779
F5.7759330272674561
tp1780
a(I1
g3
(g5
S'\xe4EY*N\x18T@'
tRp1781
F9.9068388938903809
tp1782
a(I1
g3
(g5
S'\xe4EY*N\x18T@'
tRp1783
F0.17104697227478027
tp1784
a(I1
g3
(g5
S'\xe4EY*N\x18T@'
tRp1785
F0.16254210472106934
tp1786
a(I1
g3
(g5
S'\xe4EY*N\x18T@'
tRp1787
F0.18668222427368164
tp1788
a(I1
g3
(g5
S'\xe4EY*N\x18T@'
tRp1789
F0.18684101104736328
tp1790
a(I1
g3
(g5
S'\xe4EY*N\x18T@'
tRp1791
F11.747262954711914
tp1792
a(I1
g3
(g5
S'\xe4EY*N\x18T@'
tRp1793
F0.21457099914550781
tp1794
a(I1
g3
(g5
S'\xe4EY*N\x18T@'
tRp1795
F0.21844387054443359
tp1796
a(I1
g3
(g5
S'\xe4EY*N\x18T@'
tRp1797
F0.21783113479614258
tp1798
a(I1
g3
(g5
S'\xe4EY*N\x18T@'
tRp1799
F0.15877819061279297
tp1800
a(I1
g3
(g5
S'\xe4EY*N\x18T@'
tRp1801
F10.78403115272522
tp1802
a(I1
g3
(g5
S'\xe4EY*N\x18T@'
tRp1803
F0.16983389854431152
tp1804
a(I1
g3
(g5
S'\xe4EY*N\x18T@'
tRp1805
F0.17166686058044434
tp1806
a(I1
g3
(g5
S'\xe4EY*N\x18T@'
tRp1807
F0.16715598106384277
tp1808
a(I1
g3
(g5
S'\xe4EY*N\x18T@'
tRp1809
F0.17389297485351562
tp1810
a(I1
g3
(g5
S'\xe4EY*N\x18T@'
tRp1811
F11.82210898399353
tp1812
a(I1
g3
(g5
S'\xe4EY*N\x18T@'
tRp1813
F0.17582893371582031
tp1814
a(I1
g3
(g5
S'\xe4EY*N\x18T@'
tRp1815
F0.18112587928771973
tp1816
a(I1
g3
(g5
S'\xe4EY*N\x18T@'
tRp1817
F0.18223714828491211
tp1818
a(I1
g3
(g5
S'\xe4EY*N\x18T@'
tRp1819
F0.18207192420959473
tp1820
a(I1
g3
(g5
S'\xe4EY*N\x18T@'
tRp1821
F11.980045080184937
tp1822
a(I1
g3
(g5
S'\xe4EY*N\x18T@'
tRp1823
F0.17378616333007812
tp1824
a(I1
g3
(g5
S'\xe4EY*N\x18T@'
tRp1825
F0.18306088447570801
tp1826
a(I1
g3
(g5
S'\xe4EY*N\x18T@'
tRp1827
F0.1844179630279541
tp1828
a(I1
g3
(g5
S'\xe4EY*N\x18T@'
tRp1829
F0.18787384033203125
tp1830
a(I1
g3
(g5
S'\xe4EY*N\x18T@'
tRp1831
F12.064429044723511
tp1832
a(I1
g3
(g5
S'\xe4EY*N\x18T@'
tRp1833
F0.18616104125976562
tp1834
a(I1
g3
(g5
S'\xe4EY*N\x18T@'
tRp1835
F0.19080305099487305
tp1836
a(I1
g3
(g5
S'\xe4EY*N\x18T@'
tRp1837
F0.18842601776123047
tp1838
a(I1
g3
(g5
S'\xe4EY*N\x18T@'
tRp1839
F0.20702290534973145
tp1840
a(I1
g3
(g5
S'\xe4EY*N\x18T@'
tRp1841
F12.735665082931519
tp1842
a(I1
g3
(g5
S'\xe4EY*N\x18T@'
tRp1843
F0.18632197380065918
tp1844
a(I1
g3
(g5
S'\xe4EY*N\x18T@'
tRp1845
F0.1846778392791748
tp1846
a(I1
g3
(g5
S'\xe4EY*N\x18T@'
tRp1847
F0.18621611595153809
tp1848
a(I1
g3
(g5
S'\xe4EY*N\x18T@'
tRp1849
F0.19523382186889648
tp1850
a(I1
g3
(g5
S'\xe4EY*N\x18T@'
tRp1851
F12.724754095077515
tp1852
a(I1
g3
(g5
S'\xe4EY*N\x18T@'
tRp1853
F0.20511984825134277
tp1854
a(I1
g3
(g5
S'\xe4EY*N\x18T@'
tRp1855
F0.20350813865661621
tp1856
a(I1
g3
(g5
S'\xe4EY*N\x18T@'
tRp1857
F0.20742917060852051
tp1858
a(I1
g3
(g5
S'\xe4EY*N\x18T@'
tRp1859
F0.20297908782958984
tp1860
a(I1
g3
(g5
S'\xf5\x97\r\x8c\xc5Cl@'
tRp1861
F12.982810020446777
tp1862
a(I1
g3
(g5
S'p\xebH\xd6\xa2\xddR@'
tRp1863
F0.10104489326477051
tp1864
a(I1
g3
(g5
S'\x08\xdd}\xcfB\xfc_@'
tRp1865
F0.11687111854553223
tp1866
a(I1
g3
(g5
S'\xb0\xaf{2\xc8\xb1F@'
tRp1867
F0.10790801048278809
tp1868
a(I1
g3
(g5
S'\xb0\xaf{2\xc8\xb1F@'
tRp1869
F0.11421489715576172
tp1870
a(I1
g3
(g5
S'n\xc9r\x12\x84wX@'
tRp1871
F11.858543157577515
tp1872
a(I1
g3
(g5
S'n\xc9r\x12\x84wX@'
tRp1873
F0.11095714569091797
tp1874
a(I1
g3
(g5
S'n\xc9r\x12\x84wX@'
tRp1875
F0.10448122024536133
tp1876
a(I1
g3
(g5
S'`\x96\x16\xe9!\x1a=@'
tRp1877
F0.11500287055969238
tp1878
a(I1
g3
(g5
S' Q\x91\xc4\xb8\xe6;@'
tRp1879
F0.11783099174499512
tp1880
a(I1
g3
(g5
S'\xe4EY*N\x18T@'
tRp1881
F12.27207612991333
tp1882
a(I1
g3
(g5
S"\x99\xbc\x89h'da@"
tRp1883
F0.13040709495544434
tp1884
a(I1
g3
(g5
S' Q\x91\xc4\xb8\xe6;@'
tRp1885
F0.1399688720703125
tp1886
a(I1
g3
(g5
S'\xe4EY*N\x18T@'
tRp1887
F0.11453914642333984
tp1888
a(I1
g3
(g5
S'\xe4EY*N\x18T@'
tRp1889
F0.11639904975891113
tp1890
a(I1
g3
(g5
S'\xe4EY*N\x18T@'
tRp1891
F12.644401073455811
tp1892
a(I1
g3
(g5
S'\xe4EY*N\x18T@'
tRp1893
F0.1186220645904541
tp1894
a(I1
g3
(g5
S'\xe4EY*N\x18T@'
tRp1895
F0.12290120124816895
tp1896
a(I1
g3
(g5
S'\xe4EY*N\x18T@'
tRp1897
F0.13664412498474121
tp1898
a(I1
g3
(g5
S'n\xc9r\x12\x84wX@'
tRp1899
F0.11803507804870605
tp1900
a(I1
g3
(g5
S'`\x96\x16\xe9!\x1a=@'
tRp1901
F12.797528028488159
tp1902
a(I1
g3
(g5
S'`\x96\x16\xe9!\x1a=@'
tRp1903
F0.12636089324951172
tp1904
a(I1
g3
(g5
S'`\x96\x16\xe9!\x1a=@'
tRp1905
F0.12586188316345215
tp1906
a(I1
g3
(g5
S'`\x96\x16\xe9!\x1a=@'
tRp1907
F0.12578892707824707
tp1908
a(I1
g3
(g5
S'`\x96\x16\xe9!\x1a=@'
tRp1909
F0.12633299827575684
tp1910
a(I1
g3
(g5
S"@\x10a\x91\x94:'@"
tRp1911
F12.796113014221191
tp1912
a(I1
g3
(g5
S"@\x10a\x91\x94:'@"
tRp1913
F0.12822699546813965
tp1914
a(I1
g3
(g5
S"@\x10a\x91\x94:'@"
tRp1915
F0.12935400009155273
tp1916
a(I1
g3
(g5
S"@\x10a\x91\x94:'@"
tRp1917
F0.12887096405029297
tp1918
a(I1
g3
(g5
S"@\x10a\x91\x94:'@"
tRp1919
F0.12935280799865723
tp1920
a(I1
g3
(g5
S'@\x0ef\xa0\xd7|1@'
tRp1921
F13.181077003479004
tp1922
a(I1
g3
(g5
S"@\x10a\x91\x94:'@"
tRp1923
F0.13269209861755371
tp1924
a(I1
g3
(g5
S"@\x10a\x91\x94:'@"
tRp1925
F0.12563204765319824
tp1926
a(I1
g3
(g5
S"@\x10a\x91\x94:'@"
tRp1927
F0.16201210021972656
tp1928
a(I1
g3
(g5
S"@\x10a\x91\x94:'@"
tRp1929
F0.16130900382995605
tp1930
a(I1
g3
(g5
S"@\x10a\x91\x94:'@"
tRp1931
F13.643903970718384
tp1932
a(I1
g3
(g5
S"@\x10a\x91\x94:'@"
tRp1933
F0.1427760124206543
tp1934
a(I1
g3
(g5
S"@\x10a\x91\x94:'@"
tRp1935
F0.14261102676391602
tp1936
a(I1
g3
(g5
S"@\x10a\x91\x94:'@"
tRp1937
F0.13733816146850586
tp1938
a(I1
g3
(g5
S"@\x10a\x91\x94:'@"
tRp1939
F0.1295630931854248
tp1940
aa(lp1941
(I1
g3
(g5
S'\x9cN\xcb\xe2\x88sp@'
tRp1942
F0.063226938247680664
tp1943
a(I1
g3
(g5
S'\x97\xcfW\xcd%$p@'
tRp1944
F0.065501928329467773
tp1945
a(I1
g3
(g5
S'\x9cN\xcb\xe2\x88sp@'
tRp1946
F0.1105949878692627
tp1947
a(I1
g3
(g5
S'\xf8\xc96\xc8c\xd3h@'
tRp1948
F0.13210678100585938
tp1949
a(I1
g3
(g5
S'j$4H\t\xc9o@'
tRp1950
F0.070947885513305664
tp1951
a(I1
g3
(g5
S'j$4H\t\xc9o@'
tRp1952
F7.5195670127868652
tp1953
a(I1
g3
(g5
S'j$4H\t\xc9o@'
tRp1954
F0.15123105049133301
tp1955
a(I1
g3
(g5
S'j$4H\t\xc9o@'
tRp1956
F0.18792510032653809
tp1957
a(I1
g3
(g5
S'j$4H\t\xc9o@'
tRp1958
F0.26981091499328613
tp1959
a(I1
g3
(g5
S'j$4H\t\xc9o@'
tRp1960
F0.1829230785369873
tp1961
a(I1
g3
(g5
S'|\x11\xe9\xe0\xbd3g@'
tRp1962
F8.1132779121398926
tp1963
a(I1
g3
(g5
S'j$4H\t\xc9o@'
tRp1964
F0.41088700294494629
tp1965
a(I1
g3
(g5
S'|\x11\xe9\xe0\xbd3g@'
tRp1966
F0.30308294296264648
tp1967
a(I1
g3
(g5
S'|\x11\xe9\xe0\xbd3g@'
tRp1968
F0.48288393020629883
tp1969
a(I1
g3
(g5
S'|\x11\xe9\xe0\xbd3g@'
tRp1970
F0.17725491523742676
tp1971
a(I1
g3
(g5
S'|\x11\xe9\xe0\xbd3g@'
tRp1972
F9.5043818950653076
tp1973
a(I1
g3
(g5
S'|\x11\xe9\xe0\xbd3g@'
tRp1974
F0.13196110725402832
tp1975
a(I1
g3
(g5
S'|\x11\xe9\xe0\xbd3g@'
tRp1976
F0.1256859302520752
tp1977
a(I1
g3
(g5
S'|\x11\xe9\xe0\xbd3g@'
tRp1978
F0.12526512145996094
tp1979
a(I1
g3
(g5
S'|\x11\xe9\xe0\xbd3g@'
tRp1980
F0.13440203666687012
tp1981
a(I1
g3
(g5
S'|\x11\xe9\xe0\xbd3g@'
tRp1982
F10.938324928283691
tp1983
a(I1
g3
(g5
S'\x04\xac\x15R&\xc6_@'
tRp1984
F0.26798391342163086
tp1985
a(I1
g3
(g5
S'\x04\xac\x15R&\xc6_@'
tRp1986
F0.2754819393157959
tp1987
a(I1
g3
(g5
S' \xf7\x1aR\xdb\xdaQ@'
tRp1988
F0.22226881980895996
tp1989
a(I1
g3
(g5
S'\x04\xac\x15R&\xc6_@'
tRp1990
F0.283843994140625
tp1991
a(I1
g3
(g5
S'\x04\xac\x15R&\xc6_@'
tRp1992
F9.4806649684906006
tp1993
a(I1
g3
(g5
S'j\x0f\xf4\x8e\xa7\xea`@'
tRp1994
F0.15772104263305664
tp1995
a(I1
g3
(g5
S'\x04\xac\x15R&\xc6_@'
tRp1996
F0.18440794944763184
tp1997
a(I1
g3
(g5
S'j\x0f\xf4\x8e\xa7\xea`@'
tRp1998
F0.1509091854095459
tp1999
a(I1
g3
(g5
S'j\x0f\xf4\x8e\xa7\xea`@'
tRp2000
F0.21875691413879395
tp2001
a(I1
g3
(g5
S' \xf7\x1aR\xdb\xdaQ@'
tRp2002
F10.501224994659424
tp2003
a(I1
g3
(g5
S'\xf8\xc96\xc8c\xd3h@'
tRp2004
F0.097047805786132812
tp2005
a(I1
g3
(g5
S' \xf7\x1aR\xdb\xdaQ@'
tRp2006
F0.095583200454711914
tp2007
a(I1
g3
(g5
S'\x00\x00\x00\x00\x00\x00\x00\x00'
tRp2008
F0.12408804893493652
tp2009
aa(lp2010
(I1
g3
(g5
S'\xca\xfc|\xa0\xb1\x0cs@'
tRp2011
F0.063006162643432617
tp2012
a(I1
g3
(g5
S'\xac\x05@\x933\x0fq@'
tRp2013
F0.065639972686767578
tp2014
a(I1
g3
(g5
S'\xca\xfc|\xa0\xb1\x0cs@'
tRp2015
F0.077692985534667969
tp2016
a(I1
g3
(g5
S'\x8d:\xa6\xdbMsk@'
tRp2017
F0.16680288314819336
tp2018
a(I1
g3
(g5
S'\x9a\xa0\xf6\x04\xd4(g@'
tRp2019
F0.11667799949645996
tp2020
a(I1
g3
(g5
S'\x9a\xa0\xf6\x04\xd4(g@'
tRp2021
F7.433542013168335
tp2022
a(I1
g3
(g5
S'_\xb2|\xea\xd7-c@'
tRp2023
F0.13640785217285156
tp2024
a(I1
g3
(g5
S'_\xb2|\xea\xd7-c@'
tRp2025
F0.17722010612487793
tp2026
a(I1
g3
(g5
S'\x9a\xa0\xf6\x04\xd4(g@'
tRp2027
F0.21944618225097656
tp2028
a(I1
g3
(g5
S'\x9a\xa0\xf6\x04\xd4(g@'
tRp2029
F0.21093606948852539
tp2030
a(I1
g3
(g5
S'_\xb2|\xea\xd7-c@'
tRp2031
F8.9495751857757568
tp2032
a(I1
g3
(g5
S'_\xb2|\xea\xd7-c@'
tRp2033
F0.49250388145446777
tp2034
a(I1
g3
(g5
S'RL,\xc1Qxg@'
tRp2035
F0.88599300384521484
tp2036
a(I1
g3
(g5
S'RL,\xc1Qxg@'
tRp2037
F0.8730771541595459
tp2038
a(I1
g3
(g5
S'_\xb2|\xea\xd7-c@'
tRp2039
F0.88229799270629883
tp2040
a(I1
g3
(g5
S'RL,\xc1Qxg@'
tRp2041
F9.9068949222564697
tp2042
a(I1
g3
(g5
S'_\xb2|\xea\xd7-c@'
tRp2043
F0.15376710891723633
tp2044
a(I1
g3
(g5
S'_\xb2|\xea\xd7-c@'
tRp2045
F0.12501811981201172
tp2046
a(I1
g3
(g5
S'\x80f=\xf4\x07\x0bw@'
tRp2047
F0.11563301086425781
tp2048
a(I1
g3
(g5
S'\x80f=\xf4\x07\x0bw@'
tRp2049
F0.11384415626525879
tp2050
a(I1
g3
(g5
S'\x80f=\xf4\x07\x0bw@'
tRp2051
F10.902487993240356
tp2052
a(I1
g3
(g5
S'\x80f=\xf4\x07\x0bw@'
tRp2053
F0.079654932022094727
tp2054
a(I1
g3
(g5
S'\x80f=\xf4\x07\x0bw@'
tRp2055
F0.079747915267944336
tp2056
a(I1
g3
(g5
S'\x80f=\xf4\x07\x0bw@'
tRp2057
F0.08225703239440918
tp2058
a(I1
g3
(g5
S'\x80f=\xf4\x07\x0bw@'
tRp2059
F0.08095097541809082
tp2060
a(I1
g3
(g5
S'\x8d:\xa6\xdbMsk@'
tRp2061
F10.916033983230591
tp2062
a(I1
g3
(g5
S'\x8d:\xa6\xdbMsk@'
tRp2063
F1.126802921295166
tp2064
a(I1
g3
(g5
S'\xd1G\x80\xa8ISf@'
tRp2065
F0.91845798492431641
tp2066
a(I1
g3
(g5
S'\x08;\xa6m \x0f`@'
tRp2067
F1.0978739261627197
tp2068
a(I1
g3
(g5
S'\x8d:\xa6\xdbMsk@'
tRp2069
F1.3113548755645752
tp2070
a(I1
g3
(g5
S'RL,\xc1Qxg@'
tRp2071
F11.382452011108398
tp2072
a(I1
g3
(g5
S'RL,\xc1Qxg@'
tRp2073
F1.5522220134735107
tp2074
a(I1
g3
(g5
S'RL,\xc1Qxg@'
tRp2075
F1.9732558727264404
tp2076
a(I1
g3
(g5
S'RL,\xc1Qxg@'
tRp2077
F2.0275309085845947
tp2078
a(I1
g3
(g5
S'RL,\xc1Qxg@'
tRp2079
F1.3956661224365234
tp2080
a(I1
g3
(g5
S'RL,\xc1Qxg@'
tRp2081
F12.400706052780151
tp2082
a(I1
g3
(g5
S'RL,\xc1Qxg@'
tRp2083
F1.8013310432434082
tp2084
a(I1
g3
(g5
S'RL,\xc1Qxg@'
tRp2085
F1.7998900413513184
tp2086
a(I1
g3
(g5
S'RL,\xc1Qxg@'
tRp2087
F1.8053839206695557
tp2088
a(I1
g3
(g5
S'RL,\xc1Qxg@'
tRp2089
F1.7990989685058594
tp2090
a(I1
g3
(g5
S'RL,\xc1Qxg@'
tRp2091
F12.703212976455688
tp2092
a(I1
g3
(g5
S'RL,\xc1Qxg@'
tRp2093
F1.4932088851928711
tp2094
a(I1
g3
(g5
S'RL,\xc1Qxg@'
tRp2095
F1.59415602684021
tp2096
a(I1
g3
(g5
S'RL,\xc1Qxg@'
tRp2097
F1.5872960090637207
tp2098
a(I1
g3
(g5
S'RL,\xc1Qxg@'
tRp2099
F1.5620100498199463
tp2100
a(I1
g3
(g5
S'RL,\xc1Qxg@'
tRp2101
F12.015954971313477
tp2102
a(I1
g3
(g5
S'RL,\xc1Qxg@'
tRp2103
F0.34086012840270996
tp2104
a(I1
g3
(g5
S'RL,\xc1Qxg@'
tRp2105
F0.34469389915466309
tp2106
a(I1
g3
(g5
S'RL,\xc1Qxg@'
tRp2107
F0.3418269157409668
tp2108
a(I1
g3
(g5
S'RL,\xc1Qxg@'
tRp2109
F0.34646010398864746
tp2110
a(I1
g3
(g5
S'RL,\xc1Qxg@'
tRp2111
F13.566586971282959
tp2112
a(I1
g3
(g5
S'RL,\xc1Qxg@'
tRp2113
F0.86347603797912598
tp2114
a(I1
g3
(g5
S'RL,\xc1Qxg@'
tRp2115
F0.88794302940368652
tp2116
a(I1
g3
(g5
S'RL,\xc1Qxg@'
tRp2117
F0.9106900691986084
tp2118
a(I1
g3
(g5
S'RL,\xc1Qxg@'
tRp2119
F0.86234307289123535
tp2120
a(I1
g3
(g5
S'RL,\xc1Qxg@'
tRp2121
F13.616619110107422
tp2122
a(I1
g3
(g5
S'RL,\xc1Qxg@'
tRp2123
F0.9394230842590332
tp2124
a(I1
g3
(g5
S'RL,\xc1Qxg@'
tRp2125
F0.95566296577453613
tp2126
a(I1
g3
(g5
S'RL,\xc1Qxg@'
tRp2127
F0.94188404083251953
tp2128
a(I1
g3
(g5
S'RL,\xc1Qxg@'
tRp2129
F0.95030903816223145
tp2130
a(I1
g3
(g5
S'RL,\xc1Qxg@'
tRp2131
F14.399680852890015
tp2132
a(I1
g3
(g5
S'RL,\xc1Qxg@'
tRp2133
F1.5016148090362549
tp2134
a(I1
g3
(g5
S'RL,\xc1Qxg@'
tRp2135
F1.8884198665618896
tp2136
a(I1
g3
(g5
S'RL,\xc1Qxg@'
tRp2137
F1.8887948989868164
tp2138
a(I1
g3
(g5
S'RL,\xc1Qxg@'
tRp2139
F1.8957610130310059
tp2140
a(I1
g3
(g5
S'RL,\xc1Qxg@'
tRp2141
F14.886186122894287
tp2142
a(I1
g3
(g5
S'RL,\xc1Qxg@'
tRp2143
F1.5157198905944824
tp2144
a(I1
g3
(g5
S'RL,\xc1Qxg@'
tRp2145
F1.5140199661254883
tp2146
a(I1
g3
(g5
S'RL,\xc1Qxg@'
tRp2147
F1.53183913230896
tp2148
a(I1
g3
(g5
S'RL,\xc1Qxg@'
tRp2149
F1.5366101264953613
tp2150
a(I1
g3
(g5
S'RL,\xc1Qxg@'
tRp2151
F15.501857042312622
tp2152
a(I1
g3
(g5
S'RL,\xc1Qxg@'
tRp2153
F1.898935079574585
tp2154
a(I1
g3
(g5
S'RL,\xc1Qxg@'
tRp2155
F1.9051568508148193
tp2156
a(I1
g3
(g5
S'RL,\xc1Qxg@'
tRp2157
F1.8777260780334473
tp2158
a(I1
g3
(g5
S'RL,\xc1Qxg@'
tRp2159
F1.8849990367889404
tp2160
a(I1
g3
(g5
S'\x98\x99X\xa6H(X@'
tRp2161
F15.007219076156616
tp2162
a(I1
g3
(g5
S'\xbe\x1f\xadh\xfeto@'
tRp2163
F1.2341680526733398
tp2164
a(I1
g3
(g5
S'\xbe\x1f\xadh\xfeto@'
tRp2165
F1.1828939914703369
tp2166
a(I1
g3
(g5
S'\xbe\x1f\xadh\xfeto@'
tRp2167
F1.1788218021392822
tp2168
a(I1
g3
(g5
S'\xbe\x1f\xadh\xfeto@'
tRp2169
F1.1757099628448486
tp2170
a(I1
g3
(g5
S'\x98\x90\x00u8\xdeU@'
tRp2171
F16.545711040496826
tp2172
a(I1
g3
(g5
S'\x98\x90\x00u8\xdeU@'
tRp2173
F1.3249020576477051
tp2174
a(I1
g3
(g5
S'\x98\x90\x00u8\xdeU@'
tRp2175
F1.2563490867614746
tp2176
a(I1
g3
(g5
S'\x98\x90\x00u8\xdeU@'
tRp2177
F1.2503979206085205
tp2178
a(I1
g3
(g5
S'\x98\x90\x00u8\xdeU@'
tRp2179
F1.2628588676452637
tp2180
a(I1
g3
(g5
S'\x98\x90\x00u8\xdeU@'
tRp2181
F16.665763139724731
tp2182
a(I1
g3
(g5
S'\x98\x90\x00u8\xdeU@'
tRp2183
F1.1283121109008789
tp2184
a(I1
g3
(g5
S'\x98\x90\x00u8\xdeU@'
tRp2185
F1.1367778778076172
tp2186
a(I1
g3
(g5
S'\x98\x90\x00u8\xdeU@'
tRp2187
F1.1294009685516357
tp2188
a(I1
g3
(g5
S'\x98\x90\x00u8\xdeU@'
tRp2189
F1.1314070224761963
tp2190
a(I1
g3
(g5
S'\xbe\x1f\xadh\xfeto@'
tRp2191
F17.131607055664062
tp2192
a(I1
g3
(g5
S'\xbe\x1f\xadh\xfeto@'
tRp2193
F1.1999011039733887
tp2194
a(I1
g3
(g5
S'\xbe\x1f\xadh\xfeto@'
tRp2195
F1.1959798336029053
tp2196
a(I1
g3
(g5
S'\xbe\x1f\xadh\xfeto@'
tRp2197
F1.2202079296112061
tp2198
a(I1
g3
(g5
S'\xbe\x1f\xadh\xfeto@'
tRp2199
F1.2346150875091553
tp2200
a(I1
g3
(g5
S'\xbe\x1f\xadh\xfeto@'
tRp2201
F17.640542984008789
tp2202
a(I1
g3
(g5
S'\xbe\x1f\xadh\xfeto@'
tRp2203
F1.2073550224304199
tp2204
a(I1
g3
(g5
S'\xbe\x1f\xadh\xfeto@'
tRp2205
F1.201915979385376
tp2206
a(I1
g3
(g5
S'\xbe\x1f\xadh\xfeto@'
tRp2207
F1.2007899284362793
tp2208
a(I1
g3
(g5
S'\xbe\x1f\xadh\xfeto@'
tRp2209
F1.1879849433898926
tp2210
aa(lp2211
(I1
g3
(g5
S'\x07\x0e\x85Q\xf7\xfep@'
tRp2212
F0.062906026840209961
tp2213
a(I1
g3
(g5
S'H(\x17C\x13\\r@'
tRp2214
F0.065225124359130859
tp2215
a(I1
g3
(g5
S'H(\x17C\x13\\r@'
tRp2216
F0.11461710929870605
tp2217
a(I1
g3
(g5
S'H(\x17C\x13\\r@'
tRp2218
F0.12615704536437988
tp2219
a(I1
g3
(g5
S' ^\\\xb3\xe4sh@'
tRp2220
F0.120452880859375
tp2221
a(I1
g3
(g5
S' ^\\\xb3\xe4sh@'
tRp2222
F9.0502228736877441
tp2223
a(I1
g3
(g5
S' ^\\\xb3\xe4sh@'
tRp2224
F1.1840500831604004
tp2225
a(I1
g3
(g5
S'H(\x17C\x13\\r@'
tRp2226
F0.30710411071777344
tp2227
a(I1
g3
(g5
S'H(\x17C\x13\\r@'
tRp2228
F0.4017641544342041
tp2229
a(I1
g3
(g5
S"\xdck\xdf'V\x08u@"
tRp2230
F0.29397892951965332
tp2231
a(I1
g3
(g5
S' ^\\\xb3\xe4sh@'
tRp2232
F8.6242420673370361
tp2233
a(I1
g3
(g5
S' ^\\\xb3\xe4sh@'
tRp2234
F0.077434062957763672
tp2235
a(I1
g3
(g5
S' ^\\\xb3\xe4sh@'
tRp2236
F0.15891313552856445
tp2237
a(I1
g3
(g5
S' ^\\\xb3\xe4sh@'
tRp2238
F0.12747097015380859
tp2239
a(I1
g3
(g5
S' ^\\\xb3\xe4sh@'
tRp2240
F0.12936902046203613
tp2241
a(I1
g3
(g5
S' ^\\\xb3\xe4sh@'
tRp2242
F8.3191390037536621
tp2243
a(I1
g3
(g5
S' ^\\\xb3\xe4sh@'
tRp2244
F0.14033913612365723
tp2245
a(I1
g3
(g5
S' ^\\\xb3\xe4sh@'
tRp2246
F0.15433406829833984
tp2247
a(I1
g3
(g5
S' ^\\\xb3\xe4sh@'
tRp2248
F0.15727615356445312
tp2249
a(I1
g3
(g5
S' ^\\\xb3\xe4sh@'
tRp2250
F0.15433979034423828
tp2251
a(I1
g3
(g5
S' ^\\\xb3\xe4sh@'
tRp2252
F8.7008099555969238
tp2253
a(I1
g3
(g5
S' ^\\\xb3\xe4sh@'
tRp2254
F0.1963038444519043
tp2255
a(I1
g3
(g5
S' ^\\\xb3\xe4sh@'
tRp2256
F0.18236088752746582
tp2257
a(I1
g3
(g5
S' ^\\\xb3\xe4sh@'
tRp2258
F0.20763492584228516
tp2259
a(I1
g3
(g5
S' ^\\\xb3\xe4sh@'
tRp2260
F0.22446489334106445
tp2261
a(I1
g3
(g5
S'\x94b\xc675\x1bU@'
tRp2262
F9.1263370513916016
tp2263
a(I1
g3
(g5
S'H(\x17C\x13\\r@'
tRp2264
F0.089442014694213867
tp2265
a(I1
g3
(g5
S' ^\\\xb3\xe4sh@'
tRp2266
F0.097608089447021484
tp2267
a(I1
g3
(g5
S'\x16\xd8s@\x9b\xf1a@'
tRp2268
F0.09006500244140625
tp2269
a(I1
g3
(g5
S'z>\\\xd8ihf@'
tRp2270
F0.088900089263916016
tp2271
a(I1
g3
(g5
S'0\xc7\xc6U\x15\xdda@'
tRp2272
F9.1903290748596191
tp2273
a(I1
g3
(g5
S'G\xe5\xec|j\xccm@'
tRp2274
F0.094061136245727539
tp2275
a(I1
g3
(g5
S'G\xe5\xec|j\xccm@'
tRp2276
F0.09024810791015625
tp2277
a(I1
g3
(g5
S"\xdck\xdf'V\x08u@"
tRp2278
F0.09372401237487793
tp2279
a(I1
g3
(g5
S'\xd0\x9e\x00\x8eZyV@'
tRp2280
F0.097404956817626953
tp2281
a(I1
g3
(g5
S'\xd64\xfdQBt`@'
tRp2282
F9.9129810333251953
tp2283
a(I1
g3
(g5
S' ^\\\xb3\xe4sh@'
tRp2284
F0.10416698455810547
tp2285
a(I1
g3
(g5
S'p\xd5\xe8\xb9\xf6\xbea@'
tRp2286
F0.096089839935302734
tp2287
a(I1
g3
(g5
S'|7\x88\xd8\xe6\xa6`@'
tRp2288
F0.10711503028869629
tp2289
a(I1
g3
(g5
S'\xd0\x9e\x00\x8eZyV@'
tRp2290
F0.099865913391113281
tp2291
a(I1
g3
(g5
S'|7\x88\xd8\xe6\xa6`@'
tRp2292
F9.9932360649108887
tp2293
a(I1
g3
(g5
S' ^\\\xb3\xe4sh@'
tRp2294
F0.1071770191192627
tp2295
a(I1
g3
(g5
S'\x16\xd8s@\x9b\xf1a@'
tRp2296
F0.11775898933410645
tp2297
a(I1
g3
(g5
S'|7\x88\xd8\xe6\xa6`@'
tRp2298
F0.10614705085754395
tp2299
a(I1
g3
(g5
S'\x98])\xbe\xf1\xe3S@'
tRp2300
F0.10023379325866699
tp2301
a(I1
g3
(g5
S'|7\x88\xd8\xe6\xa6`@'
tRp2302
F10.58008599281311
tp2303
a(I1
g3
(g5
S"\xd88~'\xbb\xbdS@"
tRp2304
F0.1099550724029541
tp2305
a(I1
g3
(g5
S"\xd88~'\xbb\xbdS@"
tRp2306
F0.10488200187683105
tp2307
a(I1
g3
(g5
S'\x00\xadsy\xe7\xd63@'
tRp2308
F0.11243486404418945
tp2309
a(I1
g3
(g5
S'\x00\xadsy\xe7\xd63@'
tRp2310
F0.11696004867553711
tp2311
a(I1
g3
(g5
S'\x00\xadsy\xe7\xd63@'
tRp2312
F10.727653026580811
tp2313
a(I1
g3
(g5
S'\x00\xadsy\xe7\xd63@'
tRp2314
F0.10744810104370117
tp2315
a(I1
g3
(g5
S'\x00\xadsy\xe7\xd63@'
tRp2316
F0.13546085357666016
tp2317
a(I1
g3
(g5
S'\x00\xadsy\xe7\xd63@'
tRp2318
F0.11753392219543457
tp2319
a(I1
g3
(g5
S'\x00\xadsy\xe7\xd63@'
tRp2320
F0.12439489364624023
tp2321
a(I1
g3
(g5
S'\x00\xadsy\xe7\xd63@'
tRp2322
F11.053322076797485
tp2323
a(I1
g3
(g5
S'\x00\xadsy\xe7\xd63@'
tRp2324
F0.13434290885925293
tp2325
a(I1
g3
(g5
S'\x00\xadsy\xe7\xd63@'
tRp2326
F0.11934089660644531
tp2327
a(I1
g3
(g5
S'\x00\xadsy\xe7\xd63@'
tRp2328
F0.11974120140075684
tp2329
a(I1
g3
(g5
S'\x00\xadsy\xe7\xd63@'
tRp2330
F0.12036299705505371
tp2331
a(I1
g3
(g5
S'\x00\xadsy\xe7\xd63@'
tRp2332
F11.561418056488037
tp2333
a(I1
g3
(g5
S'\x00\xadsy\xe7\xd63@'
tRp2334
F0.11480402946472168
tp2335
a(I1
g3
(g5
S'\x00\xadsy\xe7\xd63@'
tRp2336
F0.11459898948669434
tp2337
a(I1
g3
(g5
S'\x00\xadsy\xe7\xd63@'
tRp2338
F0.11542010307312012
tp2339
a(I1
g3
(g5
S'\x00\xadsy\xe7\xd63@'
tRp2340
F0.11553192138671875
tp2341
a(I1
g3
(g5
S'\x00\xadsy\xe7\xd63@'
tRp2342
F11.632372140884399
tp2343
a(I1
g3
(g5
S'\x00\xadsy\xe7\xd63@'
tRp2344
F0.12160706520080566
tp2345
a(I1
g3
(g5
S'\x00\xadsy\xe7\xd63@'
tRp2346
F0.12200188636779785
tp2347
a(I1
g3
(g5
S'\x00\xadsy\xe7\xd63@'
tRp2348
F0.12426495552062988
tp2349
a(I1
g3
(g5
S'\x00\xadsy\xe7\xd63@'
tRp2350
F0.1227419376373291
tp2351
a(I1
g3
(g5
S'\x00\xadsy\xe7\xd63@'
tRp2352
F11.948693990707397
tp2353
a(I1
g3
(g5
S'\x00\xadsy\xe7\xd63@'
tRp2354
F0.11768794059753418
tp2355
a(I1
g3
(g5
S'\x00\xadsy\xe7\xd63@'
tRp2356
F0.11833596229553223
tp2357
a(I1
g3
(g5
S'\x00\xadsy\xe7\xd63@'
tRp2358
F0.11946296691894531
tp2359
a(I1
g3
(g5
S'\x00\xadsy\xe7\xd63@'
tRp2360
F0.11941790580749512
tp2361
a(I1
g3
(g5
S'\x00\xadsy\xe7\xd63@'
tRp2362
F12.341954946517944
tp2363
a(I1
g3
(g5
S'\x00\xadsy\xe7\xd63@'
tRp2364
F0.12140917778015137
tp2365
a(I1
g3
(g5
S'\x00\xadsy\xe7\xd63@'
tRp2366
F0.12292313575744629
tp2367
a(I1
g3
(g5
S'\x00\xadsy\xe7\xd63@'
tRp2368
F0.12241697311401367
tp2369
a(I1
g3
(g5
S'\x00\xadsy\xe7\xd63@'
tRp2370
F0.12290191650390625
tp2371
a(I1
g3
(g5
S'\x00\xadsy\xe7\xd63@'
tRp2372
F12.685511112213135
tp2373
a(I1
g3
(g5
S'\x00\xadsy\xe7\xd63@'
tRp2374
F0.13320803642272949
tp2375
a(I1
g3
(g5
S'\x00\xadsy\xe7\xd63@'
tRp2376
F0.13361477851867676
tp2377
a(I1
g3
(g5
S'\x00\xadsy\xe7\xd63@'
tRp2378
F0.13490200042724609
tp2379
a(I1
g3
(g5
S'\x00\xadsy\xe7\xd63@'
tRp2380
F0.13445591926574707
tp2381
a(I1
g3
(g5
S'\x00\xadsy\xe7\xd63@'
tRp2382
F12.966209888458252
tp2383
a(I1
g3
(g5
S'\x00\xadsy\xe7\xd63@'
tRp2384
F0.13876605033874512
tp2385
a(I1
g3
(g5
S'\x00\xadsy\xe7\xd63@'
tRp2386
F0.13983798027038574
tp2387
a(I1
g3
(g5
S'\x00\xadsy\xe7\xd63@'
tRp2388
F0.14029693603515625
tp2389
a(I1
g3
(g5
S'\x00\xadsy\xe7\xd63@'
tRp2390
F0.14045405387878418
tp2391
a(I1
g3
(g5
S'\x00\xadsy\xe7\xd63@'
tRp2392
F13.187264919281006
tp2393
a(I1
g3
(g5
S'\x00\xadsy\xe7\xd63@'
tRp2394
F0.13853883743286133
tp2395
a(I1
g3
(g5
S'\x00\xadsy\xe7\xd63@'
tRp2396
F0.15568184852600098
tp2397
a(I1
g3
(g5
S'\x00\xadsy\xe7\xd63@'
tRp2398
F0.13870692253112793
tp2399
a(I1
g3
(g5
S'\x00\xadsy\xe7\xd63@'
tRp2400
F0.13961505889892578
tp2401
a(I1
g3
(g5
S'\x00\xadsy\xe7\xd63@'
tRp2402
F13.53908109664917
tp2403
a(I1
g3
(g5
S'\x00\xadsy\xe7\xd63@'
tRp2404
F0.12806916236877441
tp2405
a(I1
g3
(g5
S'\x00\xadsy\xe7\xd63@'
tRp2406
F0.12891006469726562
tp2407
a(I1
g3
(g5
S'\x00\xadsy\xe7\xd63@'
tRp2408
F0.12897896766662598
tp2409
a(I1
g3
(g5
S'\x00\xadsy\xe7\xd63@'
tRp2410
F0.12976312637329102
tp2411
aa(lp2412
(I1
g3
(g5
S'\xf8\xb2H\xcdE\x96q@'
tRp2413
F0.062664985656738281
tp2414
a(I1
g3
(g5
S'\xb9\xf8\x97\x1c\xed\xa8n@'
tRp2415
F0.065290927886962891
tp2416
a(I1
g3
(g5
S'\xb9\xf8\x97\x1c\xed\xa8n@'
tRp2417
F0.11581802368164062
tp2418
a(I1
g3
(g5
S'\xb9\xf8\x97\x1c\xed\xa8n@'
tRp2419
F0.11165308952331543
tp2420
a(I1
g3
(g5
S'\xb9\xf8\x97\x1c\xed\xa8n@'
tRp2421
F0.1292259693145752
tp2422
a(I1
g3
(g5
S'\xb9\xf8\x97\x1c\xed\xa8n@'
tRp2423
F7.3103418350219727
tp2424
a(I1
g3
(g5
S'\xb9\xf8\x97\x1c\xed\xa8n@'
tRp2425
F0.11678194999694824
tp2426
a(I1
g3
(g5
S'\xb6%\xa5\xa8\xb8\xbaf@'
tRp2427
F0.15403008460998535
tp2428
a(I1
g3
(g5
S'\xec\x92\x9e&W>k@'
tRp2429
F0.071635007858276367
tp2430
a(I1
g3
(g5
S'\xec\x92\x9e&W>k@'
tRp2431
F0.072253942489624023
tp2432
a(I1
g3
(g5
S'\x08\xfa\xbfb\xa3\xdaQ@'
tRp2433
F7.8177270889282227
tp2434
a(I1
g3
(g5
S'\x08\xfa\xbfb\xa3\xdaQ@'
tRp2435
F0.074975013732910156
tp2436
a(I1
g3
(g5
S'8?\x9a\xcd\xcc\xa6A@'
tRp2437
F0.075090885162353516
tp2438
a(I1
g3
(g5
S'8?\x9a\xcd\xcc\xa6A@'
tRp2439
F0.080729007720947266
tp2440
a(I1
g3
(g5
S'\x04\xdayI\x17\x14a@'
tRp2441
F0.11934089660644531
tp2442
a(I1
g3
(g5
S'\x08\xd0R%\x86\xdb`@'
tRp2443
F7.9807291030883789
tp2444
a(I1
g3
(g5
S'0\x87d\x80\xe82U@'
tRp2445
F0.078752040863037109
tp2446
a(I1
g3
(g5
S'bI\xc1F\xfe\nk@'
tRp2447
F0.083888053894042969
tp2448
a(I1
g3
(g5
S'\xfa\xa3\xe6Hy\x80`@'
tRp2449
F0.085286855697631836
tp2450
a(I1
g3
(g5
S'tU\xd6c\x16\x90l@'
tRp2451
F0.10076093673706055
tp2452
a(I1
g3
(g5
S'\x12\xf6\x93g\xa7\xf3p@'
tRp2453
F8.4402070045471191
tp2454
a(I1
g3
(g5
S'`\xab1E\xfbpW@'
tRp2455
F0.086168050765991211
tp2456
a(I1
g3
(g5
S'\x08\x11\x95\xb3\xb9\x82n@'
tRp2457
F0.083324909210205078
tp2458
a(I1
g3
(g5
S'\x08\xfea\x8e\x08TY@'
tRp2459
F0.086941003799438477
tp2460
a(I1
g3
(g5
S'\x08\x11\x95\xb3\xb9\x82n@'
tRp2461
F0.087478160858154297
tp2462
a(I1
g3
(g5
S'\xef~.Q\xb0cm@'
tRp2463
F9.2949728965759277
tp2464
a(I1
g3
(g5
S'\x12\xf6\x93g\xa7\xf3p@'
tRp2465
F0.087532997131347656
tp2466
a(I1
g3
(g5
S'p\xbd\x81m\xa2dB@'
tRp2467
F0.098701953887939453
tp2468
a(I1
g3
(g5
S';g\xf0\xca\x89\x8bh@'
tRp2469
F0.092957019805908203
tp2470
a(I1
g3
(g5
S'\xb4\xa8\x8b\x16\xb2\xa6c@'
tRp2471
F0.095525026321411133
tp2472
a(I1
g3
(g5
S'p\xbd\x81m\xa2dB@'
tRp2473
F9.795928955078125
tp2474
a(I1
g3
(g5
S'p\xbd\x81m\xa2dB@'
tRp2475
F0.099904060363769531
tp2476
a(I1
g3
(g5
S'p\xbd\x81m\xa2dB@'
tRp2477
F0.1344609260559082
tp2478
a(I1
g3
(g5
S'p\xbd\x81m\xa2dB@'
tRp2479
F0.13626480102539062
tp2480
a(I1
g3
(g5
S'p\xbd\x81m\xa2dB@'
tRp2481
F0.13484501838684082
tp2482
a(I1
g3
(g5
S'p\xbd\x81m\xa2dB@'
tRp2483
F9.6767978668212891
tp2484
a(I1
g3
(g5
S'p\xbd\x81m\xa2dB@'
tRp2485
F0.16983318328857422
tp2486
a(I1
g3
(g5
S'p\xbd\x81m\xa2dB@'
tRp2487
F0.11154508590698242
tp2488
a(I1
g3
(g5
S'p\xbd\x81m\xa2dB@'
tRp2489
F0.11229395866394043
tp2490
a(I1
g3
(g5
S'p\xbd\x81m\xa2dB@'
tRp2491
F0.11336612701416016
tp2492
a(I1
g3
(g5
S'"g\xcd\x9bI\x04w@'
tRp2493
F9.9470648765563965
tp2494
a(I1
g3
(g5
S'"g\xcd\x9bI\x04w@'
tRp2495
F0.087476968765258789
tp2496
a(I1
g3
(g5
S'"g\xcd\x9bI\x04w@'
tRp2497
F0.088522911071777344
tp2498
a(I1
g3
(g5
S'"g\xcd\x9bI\x04w@'
tRp2499
F0.0880889892578125
tp2500
a(I1
g3
(g5
S'"g\xcd\x9bI\x04w@'
tRp2501
F0.088825225830078125
tp2502
a(I1
g3
(g5
S'p\xbd\x81m\xa2dB@'
tRp2503
F10.383391857147217
tp2504
a(I1
g3
(g5
S'p\xbd\x81m\xa2dB@'
tRp2505
F0.15280413627624512
tp2506
a(I1
g3
(g5
S'p\xbd\x81m\xa2dB@'
tRp2507
F0.13886094093322754
tp2508
a(I1
g3
(g5
S'p\xbd\x81m\xa2dB@'
tRp2509
F0.14013004302978516
tp2510
a(I1
g3
(g5
S'p\xbd\x81m\xa2dB@'
tRp2511
F0.14064288139343262
tp2512
a(I1
g3
(g5
S'p\xbd\x81m\xa2dB@'
tRp2513
F10.743099212646484
tp2514
a(I1
g3
(g5
S'p\xbd\x81m\xa2dB@'
tRp2515
F0.13055682182312012
tp2516
a(I1
g3
(g5
S'p\xbd\x81m\xa2dB@'
tRp2517
F0.13120007514953613
tp2518
a(I1
g3
(g5
S'p\xbd\x81m\xa2dB@'
tRp2519
F0.13159298896789551
tp2520
a(I1
g3
(g5
S'p\xbd\x81m\xa2dB@'
tRp2521
F0.13311004638671875
tp2522
a(I1
g3
(g5
S'p\xbd\x81m\xa2dB@'
tRp2523
F11.154952049255371
tp2524
a(I1
g3
(g5
S'p\xbd\x81m\xa2dB@'
tRp2525
F0.1239311695098877
tp2526
a(I1
g3
(g5
S'p\xbd\x81m\xa2dB@'
tRp2527
F0.14095187187194824
tp2528
a(I1
g3
(g5
S'p\xbd\x81m\xa2dB@'
tRp2529
F0.12426400184631348
tp2530
a(I1
g3
(g5
S'p\xbd\x81m\xa2dB@'
tRp2531
F0.12462091445922852
tp2532
a(I1
g3
(g5
S'p\xbd\x81m\xa2dB@'
tRp2533
F11.437278032302856
tp2534
a(I1
g3
(g5
S'p\xbd\x81m\xa2dB@'
tRp2535
F0.13091111183166504
tp2536
a(I1
g3
(g5
S'p\xbd\x81m\xa2dB@'
tRp2537
F0.12686920166015625
tp2538
a(I1
g3
(g5
S'p\xbd\x81m\xa2dB@'
tRp2539
F0.12803292274475098
tp2540
a(I1
g3
(g5
S'p\xbd\x81m\xa2dB@'
tRp2541
F0.12786602973937988
tp2542
a(I1
g3
(g5
S'p\xbd\x81m\xa2dB@'
tRp2543
F11.813536167144775
tp2544
a(I1
g3
(g5
S'p\xbd\x81m\xa2dB@'
tRp2545
F0.14920496940612793
tp2546
a(I1
g3
(g5
S'p\xbd\x81m\xa2dB@'
tRp2547
F0.15425419807434082
tp2548
a(I1
g3
(g5
S'p\xbd\x81m\xa2dB@'
tRp2549
F0.1670680046081543
tp2550
a(I1
g3
(g5
S'p\xbd\x81m\xa2dB@'
tRp2551
F0.15110111236572266
tp2552
a(I1
g3
(g5
S'p\xbd\x81m\xa2dB@'
tRp2553
F12.156975984573364
tp2554
a(I1
g3
(g5
S'p\xbd\x81m\xa2dB@'
tRp2555
F0.14119195938110352
tp2556
a(I1
g3
(g5
S'p\xbd\x81m\xa2dB@'
tRp2557
F0.14584779739379883
tp2558
a(I1
g3
(g5
S'p\xbd\x81m\xa2dB@'
tRp2559
F0.14235210418701172
tp2560
a(I1
g3
(g5
S'p\xbd\x81m\xa2dB@'
tRp2561
F0.14316391944885254
tp2562
a(I1
g3
(g5
S'p\xbd\x81m\xa2dB@'
tRp2563
F12.401521921157837
tp2564
a(I1
g3
(g5
S'p\xbd\x81m\xa2dB@'
tRp2565
F0.17149686813354492
tp2566
a(I1
g3
(g5
S'p\xbd\x81m\xa2dB@'
tRp2567
F0.15578603744506836
tp2568
a(I1
g3
(g5
S'p\xbd\x81m\xa2dB@'
tRp2569
F0.1561579704284668
tp2570
a(I1
g3
(g5
S'p\xbd\x81m\xa2dB@'
tRp2571
F0.15623283386230469
tp2572
a(I1
g3
(g5
S'p\xbd\x81m\xa2dB@'
tRp2573
F12.759716987609863
tp2574
a(I1
g3
(g5
S'p\xbd\x81m\xa2dB@'
tRp2575
F0.13182806968688965
tp2576
a(I1
g3
(g5
S'p\xbd\x81m\xa2dB@'
tRp2577
F0.13193106651306152
tp2578
a(I1
g3
(g5
S'p\xbd\x81m\xa2dB@'
tRp2579
F0.13295912742614746
tp2580
a(I1
g3
(g5
S'p\xbd\x81m\xa2dB@'
tRp2581
F0.1328580379486084
tp2582
a(I1
g3
(g5
S'p\xbd\x81m\xa2dB@'
tRp2583
F13.053641080856323
tp2584
a(I1
g3
(g5
S'p\xbd\x81m\xa2dB@'
tRp2585
F0.15377998352050781
tp2586
a(I1
g3
(g5
S'p\xbd\x81m\xa2dB@'
tRp2587
F0.15425992012023926
tp2588
a(I1
g3
(g5
S'p\xbd\x81m\xa2dB@'
tRp2589
F0.15415215492248535
tp2590
a(I1
g3
(g5
S'p\xbd\x81m\xa2dB@'
tRp2591
F0.16946101188659668
tp2592
a(I1
g3
(g5
S'p\xbd\x81m\xa2dB@'
tRp2593
F13.363787174224854
tp2594
a(I1
g3
(g5
S'p\xbd\x81m\xa2dB@'
tRp2595
F0.16178798675537109
tp2596
a(I1
g3
(g5
S'p\xbd\x81m\xa2dB@'
tRp2597
F0.16246891021728516
tp2598
a(I1
g3
(g5
S'p\xbd\x81m\xa2dB@'
tRp2599
F0.16840600967407227
tp2600
a(I1
g3
(g5
S'p\xbd\x81m\xa2dB@'
tRp2601
F0.16352081298828125
tp2602
a(I1
g3
(g5
S'p\xbd\x81m\xa2dB@'
tRp2603
F13.706319093704224
tp2604
a(I1
g3
(g5
S'p\xbd\x81m\xa2dB@'
tRp2605
F0.14273381233215332
tp2606
a(I1
g3
(g5
S'p\xbd\x81m\xa2dB@'
tRp2607
F0.14274096488952637
tp2608
a(I1
g3
(g5
S'p\xbd\x81m\xa2dB@'
tRp2609
F0.14356303215026855
tp2610
a(I1
g3
(g5
S'p\xbd\x81m\xa2dB@'
tRp2611
F0.15881800651550293
tp2612
aa(lp2613
(I1
g3
(g5
S'\xcb\xea\x05\xc6o\x16u@'
tRp2614
F0.062898159027099609
tp2615
a(I1
g3
(g5
S'\xcb\xea\x05\xc6o\x16u@'
tRp2616
F0.065398931503295898
tp2617
a(I1
g3
(g5
S'\xcb\xea\x05\xc6o\x16u@'
tRp2618
F0.11477112770080566
tp2619
a(I1
g3
(g5
S'\xcb\xea\x05\xc6o\x16u@'
tRp2620
F0.1115868091583252
tp2621
a(I1
g3
(g5
S'\x06*\xaf\x8d\xe0Ar@'
tRp2622
F0.15082597732543945
tp2623
a(I1
g3
(g5
S'\xcb\xea\x05\xc6o\x16u@'
tRp2624
F7.2537970542907715
tp2625
a(I1
g3
(g5
S'\x90-\xf6c\xfc\x9bm@'
tRp2626
F0.071011781692504883
tp2627
a(I1
g3
(g5
S'\xcb\xea\x05\xc6o\x16u@'
tRp2628
F0.072154998779296875
tp2629
a(I1
g3
(g5
S'\xcb\xea\x05\xc6o\x16u@'
tRp2630
F0.073101043701171875
tp2631
a(I1
g3
(g5
S'\xd8\xdd\xd8\xdct\xfem@'
tRp2632
F0.073446035385131836
tp2633
a(I1
g3
(g5
S'\x1e4C\xe3\xb8\xe4n@'
tRp2634
F7.9862980842590332
tp2635
a(I1
g3
(g5
S'\xcb\xea\x05\xc6o\x16u@'
tRp2636
F0.1616508960723877
tp2637
a(I1
g3
(g5
S'\xcb\xea\x05\xc6o\x16u@'
tRp2638
F0.37083601951599121
tp2639
a(I1
g3
(g5
S'\xcb\xea\x05\xc6o\x16u@'
tRp2640
F0.14008402824401855
tp2641
a(I1
g3
(g5
S'\xcb\xea\x05\xc6o\x16u@'
tRp2642
F0.084608078002929688
tp2643
a(I1
g3
(g5
S'L[\x97\xbb\xd8\xb6^@'
tRp2644
F8.8475439548492432
tp2645
a(I1
g3
(g5
S'\xfa\x82\x85\xe7\xcc\x92i@'
tRp2646
F0.16973209381103516
tp2647
a(I1
g3
(g5
S'\x00\x08%\xf6j2e@'
tRp2648
F0.078613042831420898
tp2649
a(I1
g3
(g5
S'\xbc\xd4v\xcfH=p@'
tRp2650
F0.079808235168457031
tp2651
a(I1
g3
(g5
S'\x82\xf18\x7fEdl@'
tRp2652
F0.081044912338256836
tp2653
a(I1
g3
(g5
S'`<\x104N\xb6b@'
tRp2654
F8.4464128017425537
tp2655
a(I1
g3
(g5
S'`<\x104N\xb6b@'
tRp2656
F0.088216066360473633
tp2657
a(I1
g3
(g5
S'`<\x104N\xb6b@'
tRp2658
F0.088828086853027344
tp2659
a(I1
g3
(g5
S'`<\x104N\xb6b@'
tRp2660
F0.08930206298828125
tp2661
a(I1
g3
(g5
S'`<\x104N\xb6b@'
tRp2662
F0.089437007904052734
tp2663
a(I1
g3
(g5
S'\x82\xf18\x7fEdl@'
tRp2664
F8.7480788230895996
tp2665
a(I1
g3
(g5
S'"\x1co\'\x90\x06f@'
tRp2666
F0.091694116592407227
tp2667
a(I1
g3
(g5
S'\xce\xc1\xc3\x9e\xa9Pf@'
tRp2668
F0.091945171356201172
tp2669
a(I1
g3
(g5
S'\xce\xc1\xc3\x9e\xa9Pf@'
tRp2670
F0.087325096130371094
tp2671
a(I1
g3
(g5
S'\xcb\xea\x05\xc6o\x16u@'
tRp2672
F0.089749813079833984
tp2673
a(I1
g3
(g5
S'$\xd43\x151Cf@'
tRp2674
F9.2459180355072021
tp2675
a(I1
g3
(g5
S'\x0cP+P\xc6!Y@'
tRp2676
F0.098006010055541992
tp2677
a(I1
g3
(g5
S'`<\x104N\xb6b@'
tRp2678
F0.099714040756225586
tp2679
a(I1
g3
(g5
S'\xdc\xdf\x03z\x19}e@'
tRp2680
F0.12739300727844238
tp2681
a(I1
g3
(g5
S'\x10\xa0j\xb9\xee,B@'
tRp2682
F0.10097193717956543
tp2683
a(I1
g3
(g5
S'\xfa\x03\xb8\xea\xa3\x02b@'
tRp2684
F9.8040909767150879
tp2685
a(I1
g3
(g5
S'\xfa\x03\xb8\xea\xa3\x02b@'
tRp2686
F0.10613512992858887
tp2687
a(I1
g3
(g5
S'\x10\xa0j\xb9\xee,B@'
tRp2688
F0.10999798774719238
tp2689
a(I1
g3
(g5
S'\x88e1\xd23\xcfG@'
tRp2690
F0.21237301826477051
tp2691
a(I1
g3
(g5
S'\x88e1\xd23\xcfG@'
tRp2692
F0.10757088661193848
tp2693
a(I1
g3
(g5
S'\x10\xa0j\xb9\xee,B@'
tRp2694
F10.816273927688599
tp2695
a(I1
g3
(g5
S'\x10\xa0j\xb9\xee,B@'
tRp2696
F0.1118919849395752
tp2697
a(I1
g3
(g5
S'\x10\xa0j\xb9\xee,B@'
tRp2698
F0.18030405044555664
tp2699
a(I1
g3
(g5
S'\x10\xa0j\xb9\xee,B@'
tRp2700
F0.11022186279296875
tp2701
a(I1
g3
(g5
S'\x10\xa0j\xb9\xee,B@'
tRp2702
F0.14997386932373047
tp2703
a(I1
g3
(g5
S'\x10\xa0j\xb9\xee,B@'
tRp2704
F10.937360048294067
tp2705
a(I1
g3
(g5
S'\x10\xa0j\xb9\xee,B@'
tRp2706
F0.17632794380187988
tp2707
a(I1
g3
(g5
S'\x10\xa0j\xb9\xee,B@'
tRp2708
F0.16073083877563477
tp2709
a(I1
g3
(g5
S'\x10\xa0j\xb9\xee,B@'
tRp2710
F0.16207003593444824
tp2711
a(I1
g3
(g5
S'\x10\xa0j\xb9\xee,B@'
tRp2712
F0.16252684593200684
tp2713
a(I1
g3
(g5
S'\x10\xa0j\xb9\xee,B@'
tRp2714
F11.176167011260986
tp2715
a(I1
g3
(g5
S'\x10\xa0j\xb9\xee,B@'
tRp2716
F0.17800617218017578
tp2717
a(I1
g3
(g5
S'\x10\xa0j\xb9\xee,B@'
tRp2718
F0.17636203765869141
tp2719
a(I1
g3
(g5
S'\x10\xa0j\xb9\xee,B@'
tRp2720
F0.17574787139892578
tp2721
a(I1
g3
(g5
S'\x10\xa0j\xb9\xee,B@'
tRp2722
F0.17637896537780762
tp2723
a(I1
g3
(g5
S'\x10\xa0j\xb9\xee,B@'
tRp2724
F11.378435134887695
tp2725
a(I1
g3
(g5
S'\x10\xa0j\xb9\xee,B@'
tRp2726
F0.15762901306152344
tp2727
a(I1
g3
(g5
S'\x10\xa0j\xb9\xee,B@'
tRp2728
F0.15722203254699707
tp2729
a(I1
g3
(g5
S'\x10\xa0j\xb9\xee,B@'
tRp2730
F0.15825510025024414
tp2731
a(I1
g3
(g5
S'\x10\xa0j\xb9\xee,B@'
tRp2732
F0.16028809547424316
tp2733
a(I1
g3
(g5
S'\x10\xa0j\xb9\xee,B@'
tRp2734
F11.760612010955811
tp2735
a(I1
g3
(g5
S'\x10\xa0j\xb9\xee,B@'
tRp2736
F0.14440488815307617
tp2737
a(I1
g3
(g5
S'\x10\xa0j\xb9\xee,B@'
tRp2738
F0.14459395408630371
tp2739
a(I1
g3
(g5
S'\x10\xa0j\xb9\xee,B@'
tRp2740
F0.14537692070007324
tp2741
a(I1
g3
(g5
S'\x10\xa0j\xb9\xee,B@'
tRp2742
F0.14538407325744629
tp2743
a(I1
g3
(g5
S'\x10\xa0j\xb9\xee,B@'
tRp2744
F12.304658889770508
tp2745
a(I1
g3
(g5
S'\x10\xa0j\xb9\xee,B@'
tRp2746
F0.18550610542297363
tp2747
a(I1
g3
(g5
S'\x10\xa0j\xb9\xee,B@'
tRp2748
F0.18441891670227051
tp2749
a(I1
g3
(g5
S'\x10\xa0j\xb9\xee,B@'
tRp2750
F0.18657708168029785
tp2751
a(I1
g3
(g5
S'\x10\xa0j\xb9\xee,B@'
tRp2752
F0.20243406295776367
tp2753
a(I1
g3
(g5
S'\x10\xa0j\xb9\xee,B@'
tRp2754
F12.604254961013794
tp2755
a(I1
g3
(g5
S'\x10\xa0j\xb9\xee,B@'
tRp2756
F0.1856839656829834
tp2757
a(I1
g3
(g5
S'\x10\xa0j\xb9\xee,B@'
tRp2758
F0.18657898902893066
tp2759
a(I1
g3
(g5
S'\x10\xa0j\xb9\xee,B@'
tRp2760
F0.18866801261901855
tp2761
a(I1
g3
(g5
S'\x10\xa0j\xb9\xee,B@'
tRp2762
F0.18539094924926758
tp2763
a(I1
g3
(g5
S'\x10\xa0j\xb9\xee,B@'
tRp2764
F12.742238998413086
tp2765
a(I1
g3
(g5
S'\x10\xa0j\xb9\xee,B@'
tRp2766
F0.18284893035888672
tp2767
a(I1
g3
(g5
S'\x10\xa0j\xb9\xee,B@'
tRp2768
F0.18912100791931152
tp2769
a(I1
g3
(g5
S'\x10\xa0j\xb9\xee,B@'
tRp2770
F0.18914079666137695
tp2771
a(I1
g3
(g5
S'\x10\xa0j\xb9\xee,B@'
tRp2772
F0.18514204025268555
tp2773
a(I1
g3
(g5
S'\x10\xa0j\xb9\xee,B@'
tRp2774
F13.112729072570801
tp2775
a(I1
g3
(g5
S'\x10\xa0j\xb9\xee,B@'
tRp2776
F0.16047215461730957
tp2777
a(I1
g3
(g5
S'\x10\xa0j\xb9\xee,B@'
tRp2778
F0.16337299346923828
tp2779
a(I1
g3
(g5
S'\x10\xa0j\xb9\xee,B@'
tRp2780
F0.16115689277648926
tp2781
a(I1
g3
(g5
S'\x10\xa0j\xb9\xee,B@'
tRp2782
F0.16381192207336426
tp2783
a(I1
g3
(g5
S'\x10\xa0j\xb9\xee,B@'
tRp2784
F13.415133953094482
tp2785
a(I1
g3
(g5
S'\x10\xa0j\xb9\xee,B@'
tRp2786
F0.16321301460266113
tp2787
a(I1
g3
(g5
S'\x10\xa0j\xb9\xee,B@'
tRp2788
F0.16515183448791504
tp2789
a(I1
g3
(g5
S'\x10\xa0j\xb9\xee,B@'
tRp2790
F0.16300010681152344
tp2791
a(I1
g3
(g5
S'\x10\xa0j\xb9\xee,B@'
tRp2792
F0.16389107704162598
tp2793
a(I1
g3
(g5
S'\x10\xa0j\xb9\xee,B@'
tRp2794
F13.87203311920166
tp2795
a(I1
g3
(g5
S'\x10\xa0j\xb9\xee,B@'
tRp2796
F0.15399503707885742
tp2797
a(I1
g3
(g5
S'\x10\xa0j\xb9\xee,B@'
tRp2798
F0.17145681381225586
tp2799
a(I1
g3
(g5
S'\x10\xa0j\xb9\xee,B@'
tRp2800
F0.15427398681640625
tp2801
a(I1
g3
(g5
S'\x10\xa0j\xb9\xee,B@'
tRp2802
F0.15563297271728516
tp2803
a(I1
g3
(g5
S'\x10\xa0j\xb9\xee,B@'
tRp2804
F14.439409017562866
tp2805
a(I1
g3
(g5
S'\x10\xa0j\xb9\xee,B@'
tRp2806
F0.22523999214172363
tp2807
a(I1
g3
(g5
S'\x10\xa0j\xb9\xee,B@'
tRp2808
F0.22177910804748535
tp2809
a(I1
g3
(g5
S'\x10\xa0j\xb9\xee,B@'
tRp2810
F0.22581005096435547
tp2811
a(I1
g3
(g5
S'\x10\xa0j\xb9\xee,B@'
tRp2812
F0.21740388870239258
tp2813
aa(lp2814
(I1
g3
(g5
S"p'\xed\xd53ns@"
tRp2815
F0.06303715705871582
tp2816
a(I1
g3
(g5
S"p'\xed\xd53ns@"
tRp2817
F0.065939903259277344
tp2818
a(I1
g3
(g5
S"U\xa2\xde6W'q@"
tRp2819
F0.11071300506591797
tp2820
a(I1
g3
(g5
S"U\xa2\xde6W'q@"
tRp2821
F0.11196994781494141
tp2822
a(I1
g3
(g5
S'\x0b\xb7\xa9 s@m@'
tRp2823
F0.071071147918701172
tp2824
a(I1
g3
(g5
S"p'\xed\xd53ns@"
tRp2825
F7.2967939376831055
tp2826
a(I1
g3
(g5
S'\x99\xd5\xf23\x03\rs@'
tRp2827
F0.071575164794921875
tp2828
a(I1
g3
(g5
S'\xc9\x0ei\x8d\xe5\x85p@'
tRp2829
F0.072218894958496094
tp2830
a(I1
g3
(g5
S'\x99\xd5\xf23\x03\rs@'
tRp2831
F0.073004007339477539
tp2832
a(I1
g3
(g5
S'\x99\xd5\xf23\x03\rs@'
tRp2833
F0.073394060134887695
tp2834
a(I1
g3
(g5
S'\xf2\xee#\xb5v\xb3f@'
tRp2835
F8.1150989532470703
tp2836
a(I1
g3
(g5
S'\xf2\xee#\xb5v\xb3f@'
tRp2837
F0.1252589225769043
tp2838
a(I1
g3
(g5
S'\xf2\xee#\xb5v\xb3f@'
tRp2839
F0.14687395095825195
tp2840
a(I1
g3
(g5
S'\x18\x9d\xd1\xa7\xab\xf5T@'
tRp2841
F0.1315619945526123
tp2842
a(I1
g3
(g5
S'\xd8\x1c\xd7&eYQ@'
tRp2843
F0.18587708473205566
tp2844
a(I1
g3
(g5
S'\xd0\x10:U\xe5{@@'
tRp2845
F8.6707389354705811
tp2846
a(I1
g3
(g5
S'\xd0\x10:U\xe5{@@'
tRp2847
F0.23707199096679688
tp2848
a(I1
g3
(g5
S'\xd0\x10:U\xe5{@@'
tRp2849
F0.26367712020874023
tp2850
a(I1
g3
(g5
S'\xd0\x10:U\xe5{@@'
tRp2851
F0.2313849925994873
tp2852
a(I1
g3
(g5
S'\xd0\x10:U\xe5{@@'
tRp2853
F0.21818208694458008
tp2854
a(I1
g3
(g5
S'\xd0\x10:U\xe5{@@'
tRp2855
F9.8024230003356934
tp2856
a(I1
g3
(g5
S'\xd0\x10:U\xe5{@@'
tRp2857
F0.20475387573242188
tp2858
a(I1
g3
(g5
S'\xd0\x10:U\xe5{@@'
tRp2859
F0.16941404342651367
tp2860
a(I1
g3
(g5
S'\xd0\x10:U\xe5{@@'
tRp2861
F0.1360321044921875
tp2862
a(I1
g3
(g5
S'\xd0\x10:U\xe5{@@'
tRp2863
F0.16147899627685547
tp2864
a(I1
g3
(g5
S'\xd0\x10:U\xe5{@@'
tRp2865
F10.138926029205322
tp2866
a(I1
g3
(g5
S'\xa0\xf1\xb1F-y%@'
tRp2867
F0.15815997123718262
tp2868
a(I1
g3
(g5
S'\xa0\xf1\xb1F-y%@'
tRp2869
F0.17527508735656738
tp2870
a(I1
g3
(g5
S'\x00\x00\x00\x00\x00\x00\x00\x00'
tRp2871
F0.17435503005981445
tp2872
aa.