(lp1
(lp2
(I3
cnumpy.core.multiarray
scalar
p3
(cnumpy
dtype
p4
(S'f8'
I0
I1
tRp5
(I3
S'<'
NNNI-1
I-1
I0
tbS'\xcc\xa1E\xb6\xf3\x85P@'
tRp6
F0.042447805404663086
tp7
a(I3
g3
(g5
S'\\\xb1\xbf\xec\x9e\xb0R@'
tRp8
F0.092839956283569336
tp9
a(I3
g3
(g5
S'\xcc\xa1E\xb6\xf3\x85P@'
tRp10
F0.056210041046142578
tp11
a(I3
g3
(g5
S'FGr\xf9\x0f\xe7i@'
tRp12
F0.062750816345214844
tp13
a(I3
g3
(g5
S'FGr\xf9\x0f\xe7i@'
tRp14
F0.05126500129699707
tp15
a(I3
g3
(g5
S'\x80|\xd0\xb3YU!@'
tRp16
F4.1874010562896729
tp17
a(I3
g3
(g5
S'\x80|\xd0\xb3YU!@'
tRp18
F0.074394941329956055
tp19
a(I3
g3
(g5
S'\x80|\xd0\xb3YU!@'
tRp20
F0.072675943374633789
tp21
a(I3
g3
(g5
S'\x80|\xd0\xb3YU!@'
tRp22
F0.37401390075683594
tp23
a(I3
g3
(g5
S'\x80|\xd0\xb3YU!@'
tRp24
F0.37167191505432129
tp25
a(I3
g3
(g5
S'\x00\x00\x00\x00\x00\x00\x00\x00'
tRp26
F5.4368438720703125
tp27
aa(lp28
(I3
g3
(g5
S'R\xb8\x1e\x85\xeb\xe9I@'
tRp29
F0.042535066604614258
tp30
a(I3
g3
(g5
S'\xe0O\x8d\x97nB7@'
tRp31
F0.12093782424926758
tp32
a(I3
g3
(g5
S'\xdc\xf9~j\xbc41@'
tRp33
F0.12090206146240234
tp34
a(I3
g3
(g5
S'\xf8\xfd\xd4x\xe9&\x14@'
tRp35
F0.086843967437744141
tp36
a(I3
g3
(g5
S'\xf8\xfd\xd4x\xe9&\x14@'
tRp37
F0.11970400810241699
tp38
a(I3
g3
(g5
S'\xdc\xf9~j\xbc41@'
tRp39
F5.2196929454803467
tp40
a(I3
g3
(g5
S'\xdc\xf9~j\xbc41@'
tRp41
F0.17516303062438965
tp42
a(I3
g3
(g5
S'\xbct\x93\x18\x04V(@'
tRp43
F0.7118840217590332
tp44
a(I3
g3
(g5
S'\x00\x00\x00\x00\x00\x00\x00\x00'
tRp45
F1.0749638080596924
tp46
aa(lp47
(I3
g3
(g5
S'\xb8\x1e\x85\xebQlc@'
tRp48
F0.042402982711791992
tp49
a(I3
g3
(g5
S' \x85\xebQ\xb8\x96U@'
tRp50
F0.12531304359436035
tp51
a(I3
g3
(g5
S'8\xf8\xc2d\xaa\x08m@'
tRp52
F0.1241300106048584
tp53
a(I3
g3
(g5
S'8\xf8\xc2d\xaa\x08m@'
tRp54
F0.047429084777832031
tp55
a(I3
g3
(g5
S'8\xf8\xc2d\xaa\x08m@'
tRp56
F0.049304008483886719
tp57
a(I3
g3
(g5
S'R\xb8\x1e\x85\xebAQ@'
tRp58
F3.7633161544799805
tp59
a(I3
g3
(g5
S'\x08_\x98L\x15\x1cS@'
tRp60
F0.064566850662231445
tp61
a(I3
g3
(g5
S'\x08_\x98L\x15\x1cS@'
tRp62
F0.073875904083251953
tp63
a(I3
g3
(g5
S'\x00\x00\x00\x00\x00\x00\x00\x00'
tRp64
F0.076601982116699219
tp65
aa(lp66
(I3
g3
(g5
S'\x1dZd;\xdfOn@'
tRp67
F0.043107986450195312
tp68
a(I3
g3
(g5
S'6^\xbaI\x0cFf@'
tRp69
F0.11666011810302734
tp70
a(I3
g3
(g5
S'X9\xb4\xc8v*b@'
tRp71
F0.049170970916748047
tp72
a(I3
g3
(g5
S'X9\xb4\xc8v*b@'
tRp73
F0.049201011657714844
tp74
a(I3
g3
(g5
S'X9\xb4\xc8v*b@'
tRp75
F0.049494028091430664
tp76
a(I3
g3
(g5
S'H\xb6\xf3\xfd\xd4X6@'
tRp77
F3.9538800716400146
tp78
a(I3
g3
(g5
S'H\xb6\xf3\xfd\xd4X6@'
tRp79
F0.06984400749206543
tp80
a(I3
g3
(g5
S'\x00\x00\x00\x00\x00\x00\x00\x00'
tRp81
F0.068191051483154297
tp82
aa(lp83
(I3
g3
(g5
S'\x00\x00\x00\x00\x00\x00\x00\x00'
tRp84
F0.041641950607299805
tp85
aa(lp86
(I3
g3
(g5
S'\xbe\x9f\x1a/\xdd\xdcd@'
tRp87
F0.043092966079711914
tp88
a(I3
g3
(g5
S'j\xbct\x93\x18<c@'
tRp89
F0.11910915374755859
tp90
a(I3
g3
(g5
S'j\xbct\x93\x18<c@'
tRp91
F0.1379549503326416
tp92
a(I3
g3
(g5
S'\x1f\x85\xebQ\xb8\xc2b@'
tRp93
F0.11139488220214844
tp94
a(I3
g3
(g5
S'\x1f\x85\xebQ\xb8\xc2b@'
tRp95
F0.056865930557250977
tp96
a(I3
g3
(g5
S'\xa4E\xb6\xf3\xfd4O@'
tRp97
F4.537714958190918
tp98
a(I3
g3
(g5
S'\xa4E\xb6\xf3\xfd4O@'
tRp99
F0.052662134170532227
tp100
a(I3
g3
(g5
S'\xa4E\xb6\xf3\xfd4O@'
tRp101
F0.05397486686706543
tp102
a(I3
g3
(g5
S'\xa4E\xb6\xf3\xfd4O@'
tRp103
F0.055795907974243164
tp104
a(I3
g3
(g5
S'\xa4E\xb6\xf3\xfd4O@'
tRp105
F0.057119846343994141
tp106
a(I3
g3
(g5
S'\xa4E\xb6\xf3\xfd4O@'
tRp107
F5.3719899654388428
tp108
a(I3
g3
(g5
S"\x10-\xb2\x9d\xefg'@"
tRp109
F0.073138952255249023
tp110
a(I3
g3
(g5
S"\x10-\xb2\x9d\xefg'@"
tRp111
F0.075356960296630859
tp112
a(I3
g3
(g5
S"\x10-\xb2\x9d\xefg'@"
tRp113
F0.077807188034057617
tp114
a(I3
g3
(g5
S"\x10-\xb2\x9d\xefg'@"
tRp115
F0.083253145217895508
tp116
a(I3
g3
(g5
S"\x10-\xb2\x9d\xefg'@"
tRp117
F5.1848790645599365
tp118
a(I3
g3
(g5
S"\x10-\xb2\x9d\xefg'@"
tRp119
F0.10719585418701172
tp120
a(I3
g3
(g5
S"\x10-\xb2\x9d\xefg'@"
tRp121
F0.10886597633361816
tp122
a(I3
g3
(g5
S"\x10-\xb2\x9d\xefg'@"
tRp123
F0.11093497276306152
tp124
a(I3
g3
(g5
S"\x10-\xb2\x9d\xefg'@"
tRp125
F0.11174511909484863
tp126
a(I3
g3
(g5
S"\x10-\xb2\x9d\xefg'@"
tRp127
F5.9326238632202148
tp128
a(I3
g3
(g5
S"\x10-\xb2\x9d\xefg'@"
tRp129
F0.12747693061828613
tp130
a(I3
g3
(g5
S"\x10-\xb2\x9d\xefg'@"
tRp131
F0.12934279441833496
tp132
a(I3
g3
(g5
S"\x10-\xb2\x9d\xefg'@"
tRp133
F0.13083696365356445
tp134
a(I3
g3
(g5
S"\x10-\xb2\x9d\xefg'@"
tRp135
F0.13260412216186523
tp136
a(I3
g3
(g5
S'\x1f\x85\xebQ\xb8\xc2b@'
tRp137
F6.5825870037078857
tp138
a(I3
g3
(g5
S'\x1f\x85\xebQ\xb8\xc2b@'
tRp139
F0.085831880569458008
tp140
a(I3
g3
(g5
S'\x1f\x85\xebQ\xb8\xc2b@'
tRp141
F0.08521580696105957
tp142
a(I3
g3
(g5
S'\x1f\x85\xebQ\xb8\xc2b@'
tRp143
F0.08646082878112793
tp144
a(I3
g3
(g5
S'\x1f\x85\xebQ\xb8\xc2b@'
tRp145
F0.088594198226928711
tp146
a(I3
g3
(g5
S"\x10-\xb2\x9d\xefg'@"
tRp147
F7.1901822090148926
tp148
a(I3
g3
(g5
S"\x10-\xb2\x9d\xefg'@"
tRp149
F0.1308598518371582
tp150
a(I3
g3
(g5
S"\x10-\xb2\x9d\xefg'@"
tRp151
F0.13199114799499512
tp152
a(I3
g3
(g5
S"\x10-\xb2\x9d\xefg'@"
tRp153
F0.1336979866027832
tp154
aa(lp155
(I3
g3
(g5
S'&1\x08\xac\x1c*c@'
tRp156
F0.04166102409362793
tp157
a(I3
g3
(g5
S'|j\xbct\x93XP@'
tRp158
F0.11353707313537598
tp159
a(I3
g3
(g5
S'|j\xbct\x93XP@'
tRp160
F0.10194802284240723
tp161
a(I3
g3
(g5
S'Q\xb8\x1e\x85\xeb\xc1l@'
tRp162
F0.16300606727600098
tp163
a(I3
g3
(g5
S'Q\xb8\x1e\x85\xeb\xc1l@'
tRp164
F0.049952030181884766
tp165
a(I3
g3
(g5
S'\x00\x00\x00\x00\x00\x00\x00\x00'
tRp166
F4.0221991539001465
tp167
aa(lp168
(I3
g3
(g5
S'\x00\x00\x00\x00\x00\x00\x00\x00'
tRp169
F0.041798830032348633
tp170
aa(lp171
(I3
g3
(g5
S'?5^\xbaI\xbc[@'
tRp172
F0.041652917861938477
tp173
a(I3
g3
(g5
S'7\x89A`\xe5([@'
tRp174
F0.088605165481567383
tp175
a(I3
g3
(g5
S'\x16\xd9\xce\xf7S\x1bQ@'
tRp176
F0.22640705108642578
tp177
a(I3
g3
(g5
S'+\x87\x16\xd9\xce?_@'
tRp178
F0.11449503898620605
tp179
a(I3
g3
(g5
S'+\x87\x16\xd9\xce?_@'
tRp180
F0.0500030517578125
tp181
a(I3
g3
(g5
S'\x00\x00\x00\x00\x00\x00\x00\x00'
tRp182
F4.2192320823669434
tp183
aa(lp184
(I3
g3
(g5
S'\xd4x\xe9&1H@@'
tRp185
F0.042367935180664062
tp186
a(I3
g3
(g5
S'\x0c\x02+\x87\x16II@'
tRp187
F0.12187409400939941
tp188
a(I3
g3
(g5
S'0\xb2\x9d\xef\xa7\xc6(@'
tRp189
F0.15451407432556152
tp190
a(I3
g3
(g5
S'\x9e\xef\xa7\xc6K\xafT@'
tRp191
F0.059987068176269531
tp192
a(I3
g3
(g5
S'\x9e\xef\xa7\xc6K\xafT@'
tRp193
F0.057537078857421875
tp194
a(I3
g3
(g5
S'\x80\x95C\x8bl\x17C@'
tRp195
F4.0677309036254883
tp196
a(I3
g3
(g5
S'\x00\x00\x00\x00\x00\x00\x00\x00'
tRp197
F0.34764313697814941
tp198
aa(lp199
(I3
g3
(g5
S'\xb8t\x93\x18\x04\x16(@'
tRp200
F0.042695045471191406
tp201
a(I3
g3
(g5
S'\xf8~j\xbct\xd3!@'
tRp202
F0.12435603141784668
tp203
a(I3
g3
(g5
S'8\xb4\xc8v\xbe\xdf4@'
tRp204
F0.059846878051757812
tp205
a(I3
g3
(g5
S'"\xdb\xf9~j\x8cG@'
tRp206
F0.06163477897644043
tp207
a(I3
g3
(g5
S'"\xdb\xf9~j\x8cG@'
tRp208
F0.049865961074829102
tp209
a(I3
g3
(g5
S'\xd8\xce\xf7S\xe3e$@'
tRp210
F4.3770840167999268
tp211
a(I3
g3
(g5
S'\x00\x00\x00\x00\x00\x00\x00\x00'
tRp212
F0.086030960083007812
tp213
aa(lp214
(I3
g3
(g5
S'\x12\x83\xc0\xca\xa1kp@'
tRp215
F0.042108058929443359
tp216
a(I3
g3
(g5
S'l\xe7\xfb\xa9\xf1\x1ed@'
tRp217
F0.10881590843200684
tp218
a(I3
g3
(g5
S'l\xe7\xfb\xa9\xf1\x1ed@'
tRp219
F0.047239065170288086
tp220
a(I3
g3
(g5
S'\x86\x16\xd9\xce\xf7;h@'
tRp221
F0.13973689079284668
tp222
a(I3
g3
(g5
S'\x86\x16\xd9\xce\xf7;h@'
tRp223
F0.050056934356689453
tp224
a(I3
g3
(g5
S'\x86\x16\xd9\xce\xf7;h@'
tRp225
F4.3267960548400879
tp226
a(I3
g3
(g5
S'\x86\x16\xd9\xce\xf7;h@'
tRp227
F0.054361104965209961
tp228
a(I3
g3
(g5
S'\x86\x16\xd9\xce\xf7;h@'
tRp229
F0.055754899978637695
tp230
a(I3
g3
(g5
S'\x86\x16\xd9\xce\xf7;h@'
tRp231
F0.05674290657043457
tp232
a(I3
g3
(g5
S'\x86\x16\xd9\xce\xf7;h@'
tRp233
F0.058528900146484375
tp234
a(I3
g3
(g5
S'\xb0\x1e\x85\xebQ\xf8+@'
tRp235
F4.7639739513397217
tp236
a(I3
g3
(g5
S'\xb0\x1e\x85\xebQ\xf8+@'
tRp237
F0.092233180999755859
tp238
a(I3
g3
(g5
S'\xb0\x1e\x85\xebQ\xf8+@'
tRp239
F0.094216823577880859
tp240
a(I3
g3
(g5
S'\xb0\x1e\x85\xebQ\xf8+@'
tRp241
F0.097712993621826172
tp242
a(I3
g3
(g5
S'\xb0\x1e\x85\xebQ\xf8+@'
tRp243
F0.099207878112792969
tp244
a(I3
g3
(g5
S'\xb0\x1e\x85\xebQ\xf8+@'
tRp245
F5.2241129875183105
tp246
a(I3
g3
(g5
S'\xb0\x1e\x85\xebQ\xf8+@'
tRp247
F0.11236000061035156
tp248
a(I3
g3
(g5
S'\xb0\x1e\x85\xebQ\xf8+@'
tRp249
F0.11446905136108398
tp250
a(I3
g3
(g5
S'\xb0\x1e\x85\xebQ\xf8+@'
tRp251
F0.11568593978881836
tp252
a(I3
g3
(g5
S'\xb0\x1e\x85\xebQ\xf8+@'
tRp253
F0.10723876953125
tp254
a(I3
g3
(g5
S'\xb0\x1e\x85\xebQ\xf8+@'
tRp255
F5.8554689884185791
tp256
a(I3
g3
(g5
S'\xb0\x1e\x85\xebQ\xf8+@'
tRp257
F0.12081503868103027
tp258
a(I3
g3
(g5
S'\xb0\x1e\x85\xebQ\xf8+@'
tRp259
F0.12250304222106934
tp260
a(I3
g3
(g5
S'\xb0\x1e\x85\xebQ\xf8+@'
tRp261
F0.10502409934997559
tp262
a(I3
g3
(g5
S'\xb0\x1e\x85\xebQ\xf8+@'
tRp263
F0.12257194519042969
tp264
a(I3
g3
(g5
S'\xb0\x1e\x85\xebQ\xf8+@'
tRp265
F6.5869438648223877
tp266
a(I3
g3
(g5
S'\xb0\x1e\x85\xebQ\xf8+@'
tRp267
F0.12307906150817871
tp268
a(I3
g3
(g5
S'\xb0\x1e\x85\xebQ\xf8+@'
tRp269
F0.12549614906311035
tp270
a(I3
g3
(g5
S'\xb0\x1e\x85\xebQ\xf8+@'
tRp271
F0.1267850399017334
tp272
a(I3
g3
(g5
S'\xb0\x1e\x85\xebQ\xf8+@'
tRp273
F0.12791204452514648
tp274
a(I3
g3
(g5
S'\xb0\x1e\x85\xebQ\xf8+@'
tRp275
F7.2208590507507324
tp276
a(I3
g3
(g5
S'\xb0\x1e\x85\xebQ\xf8+@'
tRp277
F0.12228703498840332
tp278
a(I3
g3
(g5
S'\xb0\x1e\x85\xebQ\xf8+@'
tRp279
F0.12371706962585449
tp280
a(I3
g3
(g5
S'\xb0\x1e\x85\xebQ\xf8+@'
tRp281
F0.12559390068054199
tp282
aa(lp283
(I3
g3
(g5
S'k\xbct\x93\x18\\d@'
tRp284
F0.042104005813598633
tp285
a(I3
g3
(g5
S'u\x93\x18\x04V\xcaT@'
tRp286
F0.1057429313659668
tp287
a(I3
g3
(g5
S'\xe0O\x8d\x97n\x92+@'
tRp288
F0.12240004539489746
tp289
a(I3
g3
(g5
S'\xe0O\x8d\x97n\x92+@'
tRp290
F0.054925918579101562
tp291
a(I3
g3
(g5
S'\xe0O\x8d\x97n\x92+@'
tRp292
F0.060899972915649414
tp293
a(I3
g3
(g5
S'\xcf\xf7S\xe3\xa5\x9fS@'
tRp294
F3.754889965057373
tp295
a(I3
g3
(g5
S'\xcf\xf7S\xe3\xa5\x9fS@'
tRp296
F0.053431034088134766
tp297
a(I3
g3
(g5
S'\xcf\xf7S\xe3\xa5\x9fS@'
tRp298
F0.054907798767089844
tp299
a(I3
g3
(g5
S'\xcf\xf7S\xe3\xa5\x9fS@'
tRp300
F0.056605815887451172
tp301
a(I3
g3
(g5
S'\xcf\xf7S\xe3\xa5\x9fS@'
tRp302
F0.058176994323730469
tp303
a(I3
g3
(g5
S'\x00\x00\x00\x00\x00\x00\x00\x00'
tRp304
F4.9961202144622803
tp305
aa(lp306
(I3
g3
(g5
S'\x83\xc0\xca\xa1Efg@'
tRp307
F0.042786121368408203
tp308
a(I3
g3
(g5
S'\x83\xc0\xca\xa1EFe@'
tRp309
F0.11675906181335449
tp310
a(I3
g3
(g5
S'\x83\xc0\xca\xa1EFe@'
tRp311
F0.17469191551208496
tp312
a(I3
g3
(g5
S'\xe3\xa5\x9b\xc4 `g@'
tRp313
F0.066583871841430664
tp314
a(I3
g3
(g5
S'\xe3\xa5\x9b\xc4 `g@'
tRp315
F0.056780099868774414
tp316
a(I3
g3
(g5
S'\xe3\xa5\x9b\xc4 `g@'
tRp317
F4.0319030284881592
tp318
a(I3
g3
(g5
S'\xe3\xa5\x9b\xc4 `g@'
tRp319
F0.053506851196289062
tp320
a(I3
g3
(g5
S'\xe3\xa5\x9b\xc4 `g@'
tRp321
F0.055143117904663086
tp322
a(I3
g3
(g5
S'\xe3\xa5\x9b\xc4 `g@'
tRp323
F0.057260036468505859
tp324
a(I3
g3
(g5
S'\xe3\xa5\x9b\xc4 `g@'
tRp325
F0.059400081634521484
tp326
a(I3
g3
(g5
S'\x08\xac\x1cZdk\\@'
tRp327
F4.6700131893157959
tp328
a(I3
g3
(g5
S'\xbaI\x0c\x02+\xe7P@'
tRp329
F0.070017099380493164
tp330
a(I3
g3
(g5
S'\x00\x00\x00\x00\x00\x00\x00\x00'
tRp331
F0.08398890495300293
tp332
aa(lp333
(I3
g3
(g5
S'\xc6\xdc\xb5\x84|(W@'
tRp334
F0.042068958282470703
tp335
a(I3
g3
(g5
S'0\x08\xac\x1cZ\xc4L@'
tRp336
F0.12578296661376953
tp337
a(I3
g3
(g5
S'0\x08\xac\x1cZ\xc4L@'
tRp338
F0.096281051635742188
tp339
a(I3
g3
(g5
S'0\x08\xac\x1cZ\xc4L@'
tRp340
F0.13412594795227051
tp341
a(I3
g3
(g5
S'O\xaf\x94e\x88GZ@'
tRp342
F0.14881300926208496
tp343
a(I3
g3
(g5
S'0\x08\xac\x1cZ\xc4L@'
tRp344
F3.7614648342132568
tp345
a(I3
g3
(g5
S'\x00\x00\x00\x00\x00\x00\x00\x00'
tRp346
F0.067378997802734375
tp347
aa(lp348
(I3
g3
(g5
S'\xbct\x93\x18\x046S@'
tRp349
F0.042067050933837891
tp350
a(I3
g3
(g5
S'\xc8v\xbe\x9f\x1a/2@'
tRp351
F0.092829227447509766
tp352
a(I3
g3
(g5
S'H\x9d\x80&\xc2\xc6=@'
tRp353
F0.050420999526977539
tp354
a(I3
g3
(g5
S'$(~\x8c\xb9\xe3`@'
tRp355
F0.17108607292175293
tp356
a(I3
g3
(g5
S'$(~\x8c\xb9\xe3`@'
tRp357
F0.055382013320922852
tp358
a(I3
g3
(g5
S'\xc8v\xbe\x9f\x1a/2@'
tRp359
F3.8256399631500244
tp360
a(I3
g3
(g5
S'\xc8v\xbe\x9f\x1a/2@'
tRp361
F0.053137063980102539
tp362
a(I3
g3
(g5
S'\xc8v\xbe\x9f\x1a/2@'
tRp363
F0.05497288703918457
tp364
a(I3
g3
(g5
S'\xc8v\xbe\x9f\x1a/2@'
tRp365
F0.056457042694091797
tp366
a(I3
g3
(g5
S'\xc8v\xbe\x9f\x1a/2@'
tRp367
F0.059247970581054688
tp368
a(I3
g3
(g5
S'\x00\xe7\x8c(\xed\x8d5@'
tRp369
F4.5976850986480713
tp370
a(I3
g3
(g5
S'\xc0\x81sF\x94\xf6\n@'
tRp371
F0.077237129211425781
tp372
a(I3
g3
(g5
S'\xc0\x81sF\x94\xf6\n@'
tRp373
F0.46775412559509277
tp374
a(I3
g3
(g5
S'\x00\x00\x00\x00\x00\x00\x00\x00'
tRp375
F1.1295549869537354
tp376
aa(lp377
(I3
g3
(g5
S'\x17\xd9\xce\xf7S/a@'
tRp378
F0.042421102523803711
tp379
a(I3
g3
(g5
S'\xf4\xfd\xd4x\xe9f@@'
tRp380
F0.13412094116210938
tp381
a(I3
g3
(g5
S'\x00\x00\x00\x00\x00\x00\x00\x00'
tRp382
F0.12037086486816406
tp383
aa(lp384
(I3
g3
(g5
S'\x9e\xcd\xaa\xcf\xd5\xe6^@'
tRp385
F0.042268991470336914
tp386
a(I3
g3
(g5
S'\x92\xcb\x7fH\xbf\xe5W@'
tRp387
F0.098816871643066406
tp388
a(I3
g3
(g5
S'\x00\xfd\xf6u\xe0\x9c\xf3?'
tRp389
F0.050458908081054688
tp390
a(I3
g3
(g5
S'\x80&\xc2\x86\xa7WJ@'
tRp391
F0.17091798782348633
tp392
a(I3
g3
(g5
S'\x80&\xc2\x86\xa7WJ@'
tRp393
F0.060650110244750977
tp394
a(I3
g3
(g5
S'\xd2Mb\x10XiG@'
tRp395
F4.240947961807251
tp396
a(I3
g3
(g5
S' \x06\x81\x95C\x8b\x12@'
tRp397
F0.63341689109802246
tp398
a(I3
g3
(g5
S'`\xc5\xfe\xb2{r\x17@'
tRp399
F0.82113909721374512
tp400
a(I3
g3
(g5
S'`\xc5\xfe\xb2{r\x17@'
tRp401
F0.42525005340576172
tp402
a(I3
g3
(g5
S'`\xc5\xfe\xb2{r\x17@'
tRp403
F0.5264439582824707
tp404
a(I3
g3
(g5
S'\x00\xfd\xf6u\xe0\x9c\xf3?'
tRp405
F7.7295958995819092
tp406
a(I3
g3
(g5
S'\x00\x00\x00\x00\x00\x00\x00\x00'
tRp407
F0.38076114654541016
tp408
aa(lp409
(I3
g3
(g5
S'\xb0rh\x91\xed\x8c1@'
tRp410
F0.042700052261352539
tp411
a(I3
g3
(g5
S'\xb0rh\x91\xed\x8c1@'
tRp412
F0.11382508277893066
tp413
a(I3
g3
(g5
S'\xb0rh\x91\xed\x8c1@'
tRp414
F0.12510204315185547
tp415
a(I3
g3
(g5
S'\xdc$\x06\x81\x95C$@'
tRp416
F0.14854097366333008
tp417
a(I3
g3
(g5
S'\xdc$\x06\x81\x95C$@'
tRp418
F0.16684508323669434
tp419
a(I3
g3
(g5
S'\x00\x00\x00\x00\x00\x00\x00\x00'
tRp420
F5.1525731086730957
tp421
aa(lp422
(I3
g3
(g5
S'33333[[@'
tRp423
F0.04283595085144043
tp424
a(I3
g3
(g5
S'33333[[@'
tRp425
F0.1219179630279541
tp426
a(I3
g3
(g5
S'\xf6(\\\x8f\xc29d@'
tRp427
F0.13141298294067383
tp428
a(I3
g3
(g5
S'\xf6(\\\x8f\xc29d@'
tRp429
F0.048346996307373047
tp430
a(I3
g3
(g5
S'\xf6(\\\x8f\xc29d@'
tRp431
F0.053292989730834961
tp432
a(I3
g3
(g5
S'\x00\x00\x00\x00\x00\x00\x00\x00'
tRp433
F4.0138890743255615
tp434
aa.