(lp1
(lp2
(I6
cnumpy.core.multiarray
scalar
p3
(cnumpy
dtype
p4
(S'f8'
I0
I1
tRp5
(I3
S'<'
NNNI-1
I-1
I0
tbS'\x1eZd;\xdfCa@'
tRp6
F0.089584827423095703
tp7
a(I6
g3
(g5
S'\x98n\x12\x83\xc0\x8e`@'
tRp8
F0.23995184898376465
tp9
a(I6
g3
(g5
S'\x00\x00\x00\x00\x00\x00\x00\x00'
tRp10
F0.28315281867980957
tp11
aa(lp12
(I6
g3
(g5
S'R\xb8\x1e\x85\xeb\xe9I@'
tRp13
F0.089116096496582031
tp14
a(I6
g3
(g5
S'\x00\x00\x00\x00\x00\x00\x00\x00'
tRp15
F0.33147311210632324
tp16
aa(lp17
(I6
g3
(g5
S'\x18\xd9\xce\xf7S\xb3U@'
tRp18
F0.089093923568725586
tp19
a(I6
g3
(g5
S'\x00\x00\x00\x00\x00\x00\x00\x00'
tRp20
F0.16755199432373047
tp21
aa(lp22
(I6
g3
(g5
S'\xf6(\\\x8f\xc2\xc5P@'
tRp23
F0.088582038879394531
tp24
a(I6
g3
(g5
S'\x88\x16\xd9\xce\xf7[V@'
tRp25
F0.2438819408416748
tp26
a(I6
g3
(g5
S'\x00\x00\x00\x00\x00\x00\x00\x00'
tRp27
F0.41574406623840332
tp28
aa(lp29
(I6
g3
(g5
S'F\xb6\xf3\xfd\xd4\x18?@'
tRp30
F0.088682174682617188
tp31
a(I6
g3
(g5
S'\x0e-\xb2\x9d\xef\x87Q@'
tRp32
F0.19312191009521484
tp33
a(I6
g3
(g5
S'\xe8\xfb\xa9\xf1\xd2]S@'
tRp34
F0.18133711814880371
tp35
a(I6
g3
(g5
S'\xe8\xfb\xa9\xf1\xd2]S@'
tRp36
F0.23235201835632324
tp37
a(I6
g3
(g5
S'\xe8\xfb\xa9\xf1\xd2]S@'
tRp38
F0.25765109062194824
tp39
a(I6
g3
(g5
S'\x00\x00\x00\x00\x00\x00\x00\x00'
tRp40
F7.2230520248413086
tp41
aa(lp42
(I6
g3
(g5
S'\x9a\x99\x99\x99\x99\xc5a@'
tRp43
F0.08915400505065918
tp44
a(I6
g3
(g5
S'\x00\x00\x00\x00\x00\x00\x00\x00'
tRp45
F0.2012939453125
tp46
aa(lp47
(I6
g3
(g5
S'&1\x08\xac\x1c*c@'
tRp48
F0.089030981063842773
tp49
a(I6
g3
(g5
S'I\x0c\x02+\x87\x8aa@'
tRp50
F0.22084188461303711
tp51
a(I6
g3
(g5
S'\xce\xf7S\xe3\xa5\xfbU@'
tRp52
F0.27494692802429199
tp53
a(I6
g3
(g5
S'Q\xb8\x1e\x85\xeb\xc1l@'
tRp54
F0.31502795219421387
tp55
a(I6
g3
(g5
S'Q\xb8\x1e\x85\xeb\xc1l@'
tRp56
F0.10633397102355957
tp57
a(I6
g3
(g5
S'|j\xbct\x93XP@'
tRp58
F9.9014639854431152
tp59
a(I6
g3
(g5
S'|j\xbct\x93XP@'
tRp60
F0.94547390937805176
tp61
a(I6
g3
(g5
S'|j\xbct\x93XP@'
tRp62
F0.94753694534301758
tp63
a(I6
g3
(g5
S'|j\xbct\x93XP@'
tRp64
F0.94726800918579102
tp65
a(I6
g3
(g5
S'|j\xbct\x93XP@'
tRp66
F0.95468807220458984
tp67
a(I6
g3
(g5
S'|j\xbct\x93XP@'
tRp68
F10.020480871200562
tp69
a(I6
g3
(g5
S'|j\xbct\x93XP@'
tRp70
F0.96117997169494629
tp71
a(I6
g3
(g5
S'|j\xbct\x93XP@'
tRp72
F0.96619415283203125
tp73
a(I6
g3
(g5
S'|j\xbct\x93XP@'
tRp74
F0.96495318412780762
tp75
a(I6
g3
(g5
S'|j\xbct\x93XP@'
tRp76
F0.96928596496582031
tp77
a(I6
g3
(g5
S'|j\xbct\x93XP@'
tRp78
F12.054963827133179
tp79
a(I6
g3
(g5
S'|j\xbct\x93XP@'
tRp80
F0.97295713424682617
tp81
a(I6
g3
(g5
S'|j\xbct\x93XP@'
tRp82
F1.4403221607208252
tp83
a(I6
g3
(g5
S'|j\xbct\x93XP@'
tRp84
F1.4360918998718262
tp85
a(I6
g3
(g5
S'|j\xbct\x93XP@'
tRp86
F1.4632179737091064
tp87
a(I6
g3
(g5
S'|j\xbct\x93XP@'
tRp88
F15.029162883758545
tp89
a(I6
g3
(g5
S'|j\xbct\x93XP@'
tRp90
F2.5372781753540039
tp91
a(I6
g3
(g5
S'|j\xbct\x93XP@'
tRp92
F2.5379810333251953
tp93
a(I6
g3
(g5
S'|j\xbct\x93XP@'
tRp94
F2.548961877822876
tp95
a(I6
g3
(g5
S'|j\xbct\x93XP@'
tRp96
F2.5549130439758301
tp97
a(I6
g3
(g5
S'Q\xb8\x1e\x85\xeb\xc1l@'
tRp98
F13.722858905792236
tp99
a(I6
g3
(g5
S'Q\xb8\x1e\x85\xeb\xc1l@'
tRp100
F0.20270013809204102
tp101
a(I6
g3
(g5
S'Q\xb8\x1e\x85\xeb\xc1l@'
tRp102
F0.2071998119354248
tp103
a(I6
g3
(g5
S'Q\xb8\x1e\x85\xeb\xc1l@'
tRp104
F0.21166110038757324
tp105
a(I6
g3
(g5
S'Q\xb8\x1e\x85\xeb\xc1l@'
tRp106
F0.21673011779785156
tp107
a(I6
g3
(g5
S'|j\xbct\x93XP@'
tRp108
F16.481402158737183
tp109
a(I6
g3
(g5
S'|j\xbct\x93XP@'
tRp110
F1.7324340343475342
tp111
a(I6
g3
(g5
S'|j\xbct\x93XP@'
tRp112
F1.8135709762573242
tp113
a(I6
g3
(g5
S'|j\xbct\x93XP@'
tRp114
F1.8262848854064941
tp115
a(I6
g3
(g5
S'|j\xbct\x93XP@'
tRp116
F1.8943839073181152
tp117
a(I6
g3
(g5
S'|j\xbct\x93XP@'
tRp118
F17.703751802444458
tp119
a(I6
g3
(g5
S'|j\xbct\x93XP@'
tRp120
F2.4650089740753174
tp121
a(I6
g3
(g5
S'|j\xbct\x93XP@'
tRp122
F1.776515007019043
tp123
a(I6
g3
(g5
S'|j\xbct\x93XP@'
tRp124
F1.7681951522827148
tp125
a(I6
g3
(g5
S'|j\xbct\x93XP@'
tRp126
F1.8434860706329346
tp127
a(I6
g3
(g5
S'|j\xbct\x93XP@'
tRp128
F19.40278697013855
tp129
a(I6
g3
(g5
S'|j\xbct\x93XP@'
tRp130
F2.2388169765472412
tp131
a(I6
g3
(g5
S'|j\xbct\x93XP@'
tRp132
F2.2256898880004883
tp133
a(I6
g3
(g5
S'|j\xbct\x93XP@'
tRp134
F2.2396731376647949
tp135
a(I6
g3
(g5
S'|j\xbct\x93XP@'
tRp136
F2.2381949424743652
tp137
a(I6
g3
(g5
S'|j\xbct\x93XP@'
tRp138
F20.66996693611145
tp139
a(I6
g3
(g5
S'|j\xbct\x93XP@'
tRp140
F1.8461399078369141
tp141
a(I6
g3
(g5
S'|j\xbct\x93XP@'
tRp142
F1.8457210063934326
tp143
a(I6
g3
(g5
S'|j\xbct\x93XP@'
tRp144
F1.8513031005859375
tp145
a(I6
g3
(g5
S'|j\xbct\x93XP@'
tRp146
F1.8583939075469971
tp147
aa(lp148
(I6
g3
(g5
S'(\\\x8f\xc2\xf5\xd8X@'
tRp149
F0.089107036590576172
tp150
a(I6
g3
(g5
S'\xc0\xca\xa1E\xb6\xaba@'
tRp151
F0.20133590698242188
tp152
a(I6
g3
(g5
S'\xc0\xca\xa1E\xb6\xaba@'
tRp153
F0.097313880920410156
tp154
a(I6
g3
(g5
S'\xc0\xca\xa1E\xb6\xaba@'
tRp155
F0.10584521293640137
tp156
a(I6
g3
(g5
S'\xc0\xca\xa1E\xb6\xaba@'
tRp157
F0.10632705688476562
tp158
a(I6
g3
(g5
S'H\x0c\x02+\x87\x16C@'
tRp159
F5.5474519729614258
tp160
a(I6
g3
(g5
S'\xc0\x17&S\x05k@@'
tRp161
F0.19259786605834961
tp162
a(I6
g3
(g5
S'\xc0\x17&S\x05k@@'
tRp163
F0.23140907287597656
tp164
a(I6
g3
(g5
S'\xc0\x17&S\x05k@@'
tRp165
F0.23620009422302246
tp166
a(I6
g3
(g5
S'\xc0\x17&S\x05k@@'
tRp167
F0.24218082427978516
tp168
a(I6
g3
(g5
S'\xc0\x17&S\x05k@@'
tRp169
F6.8086109161376953
tp170
a(I6
g3
(g5
S'\xc0\x17&S\x05k@@'
tRp171
F0.20447611808776855
tp172
a(I6
g3
(g5
S'\xc0\x17&S\x05k@@'
tRp173
F0.20931482315063477
tp174
a(I6
g3
(g5
S'\xc0\x17&S\x05k@@'
tRp175
F0.4572451114654541
tp176
a(I6
g3
(g5
S'\xc0\x17&S\x05k@@'
tRp177
F0.21973896026611328
tp178
a(I6
g3
(g5
S'\xc0\x17&S\x05k@@'
tRp179
F8.2036550045013428
tp180
a(I6
g3
(g5
S'\xc0\x17&S\x05k@@'
tRp181
F0.27656793594360352
tp182
a(I6
g3
(g5
S'\xc0\x17&S\x05k@@'
tRp183
F0.26866602897644043
tp184
a(I6
g3
(g5
S'\xc0\x17&S\x05k@@'
tRp185
F0.27472996711730957
tp186
a(I6
g3
(g5
S'\xc0\x17&S\x05k@@'
tRp187
F0.28978896141052246
tp188
a(I6
g3
(g5
S'\xc0\x17&S\x05k@@'
tRp189
F9.4985580444335938
tp190
a(I6
g3
(g5
S'\xc0\x17&S\x05k@@'
tRp191
F0.25212192535400391
tp192
a(I6
g3
(g5
S'\xc0\x17&S\x05k@@'
tRp193
F0.25687885284423828
tp194
a(I6
g3
(g5
S'\xc0\x17&S\x05k@@'
tRp195
F0.2611851692199707
tp196
a(I6
g3
(g5
S'\xc0\x17&S\x05k@@'
tRp197
F0.26581096649169922
tp198
a(I6
g3
(g5
S'\xc0\x17&S\x05k@@'
tRp199
F10.802125930786133
tp200
a(I6
g3
(g5
S'\x00\x00\x00\x00\x00\x00\x00\x00'
tRp201
F0.66721105575561523
tp202
aa(lp203
(I6
g3
(g5
S'\x06\x81\x95C\x8b\xe4`@'
tRp204
F0.089555978775024414
tp205
a(I6
g3
(g5
S'\x00\x81\x95C\x8bl\x02@'
tRp206
F0.20650506019592285
tp207
a(I6
g3
(g5
S'+\x87\x16\xd9\xce?_@'
tRp208
F0.25489616394042969
tp209
a(I6
g3
(g5
S'+\x87\x16\xd9\xce?_@'
tRp210
F0.22031092643737793
tp211
a(I6
g3
(g5
S'+\x87\x16\xd9\xce?_@'
tRp212
F0.24860715866088867
tp213
a(I6
g3
(g5
S'\x00\x81\x95C\x8bl\x02@'
tRp214
F6.6862409114837646
tp215
a(I6
g3
(g5
S'\x00\x81\x95C\x8bl\x02@'
tRp216
F0.17343688011169434
tp217
a(I6
g3
(g5
S'\x1e\x85\xebQ\xb8\xaeQ@'
tRp218
F0.15423107147216797
tp219
a(I6
g3
(g5
S'\x00\x81\x95C\x8bl\x02@'
tRp220
F2.5180020332336426
tp221
a(I6
g3
(g5
S'\xf5(\\\x8f\xc2\xadP@'
tRp222
F1.0421938896179199
tp223
a(I6
g3
(g5
S'\x00\x00\x00\x00\x00\x00\x00\x00'
tRp224
F18.93346905708313
tp225
aa(lp226
(I6
g3
(g5
S'7\x89A`\xe5p_@'
tRp227
F0.089457035064697266
tp228
a(I6
g3
(g5
S'\x18\x04V\x0e-\x82K@'
tRp229
F0.20729899406433105
tp230
a(I6
g3
(g5
S'\x18\x04V\x0e-\x82K@'
tRp231
F0.2887570858001709
tp232
a(I6
g3
(g5
S'\x9e\xef\xa7\xc6K\xafT@'
tRp233
F0.30470895767211914
tp234
a(I6
g3
(g5
S'\x9e\xef\xa7\xc6K\xafT@'
tRp235
F0.34912896156311035
tp236
a(I6
g3
(g5
S'\x00\x00\x00\x00\x00\x00\x00\x00'
tRp237
F1748.5279080867767
tp238
aa(lp239
(I6
g3
(g5
S'\x00\x00\x00\x00\x00\x00\x00\x00'
tRp240
F0.089132070541381836
tp241
aa(lp242
(I6
g3
(g5
S'\x00\x00\x00\x00\x00\x00\x00\x00'
tRp243
F0.089219093322753906
tp244
aa(lp245
(I6
g3
(g5
S'\x19\x04V\x0e-4d@'
tRp246
F0.08878016471862793
tp247
a(I6
g3
(g5
S'\xb9\x1e\x85\xebQ\x10W@'
tRp248
F0.22849321365356445
tp249
a(I6
g3
(g5
S'\xb9\x1e\x85\xebQ\x10W@'
tRp250
F0.097285985946655273
tp251
a(I6
g3
(g5
S'\xb9\x1e\x85\xebQ\x10W@'
tRp252
F0.10084199905395508
tp253
a(I6
g3
(g5
S'\xb9\x1e\x85\xebQ\x10W@'
tRp254
F0.10590100288391113
tp255
a(I6
g3
(g5
S'w\xbe\x9f\x1a/}P@'
tRp256
F5.5459399223327637
tp257
a(I6
g3
(g5
S'sh\x91\xed|\xefS@'
tRp258
F0.19121694564819336
tp259
a(I6
g3
(g5
S'sh\x91\xed|\xefS@'
tRp260
F0.16142106056213379
tp261
a(I6
g3
(g5
S'\x00\x00\x00\x00\x00\x00\x00\x00'
tRp262
F0.19421887397766113
tp263
aa(lp264
(I6
g3
(g5
S'\xfc\xa9\xf1\xd2MBL@'
tRp265
F0.089203119277954102
tp266
a(I6
g3
(g5
S'\x00\x00\x00\x00\x00\x00\x00\x00'
tRp267
F0.17043280601501465
tp268
aa(lp269
(I6
g3
(g5
S'\x12\x14?\xc6\xdc\xad_@'
tRp270
F0.089243888854980469
tp271
a(I6
g3
(g5
S'Q\xda\x1b|a\xbeP@'
tRp272
F0.12157893180847168
tp273
a(I6
g3
(g5
S'Q\xda\x1b|a\xbeP@'
tRp274
F0.30644512176513672
tp275
a(I6
g3
(g5
S'O\xaf\x94e\x88GZ@'
tRp276
F0.23281693458557129
tp277
a(I6
g3
(g5
S'O\xaf\x94e\x88GZ@'
tRp278
F0.37058806419372559
tp279
a(I6
g3
(g5
S'\x00\x00\x00\x00\x00\x00\x00\x00'
tRp280
F10.367280006408691
tp281
aa(lp282
(I6
g3
(g5
S'\xc0\x81sF\x94\xf6\n@'
tRp283
F0.089233160018920898
tp284
a(I6
g3
(g5
S':#J{\x83\xffQ@'
tRp285
F0.45395088195800781
tp286
a(I6
g3
(g5
S'$(~\x8c\xb9\xe3`@'
tRp287
F0.25317287445068359
tp288
a(I6
g3
(g5
S'$(~\x8c\xb9\xe3`@'
tRp289
F0.23074698448181152
tp290
a(I6
g3
(g5
S'$(~\x8c\xb9\xe3`@'
tRp291
F0.23294281959533691
tp292
a(I6
g3
(g5
S'\x00\xe7\x8c(\xed\x8d5@'
tRp293
F14.808964967727661
tp294
a(I6
g3
(g5
S'\x88l\xe7\xfb\xa9q @'
tRp295
F6.791391134262085
tp296
a(I6
g3
(g5
S'\x00\x00\x00\x00\x00\x00\x00\x00'
tRp297
F3.1066389083862305
tp298
aa(lp299
(I6
g3
(g5
S'\x17\xd9\xce\xf7S/a@'
tRp300
F0.089401960372924805
tp301
a(I6
g3
(g5
S'\xb7\xf3\xfd\xd4x\xd9[@'
tRp302
F0.24020600318908691
tp303
a(I6
g3
(g5
S'\x9c\x99\x99\x99\x99\x99A@'
tRp304
F0.3203740119934082
tp305
a(I6
g3
(g5
S'\x9c\x99\x99\x99\x99\x99A@'
tRp306
F0.23252010345458984
tp307
a(I6
g3
(g5
S'\x9c\x99\x99\x99\x99\x99A@'
tRp308
F0.23662495613098145
tp309
a(I6
g3
(g5
S'\x9c\x99\x99\x99\x99\x99A@'
tRp310
F8.8531999588012695
tp311
a(I6
g3
(g5
S'\x9c\x99\x99\x99\x99\x99A@'
tRp312
F0.24715685844421387
tp313
a(I6
g3
(g5
S'\x9c\x99\x99\x99\x99\x99A@'
tRp314
F0.30813384056091309
tp315
a(I6
g3
(g5
S'\x9c\x99\x99\x99\x99\x99A@'
tRp316
F0.26303791999816895
tp317
a(I6
g3
(g5
S'\x9c\x99\x99\x99\x99\x99A@'
tRp318
F0.26747894287109375
tp319
a(I6
g3
(g5
S'\x9c\x99\x99\x99\x99\x99A@'
tRp320
F10.463284015655518
tp321
a(I6
g3
(g5
S'\x9c\x99\x99\x99\x99\x99A@'
tRp322
F0.136627197265625
tp323
a(I6
g3
(g5
S'\x9c\x99\x99\x99\x99\x99A@'
tRp324
F0.14023804664611816
tp325
a(I6
g3
(g5
S'\x9c\x99\x99\x99\x99\x99A@'
tRp326
F0.14448308944702148
tp327
a(I6
g3
(g5
S'\x9c\x99\x99\x99\x99\x99A@'
tRp328
F0.14859294891357422
tp329
a(I6
g3
(g5
S'\x00\x00\x00\x00\x00\x00\x00\x00'
tRp330
F12.057826042175293
tp331
aa(lp332
(I6
g3
(g5
S'\xf4\xdb\xd7\x81s\x0eY@'
tRp333
F0.088995933532714844
tp334
a(I6
g3
(g5
S'`\xc5\xfe\xb2{r\x17@'
tRp335
F0.17906904220581055
tp336
a(I6
g3
(g5
S'\x00\x00\x00\x00\x00\x00\x00\x00'
tRp337
F0.61532211303710938
tp338
aa(lp339
(I6
g3
(g5
S'\xb0rh\x91\xed\x8c1@'
tRp340
F0.088883876800537109
tp341
a(I6
g3
(g5
S'\xb0rh\x91\xed\x8c1@'
tRp342
F0.25322794914245605
tp343
a(I6
g3
(g5
S'\x08\x81\x95C\x8b\xac\x1d@'
tRp344
F0.23320794105529785
tp345
a(I6
g3
(g5
S'xz\xa5,ClP@'
tRp346
F0.28603887557983398
tp347
a(I6
g3
(g5
S'xz\xa5,ClP@'
tRp348
F0.10569596290588379
tp349
a(I6
g3
(g5
S'\xb0rh\x91\xed\x8c1@'
tRp350
F11.189579963684082
tp351
a(I6
g3
(g5
S'\xb0rh\x91\xed\x8c1@'
tRp352
F1.9483528137207031
tp353
a(I6
g3
(g5
S'\xb0rh\x91\xed\x8c1@'
tRp354
F1.9438591003417969
tp355
a(I6
g3
(g5
S'\xb0rh\x91\xed\x8c1@'
tRp356
F1.9654879570007324
tp357
a(I6
g3
(g5
S'\xb0rh\x91\xed\x8c1@'
tRp358
F1.9500758647918701
tp359
a(I6
g3
(g5
S'\xb0rh\x91\xed\x8c1@'
tRp360
F12.00750207901001
tp361
a(I6
g3
(g5
S'\xb0rh\x91\xed\x8c1@'
tRp362
F2.4827799797058105
tp363
a(I6
g3
(g5
S'\xb0rh\x91\xed\x8c1@'
tRp364
F2.1580359935760498
tp365
a(I6
g3
(g5
S'\xb0rh\x91\xed\x8c1@'
tRp366
F2.099869966506958
tp367
a(I6
g3
(g5
S'\xb0rh\x91\xed\x8c1@'
tRp368
F2.5404369831085205
tp369
a(I6
g3
(g5
S'\xb0rh\x91\xed\x8c1@'
tRp370
F13.515363931655884
tp371
a(I6
g3
(g5
S'\xb0rh\x91\xed\x8c1@'
tRp372
F1.6329340934753418
tp373
a(I6
g3
(g5
S'\xb0rh\x91\xed\x8c1@'
tRp374
F2.1789519786834717
tp375
a(I6
g3
(g5
S'\xb0rh\x91\xed\x8c1@'
tRp376
F2.815532922744751
tp377
a(I6
g3
(g5
S'\xb0rh\x91\xed\x8c1@'
tRp378
F2.5793328285217285
tp379
a(I6
g3
(g5
S'\xb0rh\x91\xed\x8c1@'
tRp380
F15.126045942306519
tp381
a(I6
g3
(g5
S'\xb0rh\x91\xed\x8c1@'
tRp382
F2.9438650608062744
tp383
a(I6
g3
(g5
S'\xb0rh\x91\xed\x8c1@'
tRp384
F2.2501318454742432
tp385
a(I6
g3
(g5
S'\xb0rh\x91\xed\x8c1@'
tRp386
F1.9844958782196045
tp387
a(I6
g3
(g5
S'\xb0rh\x91\xed\x8c1@'
tRp388
F2.5467798709869385
tp389
a(I6
g3
(g5
S'xz\xa5,ClP@'
tRp390
F14.205820083618164
tp391
a(I6
g3
(g5
S'xz\xa5,ClP@'
tRp392
F0.22019100189208984
tp393
a(I6
g3
(g5
S'xz\xa5,ClP@'
tRp394
F0.21898698806762695
tp395
a(I6
g3
(g5
S'xz\xa5,ClP@'
tRp396
F0.22553396224975586
tp397
a(I6
g3
(g5
S'xz\xa5,ClP@'
tRp398
F0.23220396041870117
tp399
a(I6
g3
(g5
S'\xb0rh\x91\xed\x8c1@'
tRp400
F18.212845087051392
tp401
a(I6
g3
(g5
S'\xb0rh\x91\xed\x8c1@'
tRp402
F2.6021308898925781
tp403
a(I6
g3
(g5
S'\xb0rh\x91\xed\x8c1@'
tRp404
F2.7713570594787598
tp405
a(I6
g3
(g5
S'\xb0rh\x91\xed\x8c1@'
tRp406
F3.0999331474304199
tp407
a(I6
g3
(g5
S'\xb0rh\x91\xed\x8c1@'
tRp408
F2.3984711170196533
tp409
a(I6
g3
(g5
S'\xb0rh\x91\xed\x8c1@'
tRp410
F18.701406955718994
tp411
a(I6
g3
(g5
S'\xb0rh\x91\xed\x8c1@'
tRp412
F2.4098660945892334
tp413
a(I6
g3
(g5
S'\xb0rh\x91\xed\x8c1@'
tRp414
F1.9862360954284668
tp415
a(I6
g3
(g5
S'\xb0rh\x91\xed\x8c1@'
tRp416
F2.0040431022644043
tp417
a(I6
g3
(g5
S'\xb0rh\x91\xed\x8c1@'
tRp418
F2.2158651351928711
tp419
a(I6
g3
(g5
S'\xb0rh\x91\xed\x8c1@'
tRp420
F21.159575939178467
tp421
a(I6
g3
(g5
S'\xb0rh\x91\xed\x8c1@'
tRp422
F2.6371209621429443
tp423
a(I6
g3
(g5
S'\xb0rh\x91\xed\x8c1@'
tRp424
F7.7101919651031494
tp425
a(I6
g3
(g5
S'\xb0rh\x91\xed\x8c1@'
tRp426
F3.1696970462799072
tp427
a(I6
g3
(g5
S'\xb0rh\x91\xed\x8c1@'
tRp428
F3.5171990394592285
tp429
a(I6
g3
(g5
S'\xb0rh\x91\xed\x8c1@'
tRp430
F23.428298950195312
tp431
a(I6
g3
(g5
S'\xb0rh\x91\xed\x8c1@'
tRp432
F3.8553199768066406
tp433
a(I6
g3
(g5
S'\xb0rh\x91\xed\x8c1@'
tRp434
F3.3506801128387451
tp435
a(I6
g3
(g5
S'\xb0rh\x91\xed\x8c1@'
tRp436
F2.1829879283905029
tp437
a(I6
g3
(g5
S'\xb0rh\x91\xed\x8c1@'
tRp438
F1.0951929092407227
tp439
aa(lp440
(I6
g3
(g5
S'?5^\xbaI\x9cf@'
tRp441
F0.089258909225463867
tp442
a(I6
g3
(g5
S'\xd8\xa3p=\n\x07E@'
tRp443
F0.25654506683349609
tp444
a(I6
g3
(g5
S'\xf6(\\\x8f\xc29d@'
tRp445
F0.31018686294555664
tp446
a(I6
g3
(g5
S'\xf6(\\\x8f\xc29d@'
tRp447
F0.10067009925842285
tp448
a(I6
g3
(g5
S'\xf6(\\\x8f\xc29d@'
tRp449
F0.1053769588470459
tp450
a(I6
g3
(g5
S'\x00\x00\x00\x00\x00\x00\x00\x00'
tRp451
F5.9458601474761963
tp452
aa.