(lp1
(lp2
(I1
cnumpy.core.multiarray
scalar
p3
(cnumpy
dtype
p4
(S'f8'
I0
I1
tRp5
(I3
S'<'
NNNI-1
I-1
I0
tbS'\x98n\x12\x83\xc0\x8e`@'
tRp6
F0.026067972183227539
tp7
a(I1
g3
(g5
S'\xb1rh\x91\xed\xb4]@'
tRp8
F0.04095005989074707
tp9
a(I1
g3
(g5
S'\x84\x95C\x8bl7N@'
tRp10
F0.066996097564697266
tp11
a(I1
g3
(g5
S'\x8cl\xe7\xfb\xa9\xa1_@'
tRp12
F0.052974939346313477
tp13
a(I1
g3
(g5
S'\x8cl\xe7\xfb\xa9\xa1_@'
tRp14
F0.13633203506469727
tp15
a(I1
g3
(g5
S'>\n\xd7\xa3p\x1dg@'
tRp16
F3.5824320316314697
tp17
a(I1
g3
(g5
S'\x84\x95C\x8bl7N@'
tRp18
F0.028786182403564453
tp19
a(I1
g3
(g5
S'\x84\x95C\x8bl7N@'
tRp20
F0.03333592414855957
tp21
a(I1
g3
(g5
S'\x84\x95C\x8bl7N@'
tRp22
F0.028809070587158203
tp23
a(I1
g3
(g5
S'\x84\x95C\x8bl7N@'
tRp24
F0.10626602172851562
tp25
a(I1
g3
(g5
S'\x84\x95C\x8bl7N@'
tRp26
F3.7577860355377197
tp27
a(I1
g3
(g5
S'\x84\x95C\x8bl7N@'
tRp28
F0.030714035034179688
tp29
a(I1
g3
(g5
S'\x84\x95C\x8bl7N@'
tRp30
F0.03072810173034668
tp31
a(I1
g3
(g5
S'\x84\x95C\x8bl7N@'
tRp32
F0.031321048736572266
tp33
a(I1
g3
(g5
S'\x00\x00\x00\x00\x00\x00\x00\x00'
tRp34
F2.4341909885406494
tp35
aa(lp36
(I1
g3
(g5
S'\xae\xd8_vO\xeeI@'
tRp37
F0.025701045989990234
tp38
a(I1
g3
(g5
S'\x1e\xa7\xe8H.O8@'
tRp39
F0.026635169982910156
tp40
a(I1
g3
(g5
S'\x1e\xa7\xe8H.O8@'
tRp41
F0.044801950454711914
tp42
a(I1
g3
(g5
S'\x1e\xa7\xe8H.O8@'
tRp43
F0.08342289924621582
tp44
a(I1
g3
(g5
S'\x1e\xa7\xe8H.O8@'
tRp45
F0.083350181579589844
tp46
a(I1
g3
(g5
S'\x80\xd9=yXH(@'
tRp47
F3.785815954208374
tp48
a(I1
g3
(g5
S'\x80\xd9=yXH(@'
tRp49
F0.099030017852783203
tp50
a(I1
g3
(g5
S'\x80\xd9=yXH(@'
tRp51
F0.099192142486572266
tp52
a(I1
g3
(g5
S'\x1e\xa7\xe8H.O8@'
tRp53
F0.1164860725402832
tp54
a(I1
g3
(g5
S'\x80\xd9=yXH(@'
tRp55
F0.03067779541015625
tp56
a(I1
g3
(g5
S'\x80\xd9=yXH(@'
tRp57
F3.8724451065063477
tp58
a(I1
g3
(g5
S'\x80\xd9=yXH(@'
tRp59
F0.078988075256347656
tp60
a(I1
g3
(g5
S'\x00\x00\x00\x00\x00\x00\x00\x00'
tRp61
F0.061854839324951172
tp62
aa(lp63
(I1
g3
(g5
S' \x85\xebQ\xb8\x96U@'
tRp64
F0.025533914566040039
tp65
a(I1
g3
(g5
S'2\x08\xac\x1cZ$[@'
tRp66
F0.04192805290222168
tp67
a(I1
g3
(g5
S'2\x08\xac\x1cZ$[@'
tRp68
F0.054162025451660156
tp69
a(I1
g3
(g5
S'2\x08\xac\x1cZ$[@'
tRp70
F0.035064935684204102
tp71
a(I1
g3
(g5
S'2\x08\xac\x1cZ$[@'
tRp72
F0.074119091033935547
tp73
a(I1
g3
(g5
S'\x1a\xe2X\x17\xb7\xa9X@'
tRp74
F3.7091300487518311
tp75
a(I1
g3
(g5
S'H\x0c\x02+\x8766@'
tRp76
F0.044332027435302734
tp77
a(I1
g3
(g5
S'H\x0c\x02+\x8766@'
tRp78
F0.046331882476806641
tp79
a(I1
g3
(g5
S'H\x0c\x02+\x8766@'
tRp80
F0.049040079116821289
tp81
a(I1
g3
(g5
S'H\x0c\x02+\x8766@'
tRp82
F0.044796228408813477
tp83
a(I1
g3
(g5
S'R\xb8\x1e\x85\xebAQ@'
tRp84
F3.8084738254547119
tp85
a(I1
g3
(g5
S'2\x08\xac\x1cZ$[@'
tRp86
F0.033491849899291992
tp87
a(I1
g3
(g5
S'R\xb8\x1e\x85\xebAQ@'
tRp88
F0.035629987716674805
tp89
a(I1
g3
(g5
S'\x00\x00\x00\x00\x00\x00\x00\x00'
tRp90
F0.036951065063476562
tp91
aa(lp92
(I1
g3
(g5
S'X9\xb4\xc8v*b@'
tRp93
F0.025442123413085938
tp94
a(I1
g3
(g5
S'\xe2z\x14\xaeGAT@'
tRp95
F0.040507078170776367
tp96
a(I1
g3
(g5
S'\x00%\x06\x81\x95C\x06@'
tRp97
F0.095537185668945312
tp98
a(I1
g3
(g5
S' \x85\xebQ\xb8fS@'
tRp99
F0.059334039688110352
tp100
a(I1
g3
(g5
S' \x85\xebQ\xb8fS@'
tRp101
F0.11473608016967773
tp102
a(I1
g3
(g5
S' \x85\xebQ\xb8fS@'
tRp103
F3.5824160575866699
tp104
a(I1
g3
(g5
S' \x85\xebQ\xb8fS@'
tRp105
F0.072577953338623047
tp106
a(I1
g3
(g5
S'\x00%\x06\x81\x95C\x06@'
tRp107
F0.14310407638549805
tp108
a(I1
g3
(g5
S'\x00%\x06\x81\x95C\x06@'
tRp109
F0.057160854339599609
tp110
a(I1
g3
(g5
S'\x00%\x06\x81\x95C\x06@'
tRp111
F0.03326106071472168
tp112
a(I1
g3
(g5
S'\x00%\x06\x81\x95C\x06@'
tRp113
F3.9983658790588379
tp114
a(I1
g3
(g5
S'\x00%\x06\x81\x95C\x06@'
tRp115
F0.06662297248840332
tp116
a(I1
g3
(g5
S'\x00%\x06\x81\x95C\x06@'
tRp117
F0.095736980438232422
tp118
a(I1
g3
(g5
S'\x00%\x06\x81\x95C\x06@'
tRp119
F0.08250880241394043
tp120
a(I1
g3
(g5
S'\x00%\x06\x81\x95C\x06@'
tRp121
F0.069189071655273438
tp122
a(I1
g3
(g5
S'\xe2z\x14\xaeGAT@'
tRp123
F4.5450079441070557
tp124
a(I1
g3
(g5
S'\xe2z\x14\xaeGAT@'
tRp125
F0.1351161003112793
tp126
a(I1
g3
(g5
S'\xe2z\x14\xaeGAT@'
tRp127
F0.13169503211975098
tp128
a(I1
g3
(g5
S'\xe2z\x14\xaeGAT@'
tRp129
F0.13244199752807617
tp130
a(I1
g3
(g5
S'\xe2z\x14\xaeGAT@'
tRp131
F0.13291120529174805
tp132
a(I1
g3
(g5
S'\xbaI\x0c\x02+\x8fS@'
tRp133
F4.9008951187133789
tp134
a(I1
g3
(g5
S'\xbaI\x0c\x02+\x8fS@'
tRp135
F0.091886997222900391
tp136
a(I1
g3
(g5
S'\x00\x00\x00\x00\x00\x00\x00\x00'
tRp137
F6.4364669322967529
tp138
aa(lp139
(I1
g3
(g5
S'\xe0z\x14\xaeG\xc17@'
tRp140
F0.025693893432617188
tp141
a(I1
g3
(g5
S'\x00\x00\x00\x00\x00\x00\x00\x00'
tRp142
F0.042032003402709961
tp143
aa(lp144
(I1
g3
(g5
S'\x1f\x85\xebQ\xb8\xc2b@'
tRp145
F0.025437116622924805
tp146
a(I1
g3
(g5
S'z\xe9&1\x08\xdcR@'
tRp147
F0.040529012680053711
tp148
a(I1
g3
(g5
S'z\xe9&1\x08\xdcR@'
tRp149
F0.095701932907104492
tp150
a(I1
g3
(g5
S'\xa4E\xb6\xf3\xfd4O@'
tRp151
F0.059331893920898438
tp152
a(I1
g3
(g5
S'\xa4E\xb6\xf3\xfd4O@'
tRp153
F0.10044384002685547
tp154
a(I1
g3
(g5
S'\xcb\xa1E\xb6\xf3!a@'
tRp155
F3.646090030670166
tp156
a(I1
g3
(g5
S'`\xbaI\x0c\x02[I@'
tRp157
F0.11167192459106445
tp158
a(I1
g3
(g5
S'`\xbaI\x0c\x02[I@'
tRp159
F0.064195871353149414
tp160
a(I1
g3
(g5
S'`\xbaI\x0c\x02[I@'
tRp161
F0.37344002723693848
tp162
a(I1
g3
(g5
S'`\xbaI\x0c\x02[I@'
tRp163
F0.34830880165100098
tp164
a(I1
g3
(g5
S'`\xbaI\x0c\x02[I@'
tRp165
F4.8014411926269531
tp166
a(I1
g3
(g5
S'`\xbaI\x0c\x02[I@'
tRp167
F1.1508719921112061
tp168
a(I1
g3
(g5
S'\x00\x00\x00\x00\x00\x00\x00\x00'
tRp169
F0.40299415588378906
tp170
aa(lp171
(I1
g3
(g5
S'&1\x08\xac\x1c*c@'
tRp172
F0.025511980056762695
tp173
a(I1
g3
(g5
S'\x88A`\xe5\xd0:Y@'
tRp174
F0.041620016098022461
tp175
a(I1
g3
(g5
S'\xc0Mb\x10X\xf9)@'
tRp176
F0.075235128402709961
tp177
a(I1
g3
(g5
S'\xc0Mb\x10X\xf9)@'
tRp178
F0.03532099723815918
tp179
a(I1
g3
(g5
S'\xc0Mb\x10X\xf9)@'
tRp180
F0.084247827529907227
tp181
a(I1
g3
(g5
S'\xc0Mb\x10X\xf9)@'
tRp182
F3.681427001953125
tp183
a(I1
g3
(g5
S'\xc0Mb\x10X\xf9)@'
tRp184
F0.16420578956604004
tp185
a(I1
g3
(g5
S'\xc0Mb\x10X\xf9)@'
tRp186
F0.24034404754638672
tp187
a(I1
g3
(g5
S'\xc0Mb\x10X\xf9)@'
tRp188
F0.30054402351379395
tp189
a(I1
g3
(g5
S'\xc0Mb\x10X\xf9)@'
tRp190
F0.39211392402648926
tp191
a(I1
g3
(g5
S'\x00\x00\x00\x00\x00\x00\x00\x00'
tRp192
F4.4764888286590576
tp193
aa(lp194
(I1
g3
(g5
S'`\xe5\xd0"\xdb\xbd`@'
tRp195
F0.0254669189453125
tp196
a(I1
g3
(g5
S'`\xe5\xd0"\xdb\xbd`@'
tRp197
F0.040552854537963867
tp198
a(I1
g3
(g5
S'\x9a\xc4 \xb0r\xf0W@'
tRp199
F0.06429600715637207
tp200
a(I1
g3
(g5
S'\x9a\xc4 \xb0r\xf0W@'
tRp201
F0.034658908843994141
tp202
a(I1
g3
(g5
S'\x9a\xc4 \xb0r\xf0W@'
tRp203
F0.066675901412963867
tp204
a(I1
g3
(g5
S'\x9a\xc4 \xb0r\xf0W@'
tRp205
F3.735846996307373
tp206
a(I1
g3
(g5
S'>\xe8\xd9\xac\xfa\x12`@'
tRp207
F0.064711093902587891
tp208
a(I1
g3
(g5
S'>\xe8\xd9\xac\xfa\x12`@'
tRp209
F0.60521507263183594
tp210
a(I1
g3
(g5
S'>\xe8\xd9\xac\xfa\x12`@'
tRp211
F0.36872291564941406
tp212
a(I1
g3
(g5
S'>\xe8\xd9\xac\xfa\x12`@'
tRp213
F0.54130101203918457
tp214
a(I1
g3
(g5
S'xz\xa5,C\xd8P@'
tRp215
F4.7270939350128174
tp216
a(I1
g3
(g5
S'xz\xa5,C\xd8P@'
tRp217
F1.32784104347229
tp218
a(I1
g3
(g5
S'xz\xa5,C\xd8P@'
tRp219
F0.69910001754760742
tp220
a(I1
g3
(g5
S'xz\xa5,C\xd8P@'
tRp221
F2.5303690433502197
tp222
a(I1
g3
(g5
S'\xc0\x17&S\x05k@@'
tRp223
F5.5317320823669434
tp224
a(I1
g3
(g5
S'\xc0\x17&S\x05k@@'
tRp225
F5.6172399520874023
tp226
a(I1
g3
(g5
S'\xc0\x17&S\x05k@@'
tRp227
F0.15474295616149902
tp228
a(I1
g3
(g5
S'\x00\x00\x00\x00\x00\x00\x00\x00'
tRp229
F0.14110589027404785
tp230
aa(lp231
(I1
g3
(g5
S'7\x89A`\xe5([@'
tRp232
F0.025547981262207031
tp233
a(I1
g3
(g5
S'7\x89A`\xe5([@'
tRp234
F0.041684150695800781
tp235
a(I1
g3
(g5
S'7\x89A`\xe5([@'
tRp236
F0.05397486686706543
tp237
a(I1
g3
(g5
S'7\x89A`\xe5([@'
tRp238
F0.035047054290771484
tp239
a(I1
g3
(g5
S'7\x89A`\xe5([@'
tRp240
F0.042380094528198242
tp241
a(I1
g3
(g5
S'7\x89A`\xe5([@'
tRp242
F3.6437971591949463
tp243
a(I1
g3
(g5
S'@`\xe5\xd0"\x1bD@'
tRp244
F0.14337301254272461
tp245
a(I1
g3
(g5
S'@`\xe5\xd0"\x1bD@'
tRp246
F0.29521393775939941
tp247
a(I1
g3
(g5
S'@`\xe5\xd0"\x1bD@'
tRp248
F0.28008699417114258
tp249
a(I1
g3
(g5
S'@`\xe5\xd0"\x1bD@'
tRp250
F0.50783085823059082
tp251
a(I1
g3
(g5
S'@`\xe5\xd0"\x1bD@'
tRp252
F5.7308800220489502
tp253
a(I1
g3
(g5
S'@`\xe5\xd0"\x1bD@'
tRp254
F1.2537410259246826
tp255
a(I1
g3
(g5
S'@`\xe5\xd0"\x1bD@'
tRp256
F1.5231928825378418
tp257
a(I1
g3
(g5
S'\x00\x00\x00\x00\x00\x00\x00\x00'
tRp258
F1.1918389797210693
tp259
aa(lp260
(I1
g3
(g5
S'w\xbe\x9f\x1a/\xe5U@'
tRp261
F0.025629997253417969
tp262
a(I1
g3
(g5
S'\xea&1\x08\xac\xe4X@'
tRp263
F0.041601896286010742
tp264
a(I1
g3
(g5
S'\xbaI\x0c\x02+GF@'
tRp265
F0.075468778610229492
tp266
a(I1
g3
(g5
S'\xbaI\x0c\x02+GF@'
tRp267
F0.048047065734863281
tp268
a(I1
g3
(g5
S'\xbaI\x0c\x02+GF@'
tRp269
F0.088853120803833008
tp270
a(I1
g3
(g5
S'\xbaI\x0c\x02+GF@'
tRp271
F3.778555154800415
tp272
a(I1
g3
(g5
S'\xbaI\x0c\x02+GF@'
tRp273
F0.2029268741607666
tp274
a(I1
g3
(g5
S'0\xb2\x9d\xef\xa7\xc6(@'
tRp275
F0.24975705146789551
tp276
a(I1
g3
(g5
S'0\xb2\x9d\xef\xa7\xc6(@'
tRp277
F0.13152289390563965
tp278
a(I1
g3
(g5
S'\xbaI\x0c\x02+GF@'
tRp279
F0.47815084457397461
tp280
a(I1
g3
(g5
S'\xbaI\x0c\x02+GF@'
tRp281
F5.0632200241088867
tp282
a(I1
g3
(g5
S'\xbaI\x0c\x02+GF@'
tRp283
F0.50607800483703613
tp284
a(I1
g3
(g5
S'\xbaI\x0c\x02+GF@'
tRp285
F0.45688605308532715
tp286
a(I1
g3
(g5
S'\xbaI\x0c\x02+GF@'
tRp287
F0.50776100158691406
tp288
a(I1
g3
(g5
S'\xbaI\x0c\x02+GF@'
tRp289
F0.25342202186584473
tp290
a(I1
g3
(g5
S'0\xb2\x9d\xef\xa7\xc6(@'
tRp291
F5.5531830787658691
tp292
a(I1
g3
(g5
S'0\xb2\x9d\xef\xa7\xc6(@'
tRp293
F0.070564985275268555
tp294
a(I1
g3
(g5
S'0\xb2\x9d\xef\xa7\xc6(@'
tRp295
F0.075470924377441406
tp296
a(I1
g3
(g5
S'0\xb2\x9d\xef\xa7\xc6(@'
tRp297
F0.07193303108215332
tp298
a(I1
g3
(g5
S'0\xb2\x9d\xef\xa7\xc6(@'
tRp299
F0.071975946426391602
tp300
a(I1
g3
(g5
S'0\xb2\x9d\xef\xa7\xc6(@'
tRp301
F5.7750589847564697
tp302
a(I1
g3
(g5
S'0\xb2\x9d\xef\xa7\xc6(@'
tRp303
F0.076249122619628906
tp304
a(I1
g3
(g5
S'0\xb2\x9d\xef\xa7\xc6(@'
tRp305
F0.076404809951782227
tp306
a(I1
g3
(g5
S'0\xb2\x9d\xef\xa7\xc6(@'
tRp307
F0.076044797897338867
tp308
a(I1
g3
(g5
S'0\xb2\x9d\xef\xa7\xc6(@'
tRp309
F0.075525999069213867
tp310
a(I1
g3
(g5
S'0\xb2\x9d\xef\xa7\xc6(@'
tRp311
F5.9611811637878418
tp312
a(I1
g3
(g5
S'\x00\x00\x00\x00\x00\x00\x00\x00'
tRp313
F0.038231134414672852
tp314
aa(lp315
(I1
g3
(g5
S'\xd8\xce\xf7S\xe3e$@'
tRp316
F0.025497913360595703
tp317
a(I1
g3
(g5
S'\x0b\x02+\x87\x169:@'
tRp318
F0.041505098342895508
tp319
a(I1
g3
(g5
S'\xd8\xce\xf7S\xe3e$@'
tRp320
F0.053913116455078125
tp321
a(I1
g3
(g5
S'\xd8\xce\xf7S\xe3e$@'
tRp322
F0.035177946090698242
tp323
a(I1
g3
(g5
S'\xd8\xce\xf7S\xe3e$@'
tRp324
F0.042238950729370117
tp325
a(I1
g3
(g5
S'\xe8&1\x08\xac\x1c3@'
tRp326
F3.5914490222930908
tp327
a(I1
g3
(g5
S'\xd8\xce\xf7S\xe3e$@'
tRp328
F0.13141703605651855
tp329
a(I1
g3
(g5
S'\x00\x00\x00\x00\x00\x00\x00\x00'
tRp330
F0.21730303764343262
tp331
aa(lp332
(I1
g3
(g5
S'h\x91\xed|?U`@'
tRp333
F0.025482892990112305
tp334
a(I1
g3
(g5
S'\x86\x16\xd9\xce\xf7;h@'
tRp335
F0.040462970733642578
tp336
a(I1
g3
(g5
S'\x86\x16\xd9\xce\xf7;h@'
tRp337
F0.095469951629638672
tp338
a(I1
g3
(g5
S'F\xe1z\x14\xae\xef\\@'
tRp339
F0.03441309928894043
tp340
a(I1
g3
(g5
S'F\xe1z\x14\xae\xef\\@'
tRp341
F0.072208166122436523
tp342
a(I1
g3
(g5
S'F\xe1z\x14\xae\xef\\@'
tRp343
F3.6706349849700928
tp344
a(I1
g3
(g5
S'\x14\xaeG\xe1zLS@'
tRp345
F0.042649030685424805
tp346
a(I1
g3
(g5
S'\x14\xaeG\xe1zLS@'
tRp347
F0.039085149765014648
tp348
a(I1
g3
(g5
S'\x14\xaeG\xe1zLS@'
tRp349
F0.068789958953857422
tp350
a(I1
g3
(g5
S'\x14\xaeG\xe1zLS@'
tRp351
F0.13739705085754395
tp352
a(I1
g3
(g5
S'F\xe1z\x14\xae\xef\\@'
tRp353
F3.8037550449371338
tp354
a(I1
g3
(g5
S'\xed|?5^jc@'
tRp355
F0.031379222869873047
tp356
a(I1
g3
(g5
S'\x14\xaeG\xe1zLS@'
tRp357
F0.031946897506713867
tp358
a(I1
g3
(g5
S'x\x14\xaeG\xe1\x9aO@'
tRp359
F0.03277897834777832
tp360
a(I1
g3
(g5
S'\xed|?5^jc@'
tRp361
F0.032629013061523438
tp362
a(I1
g3
(g5
S'\x86\x16\xd9\xce\xf7;h@'
tRp363
F4.0689277648925781
tp364
a(I1
g3
(g5
S'\x86\x16\xd9\xce\xf7;h@'
tRp365
F0.030503988265991211
tp366
a(I1
g3
(g5
S'\x86\x16\xd9\xce\xf7;h@'
tRp367
F0.030807971954345703
tp368
a(I1
g3
(g5
S'\x86\x16\xd9\xce\xf7;h@'
tRp369
F0.031236886978149414
tp370
a(I1
g3
(g5
S'\x86\x16\xd9\xce\xf7;h@'
tRp371
F0.031476974487304688
tp372
a(I1
g3
(g5
S'\x00\x00\x00\x00\x00\x00\x00\x00'
tRp373
F4.2845571041107178
tp374
aa(lp375
(I1
g3
(g5
S'\x15\xaeG\xe1z\xc0V@'
tRp376
F0.025408029556274414
tp377
a(I1
g3
(g5
S'\x08\x81\x95C\x8bL:@'
tRp378
F0.040446043014526367
tp379
a(I1
g3
(g5
S'0\xb2\x9d\xef\xa7\x06)@'
tRp380
F0.095250129699707031
tp381
a(I1
g3
(g5
S'0\xb2\x9d\xef\xa7\x06)@'
tRp382
F0.059345006942749023
tp383
a(I1
g3
(g5
S'0\xb2\x9d\xef\xa7\x06)@'
tRp384
F0.11470508575439453
tp385
a(I1
g3
(g5
S'0\xb2\x9d\xef\xa7\x06)@'
tRp386
F3.5757520198822021
tp387
a(I1
g3
(g5
S'c\x10X9\xb4\xc8T@'
tRp388
F0.072266101837158203
tp389
a(I1
g3
(g5
S'c\x10X9\xb4\xc8T@'
tRp390
F0.030254125595092773
tp391
a(I1
g3
(g5
S'c\x10X9\xb4\xc8T@'
tRp392
F0.031378030776977539
tp393
a(I1
g3
(g5
S'c\x10X9\xb4\xc8T@'
tRp394
F0.07143712043762207
tp395
a(I1
g3
(g5
S'c\x10X9\xb4\xc8T@'
tRp396
F3.8313908576965332
tp397
a(I1
g3
(g5
S'c\x10X9\xb4\xc8T@'
tRp398
F0.058142900466918945
tp399
a(I1
g3
(g5
S'\x1dZd;\xdf\xa7Q@'
tRp400
F0.10760021209716797
tp401
a(I1
g3
(g5
S'\x00\x00\x00\x00\x00\x00\x00\x00'
tRp402
F0.16864705085754395
tp403
aa(lp404
(I1
g3
(g5
S'\x83\xc0\xca\xa1EFe@'
tRp405
F0.025481939315795898
tp406
a(I1
g3
(g5
S'\x83\xc0\xca\xa1EFe@'
tRp407
F0.041546821594238281
tp408
a(I1
g3
(g5
S'\xb8\x1e\x85\xebQ\x08_@'
tRp409
F0.054089069366455078
tp410
a(I1
g3
(g5
S'L7\x89A`\xa5Y@'
tRp411
F0.048867940902709961
tp412
a(I1
g3
(g5
S'L7\x89A`\xa5Y@'
tRp413
F0.10383296012878418
tp414
a(I1
g3
(g5
S'L7\x89A`\xa5Y@'
tRp415
F3.6108629703521729
tp416
a(I1
g3
(g5
S'L7\x89A`\xa5Y@'
tRp417
F0.077679872512817383
tp418
a(I1
g3
(g5
S'L7\x89A`\xa5Y@'
tRp419
F0.081915140151977539
tp420
a(I1
g3
(g5
S'L7\x89A`\xa5Y@'
tRp421
F0.27956295013427734
tp422
a(I1
g3
(g5
S'L7\x89A`\xa5Y@'
tRp423
F0.52782702445983887
tp424
a(I1
g3
(g5
S'L7\x89A`\xa5Y@'
tRp425
F4.9079840183258057
tp426
a(I1
g3
(g5
S'L7\x89A`\xa5Y@'
tRp427
F0.19099998474121094
tp428
a(I1
g3
(g5
S'L7\x89A`\xa5Y@'
tRp429
F0.31154298782348633
tp430
a(I1
g3
(g5
S'\xfc\xa9\xf1\xd2MBL@'
tRp431
F0.30793404579162598
tp432
a(I1
g3
(g5
S'\x00\x00\x00\x00\x00\x00\x00\x00'
tRp433
F0.13634705543518066
tp434
aa(lp435
(I1
g3
(g5
S'1\x08\xac\x1cZ8`@'
tRp436
F0.025495052337646484
tp437
a(I1
g3
(g5
S'1\x08\xac\x1cZ8`@'
tRp438
F0.041584968566894531
tp439
a(I1
g3
(g5
S'0\x08\xac\x1cZ\xc4L@'
tRp440
F0.075244903564453125
tp441
a(I1
g3
(g5
S'0\x08\xac\x1cZ\xc4L@'
tRp442
F0.036375045776367188
tp443
a(I1
g3
(g5
S'\x00\x00\x00\x00\x00\x00\x00\x00'
tRp444
F0.084470987319946289
tp445
aa(lp446
(I1
g3
(g5
S'H\x9d\x80&\xc2\xc6=@'
tRp447
F0.025521039962768555
tp448
a(I1
g3
(g5
S'\x0c-\xb2\x9d\xefg:@'
tRp449
F0.041640996932983398
tp450
a(I1
g3
(g5
S'\x00\xe7\x8c(\xed\x8d5@'
tRp451
F0.054063081741333008
tp452
a(I1
g3
(g5
S'\x00\xe7\x8c(\xed\x8d5@'
tRp453
F0.035084962844848633
tp454
a(I1
g3
(g5
S'\xc0\x81sF\x94\xf6\n@'
tRp455
F0.074009180068969727
tp456
a(I1
g3
(g5
S'\xc0\x81sF\x94\xf6\n@'
tRp457
F3.7146551609039307
tp458
a(I1
g3
(g5
S'\x0e\x0b\xb5\xa6y\xe7J@'
tRp459
F0.10210680961608887
tp460
a(I1
g3
(g5
S'\xc0\x81sF\x94\xf6\n@'
tRp461
F0.10947084426879883
tp462
a(I1
g3
(g5
S'\xc0\x81sF\x94\xf6\n@'
tRp463
F0.038078069686889648
tp464
a(I1
g3
(g5
S'\xc0\x81sF\x94\xf6\n@'
tRp465
F0.06889796257019043
tp466
a(I1
g3
(g5
S'\x00\xe7\x8c(\xed\x8d5@'
tRp467
F3.8109769821166992
tp468
a(I1
g3
(g5
S'\x00\xe7\x8c(\xed\x8d5@'
tRp469
F0.030372142791748047
tp470
a(I1
g3
(g5
S':#J{\x83\xffQ@'
tRp471
F0.031090021133422852
tp472
a(I1
g3
(g5
S':#J{\x83\xffQ@'
tRp473
F0.031154870986938477
tp474
a(I1
g3
(g5
S':#J{\x83\xffQ@'
tRp475
F0.20843100547790527
tp476
a(I1
g3
(g5
S'\xc8v\xbe\x9f\x1a/2@'
tRp477
F4.7006049156188965
tp478
a(I1
g3
(g5
S'\x00\xe7\x8c(\xed\x8d5@'
tRp479
F0.053345918655395508
tp480
a(I1
g3
(g5
S'\xc8v\xbe\x9f\x1a/2@'
tRp481
F0.035832881927490234
tp482
a(I1
g3
(g5
S'\xc8v\xbe\x9f\x1a/2@'
tRp483
F0.041891813278198242
tp484
a(I1
g3
(g5
S'\xc8v\xbe\x9f\x1a/2@'
tRp485
F0.042190074920654297
tp486
a(I1
g3
(g5
S'\x00\x00\x00\x00\x00\x00\x00\x00'
tRp487
F4.4542419910430908
tp488
aa(lp489
(I1
g3
(g5
S'\xea&1\x08\xac\x0cS@'
tRp490
F0.025444984436035156
tp491
a(I1
g3
(g5
S'\x17\xd9\xce\xf7S/a@'
tRp492
F0.041634798049926758
tp493
a(I1
g3
(g5
S'\xf4\xfd\xd4x\xe9f@@'
tRp494
F0.054095029830932617
tp495
a(I1
g3
(g5
S'\xea&1\x08\xac\x0cS@'
tRp496
F0.035027027130126953
tp497
a(I1
g3
(g5
S'\xe0O\x8d\x97n\xb2E@'
tRp498
F0.042357921600341797
tp499
a(I1
g3
(g5
S'\xee|?5^N`@'
tRp500
F3.5985682010650635
tp501
a(I1
g3
(g5
S'\xe0O\x8d\x97n\xb2E@'
tRp502
F0.13173103332519531
tp503
a(I1
g3
(g5
S'\xe0O\x8d\x97n\xb2E@'
tRp504
F0.21666908264160156
tp505
a(I1
g3
(g5
S'\xbet\x93\x18\x04\xa6S@'
tRp506
F0.38431501388549805
tp507
a(I1
g3
(g5
S'\xe0O\x8d\x97n\xb2E@'
tRp508
F0.2741851806640625
tp509
a(I1
g3
(g5
S'\xe0O\x8d\x97n\xb2E@'
tRp510
F4.7505319118499756
tp511
a(I1
g3
(g5
S'\xe0O\x8d\x97n\xb2E@'
tRp512
F0.13610100746154785
tp513
a(I1
g3
(g5
S'\xea&1\x08\xac\x0cS@'
tRp514
F0.31803393363952637
tp515
a(I1
g3
(g5
S'\xea&1\x08\xac\x0cS@'
tRp516
F0.2325599193572998
tp517
a(I1
g3
(g5
S'\xea&1\x08\xac\x0cS@'
tRp518
F0.20264887809753418
tp519
a(I1
g3
(g5
S'\x00\x00\x00\x00\x00\x00\x00\x00'
tRp520
F5.7719259262084961
tp521
aa(lp522
(I1
g3
(g5
S'\x80&\xc2\x86\xa7WJ@'
tRp523
F0.025578022003173828
tp524
a(I1
g3
(g5
S'\xbc\x05\x12\x14?\x06H@'
tRp525
F0.040603160858154297
tp526
a(I1
g3
(g5
S'\xbc\x05\x12\x14?\x06H@'
tRp527
F0.095499038696289062
tp528
a(I1
g3
(g5
S'x6\xab>W\x9b8@'
tRp529
F0.05941009521484375
tp530
a(I1
g3
(g5
S'x6\xab>W\x9b8@'
tRp531
F0.11466503143310547
tp532
a(I1
g3
(g5
S'x6\xab>W\x9b8@'
tRp533
F3.6373100280761719
tp534
a(I1
g3
(g5
S'\xa8\xc6K7\x89a7@'
tRp535
F0.071690797805786133
tp536
a(I1
g3
(g5
S'x6\xab>W\x9b8@'
tRp537
F0.18397998809814453
tp538
a(I1
g3
(g5
S'\x00\xfd\xf6u\xe0\x9c\xf3?'
tRp539
F0.34097790718078613
tp540
a(I1
g3
(g5
S'\x00\xfd\xf6u\xe0\x9c\xf3?'
tRp541
F0.30303096771240234
tp542
a(I1
g3
(g5
S'\x00\xfd\xf6u\xe0\x9c\xf3?'
tRp543
F4.2334129810333252
tp544
a(I1
g3
(g5
S'\x00\xfd\xf6u\xe0\x9c\xf3?'
tRp545
F0.19732904434204102
tp546
a(I1
g3
(g5
S'\x00\xfd\xf6u\xe0\x9c\xf3?'
tRp547
F0.092859029769897461
tp548
a(I1
g3
(g5
S'\x00\xfd\xf6u\xe0\x9c\xf3?'
tRp549
F0.095886945724487305
tp550
a(I1
g3
(g5
S'\x00\xfd\xf6u\xe0\x9c\xf3?'
tRp551
F0.089857101440429688
tp552
a(I1
g3
(g5
S'\x00\xfd\xf6u\xe0\x9c\xf3?'
tRp553
F4.443540096282959
tp554
a(I1
g3
(g5
S'\x00\xfd\xf6u\xe0\x9c\xf3?'
tRp555
F0.087028980255126953
tp556
a(I1
g3
(g5
S'\x00\x00\x00\x00\x00\x00\x00\x00'
tRp557
F0.081045866012573242
tp558
aa(lp559
(I1
g3
(g5
S'\xb0rh\x91\xed\x8c1@'
tRp560
F0.025362014770507812
tp561
a(I1
g3
(g5
S'\xb0rh\x91\xed\x8c1@'
tRp562
F0.041404962539672852
tp563
a(I1
g3
(g5
S'\xb0rh\x91\xed\x8c1@'
tRp564
F0.053817987442016602
tp565
a(I1
g3
(g5
S'\xb0rh\x91\xed\x8c1@'
tRp566
F0.034880876541137695
tp567
a(I1
g3
(g5
S'\xb0rh\x91\xed\x8c1@'
tRp568
F0.073473930358886719
tp569
a(I1
g3
(g5
S'\xdc$\x06\x81\x95C$@'
tRp570
F3.6818649768829346
tp571
a(I1
g3
(g5
S'\xdc$\x06\x81\x95C$@'
tRp572
F0.095675945281982422
tp573
a(I1
g3
(g5
S'\xdc$\x06\x81\x95C$@'
tRp574
F0.076957941055297852
tp575
a(I1
g3
(g5
S'\xdc$\x06\x81\x95C$@'
tRp576
F0.036286115646362305
tp577
a(I1
g3
(g5
S'\xdc$\x06\x81\x95C$@'
tRp578
F0.069862127304077148
tp579
a(I1
g3
(g5
S'\x00\x00\x00\x00\x00\x00\x00\x00'
tRp580
F3.7944889068603516
tp581
aa(lp582
(I1
g3
(g5
S'\xf6(\\\x8f\xc29d@'
tRp583
F0.02537083625793457
tp584
a(I1
g3
(g5
S'\xf6(\\\x8f\xc29d@'
tRp585
F0.040289163589477539
tp586
a(I1
g3
(g5
S'\x8bl\xe7\xfb\xa9\x19X@'
tRp587
F0.09487605094909668
tp588
a(I1
g3
(g5
S'\xb8\x1e\x85\xebQ\x18V@'
tRp589
F0.058817148208618164
tp590
a(I1
g3
(g5
S'`\xe5\xd0"\xdb\xf96@'
tRp591
F0.099477052688598633
tp592
a(I1
g3
(g5
S'`\xe5\xd0"\xdb\xf96@'
tRp593
F3.6323740482330322
tp594
a(I1
g3
(g5
S'`\xe5\xd0"\xdb\xf96@'
tRp595
F0.094173192977905273
tp596
a(I1
g3
(g5
S'`\xe5\xd0"\xdb\xf96@'
tRp597
F0.14399981498718262
tp598
a(I1
g3
(g5
S'*\x87\x16\xd9\xce\xbfP@'
tRp599
F0.19795703887939453
tp600
a(I1
g3
(g5
S'*\x87\x16\xd9\xce\xbfP@'
tRp601
F0.56552910804748535
tp602
a(I1
g3
(g5
S'`\xe5\xd0"\xdb\xf96@'
tRp603
F4.7508540153503418
tp604
a(I1
g3
(g5
S'`\xe5\xd0"\xdb\xf96@'
tRp605
F0.20255303382873535
tp606
a(I1
g3
(g5
S'`\xe5\xd0"\xdb\xf96@'
tRp607
F0.24279403686523438
tp608
a(I1
g3
(g5
S'`\xe5\xd0"\xdb\xf96@'
tRp609
F0.24487400054931641
tp610
a(I1
g3
(g5
S'`\xe5\xd0"\xdb\xf96@'
tRp611
F0.34758496284484863
tp612
a(I1
g3
(g5
S'`\xe5\xd0"\xdb\xf96@'
tRp613
F5.5240068435668945
tp614
a(I1
g3
(g5
S'`\xe5\xd0"\xdb\xf96@'
tRp615
F0.089560985565185547
tp616
a(I1
g3
(g5
S'`\xe5\xd0"\xdb\xf96@'
tRp617
F0.09032893180847168
tp618
a(I1
g3
(g5
S'`\xe5\xd0"\xdb\xf96@'
tRp619
F0.094159126281738281
tp620
a(I1
g3
(g5
S'`\xe5\xd0"\xdb\xf96@'
tRp621
F0.10271096229553223
tp622
a(I1
g3
(g5
S'`\xe5\xd0"\xdb\xf96@'
tRp623
F5.86326003074646
tp624
a(I1
g3
(g5
S'`\xe5\xd0"\xdb\xf96@'
tRp625
F0.92641901969909668
tp626
a(I1
g3
(g5
S'`\xe5\xd0"\xdb\xf96@'
tRp627
F4.8310279846191406
tp628
a(I1
g3
(g5
S'`\xe5\xd0"\xdb\xf96@'
tRp629
F6.9200930595397949
tp630
a(I1
g3
(g5
S'\x00\x00\x00\x00\x00\x00\x00\x00'
tRp631
F15.202167987823486
tp632
aa.