(lp1
(lp2
(I1
cnumpy.core.multiarray
scalar
p3
(cnumpy
dtype
p4
(S'f8'
I0
I1
tRp5
(I3
S'<'
NNNI-1
I-1
I0
tbS'\xdfO\x8d\x97nr9@'
tRp6
F0.017761945724487305
tp7
a(I1
g3
(g5
S'\x84\xc0\xca\xa1E\xb6-@'
tRp8
F0.042183160781860352
tp9
a(I1
g3
(g5
S'\xe0z\x14\xaeG\xe1-@'
tRp10
F0.031334161758422852
tp11
a(I1
g3
(g5
S'\xe0z\x14\xaeG\xe1-@'
tRp12
F0.035622835159301758
tp13
a(I1
g3
(g5
S'H7\x89A`e\x11@'
tRp14
F0.072030067443847656
tp15
a(I1
g3
(g5
S'H7\x89A`e\x11@'
tRp16
F2.7467160224914551
tp17
a(I1
g3
(g5
S'H7\x89A`e\x11@'
tRp18
F0.042470932006835938
tp19
a(I1
g3
(g5
S'\x84\xc0\xca\xa1E\xb6-@'
tRp20
F0.069087028503417969
tp21
a(I1
g3
(g5
S'\x84\xc0\xca\xa1E\xb6-@'
tRp22
F0.18437910079956055
tp23
a(I1
g3
(g5
S'\xdfO\x8d\x97nr9@'
tRp24
F0.26564693450927734
tp25
a(I1
g3
(g5
S'<\xdfO\x8d\x97.%@'
tRp26
F3.5615999698638916
tp27
a(I1
g3
(g5
S'<\xdfO\x8d\x97.%@'
tRp28
F0.043334007263183594
tp29
a(I1
g3
(g5
S'<\xdfO\x8d\x97.%@'
tRp30
F0.043550014495849609
tp31
a(I1
g3
(g5
S'<\xdfO\x8d\x97.%@'
tRp32
F0.042177915573120117
tp33
a(I1
g3
(g5
S'<\xdfO\x8d\x97.%@'
tRp34
F0.040308952331542969
tp35
a(I1
g3
(g5
S'<\xdfO\x8d\x97.%@'
tRp36
F3.9788749217987061
tp37
a(I1
g3
(g5
S'<\xdfO\x8d\x97.%@'
tRp38
F0.043493986129760742
tp39
a(I1
g3
(g5
S'<\xdfO\x8d\x97.%@'
tRp40
F0.043905019760131836
tp41
a(I1
g3
(g5
S'<\xdfO\x8d\x97.%@'
tRp42
F0.043397903442382812
tp43
a(I1
g3
(g5
S'<\xdfO\x8d\x97.%@'
tRp44
F0.044587850570678711
tp45
a(I1
g3
(g5
S'<\xdfO\x8d\x97.%@'
tRp46
F4.0724399089813232
tp47
a(I1
g3
(g5
S'<\xdfO\x8d\x97.%@'
tRp48
F0.041476011276245117
tp49
a(I1
g3
(g5
S'<\xdfO\x8d\x97.%@'
tRp50
F0.039306163787841797
tp51
a(I1
g3
(g5
S'<\xdfO\x8d\x97.%@'
tRp52
F0.043771982192993164
tp53
a(I1
g3
(g5
S'<\xdfO\x8d\x97.%@'
tRp54
F0.041635036468505859
tp55
a(I1
g3
(g5
S'<\xdfO\x8d\x97.%@'
tRp56
F4.2631878852844238
tp57
a(I1
g3
(g5
S'<\xdfO\x8d\x97.%@'
tRp58
F0.049338102340698242
tp59
a(I1
g3
(g5
S'<\xdfO\x8d\x97.%@'
tRp60
F0.050942897796630859
tp61
a(I1
g3
(g5
S'<\xdfO\x8d\x97.%@'
tRp62
F0.04932403564453125
tp63
a(I1
g3
(g5
S'<\xdfO\x8d\x97.%@'
tRp64
F0.049998998641967773
tp65
a(I1
g3
(g5
S'<\xdfO\x8d\x97.%@'
tRp66
F4.4556682109832764
tp67
a(I1
g3
(g5
S'<\xdfO\x8d\x97.%@'
tRp68
F0.026787996292114258
tp69
a(I1
g3
(g5
S'<\xdfO\x8d\x97.%@'
tRp70
F0.027010917663574219
tp71
a(I1
g3
(g5
S'<\xdfO\x8d\x97.%@'
tRp72
F0.027359962463378906
tp73
a(I1
g3
(g5
S'<\xdfO\x8d\x97.%@'
tRp74
F0.027701854705810547
tp75
a(I1
g3
(g5
S'<\xdfO\x8d\x97.%@'
tRp76
F4.6184720993041992
tp77
a(I1
g3
(g5
S'\x00\x00\x00\x00\x00\x00\x00\x00'
tRp78
F0.082232952117919922
tp79
aa(lp80
(I1
g3
(g5
S'Zd;\xdfO\x8dL@'
tRp81
F0.017254114151000977
tp82
a(I1
g3
(g5
S'8\x89A`\xe5\x18T@'
tRp83
F0.034915924072265625
tp84
a(I1
g3
(g5
S'\xe0O\x8d\x97n\x82G@'
tRp85
F0.02788090705871582
tp86
a(I1
g3
(g5
S'(\\\x8f\xc2\xf5H7@'
tRp87
F0.041068792343139648
tp88
a(I1
g3
(g5
S'(\\\x8f\xc2\xf5H7@'
tRp89
F0.072283029556274414
tp90
a(I1
g3
(g5
S'\xa2E\xb6\xf3\xfd\xd4M@'
tRp91
F2.8372948169708252
tp92
a(I1
g3
(g5
S'\xe0O\x8d\x97n\x82G@'
tRp93
F0.11699199676513672
tp94
a(I1
g3
(g5
S'\xe0O\x8d\x97n\x82G@'
tRp95
F0.093993902206420898
tp96
a(I1
g3
(g5
S'\xe0O\x8d\x97n\x82G@'
tRp97
F0.19475817680358887
tp98
a(I1
g3
(g5
S'(\\\x8f\xc2\xf5H7@'
tRp99
F0.14351892471313477
tp100
a(I1
g3
(g5
S'(\\\x8f\xc2\xf5H7@'
tRp101
F4.1540091037750244
tp102
a(I1
g3
(g5
S'(\\\x8f\xc2\xf5H7@'
tRp103
F0.33156204223632812
tp104
a(I1
g3
(g5
S'(\\\x8f\xc2\xf5H7@'
tRp105
F0.74815893173217773
tp106
a(I1
g3
(g5
S'(\\\x8f\xc2\xf5H7@'
tRp107
F0.5687260627746582
tp108
a(I1
g3
(g5
S'\x00\x00\x00\x00\x00\x00\x00\x00'
tRp109
F1.2392129898071289
tp110
aa(lp111
(I1
g3
(g5
S'\xc5 \xb0rh\x11D@'
tRp112
F0.017238140106201172
tp113
a(I1
g3
(g5
S'x\xe9&1\x08\x8c5@'
tRp114
F0.041903018951416016
tp115
a(I1
g3
(g5
S'x\xe9&1\x08\x8c5@'
tRp116
F0.02045893669128418
tp117
a(I1
g3
(g5
S'x\xe9&1\x08\x8c5@'
tRp118
F0.039301872253417969
tp119
a(I1
g3
(g5
S'\x00\x00\x00\x00\x00\x00\x00\x00'
tRp120
F0.019455194473266602
tp121
aa(lp122
(I1
g3
(g5
S'\x96C\x8bl\xe7\xabC@'
tRp123
F0.017220020294189453
tp124
a(I1
g3
(g5
S'\x00\x00\x00\x00\x00\x00\x00\x00'
tRp125
F0.041842937469482422
tp126
aa(lp127
(I1
g3
(g5
S'Zd;\xdfOM?@'
tRp128
F0.017210006713867188
tp129
a(I1
g3
(g5
S'ffffff6@'
tRp130
F0.041650056838989258
tp131
a(I1
g3
(g5
S'ffffff6@'
tRp132
F0.020442008972167969
tp133
a(I1
g3
(g5
S'ffffff6@'
tRp134
F0.029283046722412109
tp135
a(I1
g3
(g5
S'ffffff6@'
tRp136
F0.018927097320556641
tp137
a(I1
g3
(g5
S'\x00\x00\x00\x00\x00\x00\x00\x00'
tRp138
F2.7050399780273438
tp139
aa(lp140
(I1
g3
(g5
S'\x06\x81\x95C\x8b\x1cC@'
tRp141
F0.017221927642822266
tp142
a(I1
g3
(g5
S'fffff\x063@'
tRp143
F0.034906864166259766
tp144
a(I1
g3
(g5
S'fffff\x063@'
tRp145
F0.020359039306640625
tp146
a(I1
g3
(g5
S'fffff\x063@'
tRp147
F0.049035072326660156
tp148
a(I1
g3
(g5
S'fffff\x063@'
tRp149
F0.020774126052856445
tp150
a(I1
g3
(g5
S'b\x10X9\xb4\xe80@'
tRp151
F2.7410838603973389
tp152
a(I1
g3
(g5
S'b\x10X9\xb4\xe80@'
tRp153
F0.06256413459777832
tp154
a(I1
g3
(g5
S'fffff\x063@'
tRp155
F0.13486790657043457
tp156
a(I1
g3
(g5
S'fffff\x063@'
tRp157
F0.21670699119567871
tp158
a(I1
g3
(g5
S'fffff\x063@'
tRp159
F0.61102581024169922
tp160
a(I1
g3
(g5
S'\x06\x81\x95C\x8b\x1cC@'
tRp161
F3.4401528835296631
tp162
a(I1
g3
(g5
S'\x06\x81\x95C\x8b\x1cC@'
tRp163
F0.040719985961914062
tp164
a(I1
g3
(g5
S'\xa8\xc6K7\x89\xe1C@'
tRp165
F0.042454004287719727
tp166
a(I1
g3
(g5
S'\xa8\xc6K7\x89\xe1C@'
tRp167
F0.021759033203125
tp168
a(I1
g3
(g5
S'\xa8\xc6K7\x89\xe1C@'
tRp169
F0.022035121917724609
tp170
a(I1
g3
(g5
S'\xa8\xc6K7\x89\xe1C@'
tRp171
F3.8385701179504395
tp172
a(I1
g3
(g5
S'\xa8\xc6K7\x89\xe1C@'
tRp173
F0.022477865219116211
tp174
a(I1
g3
(g5
S'\xa8\xc6K7\x89\xe1C@'
tRp175
F0.022711992263793945
tp176
a(I1
g3
(g5
S'\xa8\xc6K7\x89\xe1C@'
tRp177
F0.02308201789855957
tp178
a(I1
g3
(g5
S'\xa8\xc6K7\x89\xe1C@'
tRp179
F0.023339986801147461
tp180
a(I1
g3
(g5
S'\x06\x81\x95C\x8b\x1cC@'
tRp181
F4.0991780757904053
tp182
a(I1
g3
(g5
S'b\x10X9\xb4\xe80@'
tRp183
F0.11721491813659668
tp184
a(I1
g3
(g5
S'fffff\x063@'
tRp185
F0.1105349063873291
tp186
a(I1
g3
(g5
S'fffff\x063@'
tRp187
F0.069476842880249023
tp188
a(I1
g3
(g5
S'fffff\x063@'
tRp189
F0.073592901229858398
tp190
a(I1
g3
(g5
S'\xa8\xc6K7\x89\xe1C@'
tRp191
F4.5886240005493164
tp192
a(I1
g3
(g5
S'\xa8\xc6K7\x89\xe1C@'
tRp193
F0.026441812515258789
tp194
a(I1
g3
(g5
S'\xa8\xc6K7\x89\xe1C@'
tRp195
F0.026020050048828125
tp196
a(I1
g3
(g5
S'\xa8\xc6K7\x89\xe1C@'
tRp197
F0.027042865753173828
tp198
a(I1
g3
(g5
S'\xa8\xc6K7\x89\xe1C@'
tRp199
F0.026989936828613281
tp200
a(I1
g3
(g5
S'b\x10X9\xb4\xe80@'
tRp201
F4.8746631145477295
tp202
a(I1
g3
(g5
S'b\x10X9\xb4\xe80@'
tRp203
F0.086136102676391602
tp204
a(I1
g3
(g5
S'b\x10X9\xb4\xe80@'
tRp205
F0.086292028427124023
tp206
a(I1
g3
(g5
S'b\x10X9\xb4\xe80@'
tRp207
F0.086723089218139648
tp208
a(I1
g3
(g5
S'b\x10X9\xb4\xe80@'
tRp209
F0.087025165557861328
tp210
a(I1
g3
(g5
S'fffff\x063@'
tRp211
F5.1542418003082275
tp212
a(I1
g3
(g5
S'fffff\x063@'
tRp213
F0.092523097991943359
tp214
a(I1
g3
(g5
S'fffff\x063@'
tRp215
F0.1204369068145752
tp216
a(I1
g3
(g5
S'fffff\x063@'
tRp217
F0.082716941833496094
tp218
a(I1
g3
(g5
S'fffff\x063@'
tRp219
F0.083075046539306641
tp220
a(I1
g3
(g5
S'b\x10X9\xb4\xe80@'
tRp221
F5.3621189594268799
tp222
a(I1
g3
(g5
S'b\x10X9\xb4\xe80@'
tRp223
F0.11218500137329102
tp224
a(I1
g3
(g5
S'b\x10X9\xb4\xe80@'
tRp225
F0.11847305297851562
tp226
a(I1
g3
(g5
S'fffff\x063@'
tRp227
F0.095934152603149414
tp228
a(I1
g3
(g5
S'fffff\x063@'
tRp229
F0.094750165939331055
tp230
a(I1
g3
(g5
S'b\x10X9\xb4\xe80@'
tRp231
F5.7115390300750732
tp232
a(I1
g3
(g5
S'b\x10X9\xb4\xe80@'
tRp233
F0.11080598831176758
tp234
a(I1
g3
(g5
S'fffff\x063@'
tRp235
F0.10056805610656738
tp236
a(I1
g3
(g5
S'fffff\x063@'
tRp237
F0.11831402778625488
tp238
a(I1
g3
(g5
S'fffff\x063@'
tRp239
F0.098318099975585938
tp240
a(I1
g3
(g5
S'b\x10X9\xb4\xe80@'
tRp241
F5.809563159942627
tp242
a(I1
g3
(g5
S'b\x10X9\xb4\xe80@'
tRp243
F0.083024978637695312
tp244
a(I1
g3
(g5
S'b\x10X9\xb4\xe80@'
tRp245
F0.083158969879150391
tp246
a(I1
g3
(g5
S'b\x10X9\xb4\xe80@'
tRp247
F0.083581924438476562
tp248
a(I1
g3
(g5
S'b\x10X9\xb4\xe80@'
tRp249
F0.08371281623840332
tp250
a(I1
g3
(g5
S'fffff\x063@'
tRp251
F5.8720290660858154
tp252
a(I1
g3
(g5
S'fffff\x063@'
tRp253
F0.11133909225463867
tp254
a(I1
g3
(g5
S'fffff\x063@'
tRp255
F0.11184215545654297
tp256
a(I1
g3
(g5
S'fffff\x063@'
tRp257
F0.11199808120727539
tp258
a(I1
g3
(g5
S'fffff\x063@'
tRp259
F0.11237788200378418
tp260
a(I1
g3
(g5
S'fffff\x063@'
tRp261
F6.0089960098266602
tp262
a(I1
g3
(g5
S'fffff\x063@'
tRp263
F0.11586403846740723
tp264
a(I1
g3
(g5
S'fffff\x063@'
tRp265
F0.11040496826171875
tp266
a(I1
g3
(g5
S'fffff\x063@'
tRp267
F0.081233978271484375
tp268
a(I1
g3
(g5
S'fffff\x063@'
tRp269
F0.10043096542358398
tp270
a(I1
g3
(g5
S'fffff\x063@'
tRp271
F6.1564841270446777
tp272
a(I1
g3
(g5
S'fffff\x063@'
tRp273
F0.12967801094055176
tp274
a(I1
g3
(g5
S'fffff\x063@'
tRp275
F0.12945699691772461
tp276
a(I1
g3
(g5
S'fffff\x063@'
tRp277
F0.12267303466796875
tp278
a(I1
g3
(g5
S'fffff\x063@'
tRp279
F0.089015960693359375
tp280
a(I1
g3
(g5
S'fffff\x063@'
tRp281
F6.3436501026153564
tp282
a(I1
g3
(g5
S'fffff\x063@'
tRp283
F0.10257506370544434
tp284
a(I1
g3
(g5
S'fffff\x063@'
tRp285
F0.089311838150024414
tp286
a(I1
g3
(g5
S'fffff\x063@'
tRp287
F0.11838507652282715
tp288
a(I1
g3
(g5
S'fffff\x063@'
tRp289
F0.094012975692749023
tp290
a(I1
g3
(g5
S'fffff\x063@'
tRp291
F6.7221779823303223
tp292
a(I1
g3
(g5
S'fffff\x063@'
tRp293
F0.085646152496337891
tp294
a(I1
g3
(g5
S'b\x10X9\xb4\xe80@'
tRp295
F0.087143898010253906
tp296
a(I1
g3
(g5
S'fffff\x063@'
tRp297
F0.092739105224609375
tp298
a(I1
g3
(g5
S'fffff\x063@'
tRp299
F0.10208916664123535
tp300
a(I1
g3
(g5
S'fffff\x063@'
tRp301
F6.9546627998352051
tp302
a(I1
g3
(g5
S'b\x10X9\xb4\xe80@'
tRp303
F0.09215092658996582
tp304
a(I1
g3
(g5
S'fffff\x063@'
tRp305
F0.10011982917785645
tp306
a(I1
g3
(g5
S'b\x10X9\xb4\xe80@'
tRp307
F0.096477985382080078
tp308
a(I1
g3
(g5
S'fffff\x063@'
tRp309
F0.14647197723388672
tp310
a(I1
g3
(g5
S'fffff\x063@'
tRp311
F7.1959359645843506
tp312
a(I1
g3
(g5
S'fffff\x063@'
tRp313
F0.089331865310668945
tp314
a(I1
g3
(g5
S'b\x10X9\xb4\xe80@'
tRp315
F0.090112924575805664
tp316
a(I1
g3
(g5
S'b\x10X9\xb4\xe80@'
tRp317
F0.09809112548828125
tp318
a(I1
g3
(g5
S'b\x10X9\xb4\xe80@'
tRp319
F0.098534822463989258
tp320
a(I1
g3
(g5
S'fffff\x063@'
tRp321
F7.5287070274353027
tp322
a(I1
g3
(g5
S'fffff\x063@'
tRp323
F0.089266061782836914
tp324
a(I1
g3
(g5
S'fffff\x063@'
tRp325
F0.10804009437561035
tp326
a(I1
g3
(g5
S'b\x10X9\xb4\xe80@'
tRp327
F0.11748385429382324
tp328
a(I1
g3
(g5
S'b\x10X9\xb4\xe80@'
tRp329
F0.09849095344543457
tp330
a(I1
g3
(g5
S'fffff\x063@'
tRp331
F7.6478159427642822
tp332
a(I1
g3
(g5
S'fffff\x063@'
tRp333
F0.11313009262084961
tp334
a(I1
g3
(g5
S'fffff\x063@'
tRp335
F0.11315703392028809
tp336
a(I1
g3
(g5
S'fffff\x063@'
tRp337
F0.11338710784912109
tp338
a(I1
g3
(g5
S'fffff\x063@'
tRp339
F0.11214709281921387
tp340
aa(lp341
(I1
g3
(g5
S'\x00\x00\x00\x00\x00\x00\x00\x00'
tRp342
F0.017424106597900391
tp343
aa(lp344
(I1
g3
(g5
S'\xe9&1\x08\xac\\7@'
tRp345
F0.017239093780517578
tp346
a(I1
g3
(g5
S'\xf4\xfd\xd4x\xe9f%@'
tRp347
F0.035024166107177734
tp348
a(I1
g3
(g5
S'\x00\x00\x00\x00\x00\x00\x00\x00'
tRp349
F0.027847051620483398
tp350
aa(lp351
(I1
g3
(g5
S'z\x14\xaeG\xe1:L@'
tRp352
F0.017219066619873047
tp353
a(I1
g3
(g5
S'\x8e\xc2\xf5(\\\xafA@'
tRp354
F0.041782855987548828
tp355
a(I1
g3
(g5
S'\\\xbaI\x0c\x02\x8b;@'
tRp356
F0.020354986190795898
tp357
a(I1
g3
(g5
S'\\\xbaI\x0c\x02\x8b;@'
tRp358
F0.029283046722412109
tp359
a(I1
g3
(g5
S'\x00\x00\x00\x00\x00\x00\x00\x00'
tRp360
F0.018886089324951172
tp361
aa(lp362
(I1
g3
(g5
S'E\xb6\xf3\xfd\xd4\xe8G@'
tRp363
F0.017239809036254883
tp364
a(I1
g3
(g5
S'\x9c\xef\xa7\xc6K\xd78@'
tRp365
F0.034965038299560547
tp366
a(I1
g3
(g5
S'`\xbe\x9f\x1a/\xdd\x00@'
tRp367
F0.02034306526184082
tp368
a(I1
g3
(g5
S'`\xbe\x9f\x1a/\xdd\x00@'
tRp369
F0.041482925415039062
tp370
a(I1
g3
(g5
S'\x9c\xef\xa7\xc6K\xd78@'
tRp371
F0.018903017044067383
tp372
a(I1
g3
(g5
S'\x9c\xef\xa7\xc6K\xd78@'
tRp373
F2.6883292198181152
tp374
a(I1
g3
(g5
S'\x00\x00\x00\x00\x00\x00\x00\x00'
tRp375
F0.033230066299438477
tp376
aa(lp377
(I1
g3
(g5
S'\xfa~j\xbcts?@'
tRp378
F0.017279148101806641
tp379
a(I1
g3
(g5
S'\xfa~j\xbcts?@'
tRp380
F0.034997940063476562
tp381
a(I1
g3
(g5
S'\x00\x00\x00\x00\x00\x00\x00\x00'
tRp382
F0.027826070785522461
tp383
aa(lp384
(I1
g3
(g5
S'43333\x83C@'
tRp385
F0.017287969589233398
tp386
a(I1
g3
(g5
S'43333\x83C@'
tRp387
F0.034938812255859375
tp388
a(I1
g3
(g5
S'\xc8K7\x89A\xc01@'
tRp389
F0.027812004089355469
tp390
a(I1
g3
(g5
S'\xc8K7\x89A\xc01@'
tRp391
F0.040967941284179688
tp392
a(I1
g3
(g5
S'\xc8K7\x89A\xc01@'
tRp393
F0.040658950805664062
tp394
a(I1
g3
(g5
S'\xc8K7\x89A\xc01@'
tRp395
F2.673626184463501
tp396
a(I1
g3
(g5
S'\xc8K7\x89A\xc01@'
tRp397
F0.020182132720947266
tp398
a(I1
g3
(g5
S'\xc8K7\x89A\xc01@'
tRp399
F0.043840169906616211
tp400
a(I1
g3
(g5
S'\xc8K7\x89A\xc01@'
tRp401
F0.042819976806640625
tp402
a(I1
g3
(g5
S'\xc8K7\x89A\xc01@'
tRp403
F0.041925191879272461
tp404
a(I1
g3
(g5
S'\xc8K7\x89A\xc01@'
tRp405
F2.9494099617004395
tp406
a(I1
g3
(g5
S'\xc8K7\x89A\xc01@'
tRp407
F0.035820960998535156
tp408
a(I1
g3
(g5
S'\xc8K7\x89A\xc01@'
tRp409
F0.036260128021240234
tp410
a(I1
g3
(g5
S'\xc8K7\x89A\xc01@'
tRp411
F0.036728143692016602
tp412
a(I1
g3
(g5
S'\xc8K7\x89A\xc01@'
tRp413
F0.038177013397216797
tp414
a(I1
g3
(g5
S'\xc8K7\x89A\xc01@'
tRp415
F3.3120250701904297
tp416
a(I1
g3
(g5
S'\xc8K7\x89A\xc01@'
tRp417
F0.032117843627929688
tp418
a(I1
g3
(g5
S'\xc8K7\x89A\xc01@'
tRp419
F0.032415866851806641
tp420
a(I1
g3
(g5
S'\xc8K7\x89A\xc01@'
tRp421
F0.032670021057128906
tp422
a(I1
g3
(g5
S'\xc8K7\x89A\xc01@'
tRp423
F0.032978057861328125
tp424
a(I1
g3
(g5
S'\xc8K7\x89A\xc01@'
tRp425
F3.5761911869049072
tp426
a(I1
g3
(g5
S'\x8el\xe7\xfb\xa9q2@'
tRp427
F0.14247608184814453
tp428
a(I1
g3
(g5
S'\x00\x00\x00\x00\x00\x00\x00\x00'
tRp429
F0.1017920970916748
tp430
aa(lp431
(I1
g3
(g5
S'\xa6p=\n\xd7c9@'
tRp432
F0.017302036285400391
tp433
a(I1
g3
(g5
S'\x98\xed|?5^)@'
tRp434
F0.018046855926513672
tp435
a(I1
g3
(g5
S'\xa6p=\n\xd7c9@'
tRp436
F0.041496992111206055
tp437
a(I1
g3
(g5
S'\xa6p=\n\xd7c9@'
tRp438
F0.041786909103393555
tp439
a(I1
g3
(g5
S'\xa6p=\n\xd7c9@'
tRp440
F0.055451869964599609
tp441
a(I1
g3
(g5
S'\xa6p=\n\xd7c9@'
tRp442
F2.9365289211273193
tp443
a(I1
g3
(g5
S'\xa6p=\n\xd7c9@'
tRp444
F0.086066007614135742
tp445
a(I1
g3
(g5
S'\xb8\xf3\xfd\xd4xi)@'
tRp446
F0.13945603370666504
tp447
a(I1
g3
(g5
S'\xb8\xf3\xfd\xd4xi)@'
tRp448
F0.31671380996704102
tp449
a(I1
g3
(g5
S'\xb8\xf3\xfd\xd4xi)@'
tRp450
F0.28595709800720215
tp451
a(I1
g3
(g5
S'\xa6p=\n\xd7c9@'
tRp452
F3.7440841197967529
tp453
a(I1
g3
(g5
S'\xb8\xf3\xfd\xd4xi)@'
tRp454
F0.083269834518432617
tp455
a(I1
g3
(g5
S'\xb8\xf3\xfd\xd4xi)@'
tRp456
F0.0746917724609375
tp457
a(I1
g3
(g5
S'\xb8\xf3\xfd\xd4xi)@'
tRp458
F0.060012102127075195
tp459
a(I1
g3
(g5
S'\xb8\xf3\xfd\xd4xi)@'
tRp460
F0.066637992858886719
tp461
a(I1
g3
(g5
S'\xb8\xf3\xfd\xd4xi)@'
tRp462
F6.2104661464691162
tp463
a(I1
g3
(g5
S'\xb8\xf3\xfd\xd4xi)@'
tRp464
F2.1114819049835205
tp465
a(I1
g3
(g5
S'\xb8\xf3\xfd\xd4xi)@'
tRp466
F1.9437510967254639
tp467
a(I1
g3
(g5
S'\xb8\xf3\xfd\xd4xi)@'
tRp468
F1.6957988739013672
tp469
a(I1
g3
(g5
S'\x00\x00\x00\x00\x00\x00\x00\x00'
tRp470
F2.9232311248779297
tp471
aa(lp472
(I1
g3
(g5
S'\xda\xce\xf7S\xe3EM@'
tRp473
F0.017424106597900391
tp474
a(I1
g3
(g5
S'\xe8\xfb\xa9\xf1\xd2\xadE@'
tRp475
F0.034996986389160156
tp476
a(I1
g3
(g5
S'\xe8\xfb\xa9\xf1\xd2\xadE@'
tRp477
F0.020318984985351562
tp478
a(I1
g3
(g5
S'\xe8\xfb\xa9\xf1\xd2\xadE@'
tRp479
F0.035483837127685547
tp480
a(I1
g3
(g5
S'\xe8\xfb\xa9\xf1\xd2\xadE@'
tRp481
F0.027302980422973633
tp482
a(I1
g3
(g5
S'\xe0O\x8d\x97n\x92\x14@'
tRp483
F2.8326461315155029
tp484
a(I1
g3
(g5
S'\xe0O\x8d\x97n\x92\x14@'
tRp485
F0.078078031539916992
tp486
a(I1
g3
(g5
S'\xe0O\x8d\x97n\x92\x14@'
tRp487
F0.094506978988647461
tp488
a(I1
g3
(g5
S'\xe0O\x8d\x97n\x92\x14@'
tRp489
F0.12492108345031738
tp490
a(I1
g3
(g5
S'\xe0O\x8d\x97n\x92\x14@'
tRp491
F0.1792609691619873
tp492
a(I1
g3
(g5
S'\xe0O\x8d\x97n\x92\x14@'
tRp493
F3.3425219058990479
tp494
a(I1
g3
(g5
S'\xe0O\x8d\x97n\x92\x14@'
tRp495
F0.040115118026733398
tp496
a(I1
g3
(g5
S'\xe0O\x8d\x97n\x92\x14@'
tRp497
F0.043872833251953125
tp498
a(I1
g3
(g5
S'\xe0O\x8d\x97n\x92\x14@'
tRp499
F0.042965888977050781
tp500
a(I1
g3
(g5
S'\xe0O\x8d\x97n\x92\x14@'
tRp501
F0.044266939163208008
tp502
a(I1
g3
(g5
S'\xe0O\x8d\x97n\x92\x14@'
tRp503
F3.811776876449585
tp504
a(I1
g3
(g5
S'\xe0O\x8d\x97n\x92\x14@'
tRp505
F0.039170026779174805
tp506
a(I1
g3
(g5
S'\xe0O\x8d\x97n\x92\x14@'
tRp507
F0.046776056289672852
tp508
a(I1
g3
(g5
S'\xe0O\x8d\x97n\x92\x14@'
tRp509
F0.042643070220947266
tp510
a(I1
g3
(g5
S'\xe0O\x8d\x97n\x92\x14@'
tRp511
F0.042759895324707031
tp512
a(I1
g3
(g5
S'\xe0O\x8d\x97n\x92\x14@'
tRp513
F3.8741140365600586
tp514
a(I1
g3
(g5
S'\xe0O\x8d\x97n\x92\x14@'
tRp515
F0.053957939147949219
tp516
a(I1
g3
(g5
S'\xe0O\x8d\x97n\x92\x14@'
tRp517
F0.048843860626220703
tp518
a(I1
g3
(g5
S'\xe0O\x8d\x97n\x92\x14@'
tRp519
F0.048362016677856445
tp520
a(I1
g3
(g5
S'\xe0O\x8d\x97n\x92\x14@'
tRp521
F0.049474954605102539
tp522
a(I1
g3
(g5
S'\xe0O\x8d\x97n\x92\x14@'
tRp523
F4.0411491394042969
tp524
a(I1
g3
(g5
S'\xe0O\x8d\x97n\x92\x14@'
tRp525
F0.054991960525512695
tp526
a(I1
g3
(g5
S'\xe0O\x8d\x97n\x92\x14@'
tRp527
F0.055349111557006836
tp528
a(I1
g3
(g5
S'\xe0O\x8d\x97n\x92\x14@'
tRp529
F0.055591821670532227
tp530
a(I1
g3
(g5
S'\xe0O\x8d\x97n\x92\x14@'
tRp531
F0.055810928344726562
tp532
a(I1
g3
(g5
S'\xe0O\x8d\x97n\x92\x14@'
tRp533
F4.3560101985931396
tp534
a(I1
g3
(g5
S'\xe0O\x8d\x97n\x92\x14@'
tRp535
F0.061279058456420898
tp536
a(I1
g3
(g5
S'\xe0O\x8d\x97n\x92\x14@'
tRp537
F0.061660051345825195
tp538
a(I1
g3
(g5
S'\xe0O\x8d\x97n\x92\x14@'
tRp539
F0.061914920806884766
tp540
a(I1
g3
(g5
S'\xe0O\x8d\x97n\x92\x14@'
tRp541
F0.062148094177246094
tp542
a(I1
g3
(g5
S'\xe0O\x8d\x97n\x92\x14@'
tRp543
F4.5223350524902344
tp544
a(I1
g3
(g5
S'\xe0O\x8d\x97n\x92\x14@'
tRp545
F0.057786941528320312
tp546
a(I1
g3
(g5
S'\xe0O\x8d\x97n\x92\x14@'
tRp547
F0.058037042617797852
tp548
a(I1
g3
(g5
S'\xe0O\x8d\x97n\x92\x14@'
tRp549
F0.05837702751159668
tp550
a(I1
g3
(g5
S'\xe0O\x8d\x97n\x92\x14@'
tRp551
F0.058671951293945312
tp552
a(I1
g3
(g5
S'\xe0O\x8d\x97n\x92\x14@'
tRp553
F4.7869911193847656
tp554
a(I1
g3
(g5
S'\x00\x00\x00\x00\x00\x00\x00\x00'
tRp555
F0.48051309585571289
tp556
aa(lp557
(I1
g3
(g5
S'\xf4\xfd\xd4x\xe9\x86H@'
tRp558
F0.017265081405639648
tp559
a(I1
g3
(g5
S'<\n\xd7\xa3p\xbd2@'
tRp560
F0.034981966018676758
tp561
a(I1
g3
(g5
S'<\n\xd7\xa3p\xbd2@'
tRp562
F0.027841091156005859
tp563
a(I1
g3
(g5
S'\x00\x00\x00\x00\x00\x00\x00\x00'
tRp564
F0.028870105743408203
tp565
aa(lp566
(I1
g3
(g5
S'\xe8\xd0"\xdb\xf9\xbe8@'
tRp567
F0.017279863357543945
tp568
a(I1
g3
(g5
S' Zd;\xdfo>@'
tRp569
F0.034912109375
tp570
a(I1
g3
(g5
S' Zd;\xdfo>@'
tRp571
F0.027851104736328125
tp572
a(I1
g3
(g5
S' Zd;\xdfo>@'
tRp573
F0.028805971145629883
tp574
a(I1
g3
(g5
S' Zd;\xdfo>@'
tRp575
F0.028636932373046875
tp576
a(I1
g3
(g5
S' Zd;\xdfo>@'
tRp577
F2.6751670837402344
tp578
a(I1
g3
(g5
S'2\x08\xac\x1cZ$I@'
tRp579
F0.029595851898193359
tp580
a(I1
g3
(g5
S'2\x08\xac\x1cZ$I@'
tRp581
F0.039425134658813477
tp582
a(I1
g3
(g5
S'\xe0$\x06\x81\x95\xc3\x16@'
tRp583
F0.064426183700561523
tp584
a(I1
g3
(g5
S'\x80?5^\xba\x899@'
tRp585
F0.052706003189086914
tp586
a(I1
g3
(g5
S'\x80?5^\xba\x899@'
tRp587
F3.2642838954925537
tp588
a(I1
g3
(g5
S'\xe0$\x06\x81\x95\xc3\x16@'
tRp589
F0.89341306686401367
tp590
a(I1
g3
(g5
S'\xe0$\x06\x81\x95\xc3\x16@'
tRp591
F0.86140894889831543
tp592
a(I1
g3
(g5
S'\xe0$\x06\x81\x95\xc3\x16@'
tRp593
F1.2485997676849365
tp594
a(I1
g3
(g5
S'\xe0$\x06\x81\x95\xc3\x16@'
tRp595
F2.424307107925415
tp596
a(I1
g3
(g5
S'\x00\x00\x00\x00\x00\x00\x00\x00'
tRp597
F4.0632908344268799
tp598
aa(lp599
(I1
g3
(g5
S'\n\xd7\xa3p=\xfaC@'
tRp600
F0.017243146896362305
tp601
a(I1
g3
(g5
S'\x8al\xe7\xfb\xa9\x919@'
tRp602
F0.034870147705078125
tp603
a(I1
g3
(g5
S'\xbaI\x0c\x02+\xb7J@'
tRp604
F0.02777099609375
tp605
a(I1
g3
(g5
S'\xbaI\x0c\x02+\xb7J@'
tRp606
F0.028828859329223633
tp607
a(I1
g3
(g5
S'\x8al\xe7\xfb\xa9\x919@'
tRp608
F0.028553962707519531
tp609
a(I1
g3
(g5
S'\x8al\xe7\xfb\xa9\x919@'
tRp610
F2.6780128479003906
tp611
a(I1
g3
(g5
S'\x00\x00\x00\x00\x00\x00\x00\x00'
tRp612
F0.029723167419433594
tp613
aa(lp614
(I1
g3
(g5
S',\xd4\x9a\xe6\x1d\xe79@'
tRp615
F0.017217874526977539
tp616
a(I1
g3
(g5
S'\x9c\x11\xa5\xbd\xc1W"@'
tRp617
F0.041780948638916016
tp618
a(I1
g3
(g5
S'\x9c\x11\xa5\xbd\xc1W"@'
tRp619
F0.020330905914306641
tp620
a(I1
g3
(g5
S'\x9c\x11\xa5\xbd\xc1W"@'
tRp621
F0.029312849044799805
tp622
a(I1
g3
(g5
S'\xc2\x86\xa7W\xca\x129@'
tRp623
F0.018935918807983398
tp624
a(I1
g3
(g5
S'\xe8\xfb\xa9\xf1\xd2\xcd/@'
tRp625
F2.7056000232696533
tp626
a(I1
g3
(g5
S'\xe8\xfb\xa9\xf1\xd2\xcd/@'
tRp627
F0.039509057998657227
tp628
a(I1
g3
(g5
S'\x00\x00\x00\x00\x00\x00\x00\x00'
tRp629
F0.42798280715942383
tp630
aa(lp631
(I1
g3
(g5
S'\x84\xc0\xca\xa1E\xe6F@'
tRp632
F0.01725006103515625
tp633
a(I1
g3
(g5
S'\x00\x00\x00\x00\x00\x00\x00\x00'
tRp634
F0.01804804801940918
tp635
aa(lp636
(I1
g3
(g5
S'~?5^\xba)3@'
tRp637
F0.017215967178344727
tp638
a(I1
g3
(g5
S'\xd4Mb\x10X\xc9G@'
tRp639
F0.034940958023071289
tp640
a(I1
g3
(g5
S'\xd4Mb\x10X\xc9G@'
tRp641
F0.020284175872802734
tp642
a(I1
g3
(g5
S'\xd4Mb\x10X\xc9G@'
tRp643
F0.035459995269775391
tp644
a(I1
g3
(g5
S'\xd4Mb\x10X\xc9G@'
tRp645
F0.027420997619628906
tp646
a(I1
g3
(g5
S'*\\\x8f\xc2\xf5h<@'
tRp647
F2.8111979961395264
tp648
a(I1
g3
(g5
S'*\\\x8f\xc2\xf5h<@'
tRp649
F0.038006067276000977
tp650
a(I1
g3
(g5
S'*\\\x8f\xc2\xf5h<@'
tRp651
F0.045615911483764648
tp652
a(I1
g3
(g5
S'~?5^\xba\xe98@'
tRp653
F0.046921968460083008
tp654
a(I1
g3
(g5
S'~?5^\xba\xe98@'
tRp655
F0.028614997863769531
tp656
a(I1
g3
(g5
S'~?5^\xba\xe98@'
tRp657
F3.1154570579528809
tp658
a(I1
g3
(g5
S'~?5^\xba\xe98@'
tRp659
F0.020708084106445312
tp660
a(I1
g3
(g5
S'~?5^\xba\xe98@'
tRp661
F0.020936965942382812
tp662
a(I1
g3
(g5
S'~?5^\xba\xe98@'
tRp663
F0.021252870559692383
tp664
a(I1
g3
(g5
S'~?5^\xba\xe98@'
tRp665
F0.021556854248046875
tp666
a(I1
g3
(g5
S'\x00\x00\x00\x00\x00\x00\x00\x00'
tRp667
F3.4200220108032227
tp668
aa.