(lp1
(lp2
(I3
cnumpy.core.multiarray
scalar
p3
(cnumpy
dtype
p4
(S'f8'
I0
I1
tRp5
(I3
S'<'
NNNI-1
I-1
I0
tbS'h\x91\xed|?\xb5J@'
tRp6
F0.054708957672119141
tp7
a(I3
g3
(g5
S'\xa4p=\n\xd7\x03R@'
tRp8
F0.14011597633361816
tp9
a(I3
g3
(g5
S'h\x91\xed|?\xb5J@'
tRp10
F0.11573386192321777
tp11
a(I3
g3
(g5
S' \xb0rh\x91\r8@'
tRp12
F0.13273787498474121
tp13
a(I3
g3
(g5
S'-\xb2\x9d\xef\xa7NY@'
tRp14
F0.13655281066894531
tp15
a(I3
g3
(g5
S'`\x8f\xc2\xf5(\x1c!@'
tRp16
F5.729874849319458
tp17
a(I3
g3
(g5
S'`\x8f\xc2\xf5(\x1c!@'
tRp18
F0.20393896102905273
tp19
a(I3
g3
(g5
S'\x00\x00\x00\x00\x00\x00\x00\x00'
tRp20
F0.32078695297241211
tp21
aa(lp22
(I3
g3
(g5
S'\xda\xf9~j\xbc\xb4I@'
tRp23
F0.05174708366394043
tp24
a(I3
g3
(g5
S'\xff\xff\xff\xff\xff?@@'
tRp25
F0.10537195205688477
tp26
a(I3
g3
(g5
S'\xc0\xca\xa1E\xb6kW@'
tRp27
F0.06041717529296875
tp28
a(I3
g3
(g5
S'\xc0\xca\xa1E\xb6kW@'
tRp29
F0.05737614631652832
tp30
a(I3
g3
(g5
S'\xc0\xca\xa1E\xb6kW@'
tRp31
F0.059386014938354492
tp32
a(I3
g3
(g5
S'\xda\xf9~j\xbc\xb4I@'
tRp33
F4.5476999282836914
tp34
a(I3
g3
(g5
S'\xda\xf9~j\xbc\xb4I@'
tRp35
F0.47807693481445312
tp36
a(I3
g3
(g5
S'\xda\xf9~j\xbc\xb4I@'
tRp37
F0.8547208309173584
tp38
a(I3
g3
(g5
S'\xda\xf9~j\xbc\xb4I@'
tRp39
F0.5391538143157959
tp40
a(I3
g3
(g5
S'\x00\x00\x00\x00\x00\x00\x00\x00'
tRp41
F0.50441789627075195
tp42
aa(lp43
(I3
g3
(g5
S'\xf4\xfd\xd4x\xe9\x0eQ@'
tRp44
F0.051999092102050781
tp45
a(I3
g3
(g5
S'l\xe7\xfb\xa9\xf1BF@'
tRp46
F0.10188698768615723
tp47
a(I3
g3
(g5
S'l\xe7\xfb\xa9\xf1BF@'
tRp48
F0.12350296974182129
tp49
a(I3
g3
(g5
S'l\xe7\xfb\xa9\xf1BF@'
tRp50
F0.083741188049316406
tp51
a(I3
g3
(g5
S'l\xe7\xfb\xa9\xf1BF@'
tRp52
F0.13248801231384277
tp53
a(I3
g3
(g5
S'\xb4\xc8v\xbe\x9f\x1a1@'
tRp54
F5.9028229713439941
tp55
a(I3
g3
(g5
S'\xb4\xc8v\xbe\x9f\x1a1@'
tRp56
F0.25457906723022461
tp57
a(I3
g3
(g5
S'\xb4\xc8v\xbe\x9f\x1a1@'
tRp58
F0.28836202621459961
tp59
a(I3
g3
(g5
S'\xb4\xc8v\xbe\x9f\x1a1@'
tRp60
F0.47870898246765137
tp61
a(I3
g3
(g5
S'\x00\x00\x00\x00\x00\x00\x00\x00'
tRp62
F21.79367995262146
tp63
aa(lp64
(I3
g3
(g5
S'\xe4\xa5\x9b\xc4 \x00@@'
tRp65
F0.052050113677978516
tp66
a(I3
g3
(g5
S'\xe2z\x14\xaeGAH@'
tRp67
F0.13465189933776855
tp68
a(I3
g3
(g5
S'\xe4z\x14\xaeG\xa1>@'
tRp69
F0.11752200126647949
tp70
a(I3
g3
(g5
S'\xe4z\x14\xaeG\xa1>@'
tRp71
F0.15746307373046875
tp72
a(I3
g3
(g5
S'Ob\x10X9\xc4K@'
tRp73
F0.11916589736938477
tp74
a(I3
g3
(g5
S'\x12X9\xb4\xc8V2@'
tRp75
F6.4198410511016846
tp76
a(I3
g3
(g5
S'\x12X9\xb4\xc8V2@'
tRp77
F0.22334003448486328
tp78
a(I3
g3
(g5
S'\x00\x00\x00\x00\x00\x00\x00\x00'
tRp79
F0.35264897346496582
tp80
aa(lp81
(I3
g3
(g5
S'\x88A`\xe5\xd0\x02;@'
tRp82
F0.051884889602661133
tp83
a(I3
g3
(g5
S'\x08\xd7\xa3p=\xea6@'
tRp84
F0.13183283805847168
tp85
a(I3
g3
(g5
S'\xe0\xfb\xa9\xf1\xd2\xcd\x1d@'
tRp86
F0.1331942081451416
tp87
a(I3
g3
(g5
S'5^\xbaI\x0czS@'
tRp88
F0.1080479621887207
tp89
a(I3
g3
(g5
S'5^\xbaI\x0czS@'
tRp90
F0.065734148025512695
tp91
a(I3
g3
(g5
S'\x00\x00\x00\x00\x00\x00\x00\x00'
tRp92
F5.261591911315918
tp93
aa(lp94
(I3
g3
(g5
S'\xc8K7\x89A\xc0C@'
tRp95
F0.052116870880126953
tp96
a(I3
g3
(g5
S'\xc8K7\x89A\xc0C@'
tRp97
F0.14207792282104492
tp98
a(I3
g3
(g5
S'\xc8K7\x89A\xc0C@'
tRp99
F0.12303519248962402
tp100
a(I3
g3
(g5
S'@5^\xbaI<Z@'
tRp101
F0.12621021270751953
tp102
a(I3
g3
(g5
S'@5^\xbaI<Z@'
tRp103
F0.067116022109985352
tp104
a(I3
g3
(g5
S'\x01\x00\x00\x00\x00\xb0K@'
tRp105
F5.9048759937286377
tp106
a(I3
g3
(g5
S'\x01\x00\x00\x00\x00\xb0K@'
tRp107
F0.1341559886932373
tp108
a(I3
g3
(g5
S'\x00\x00\x00\x00\x00\x00\x00\x00'
tRp109
F0.13714408874511719
tp110
aa(lp111
(I3
g3
(g5
S'\x99\x99\x99\x99\x99IG@'
tRp112
F0.051614999771118164
tp113
a(I3
g3
(g5
S'\x99\x99\x99\x99\x99IG@'
tRp114
F0.12779116630554199
tp115
a(I3
g3
(g5
S'\xbct\x93\x18\x04\xd6A@'
tRp116
F0.068565130233764648
tp117
a(I3
g3
(g5
S'\x14\xaeG\xe1z\\V@'
tRp118
F0.073022127151489258
tp119
a(I3
g3
(g5
S'\x14\xaeG\xe1z\\V@'
tRp120
F0.070245981216430664
tp121
a(I3
g3
(g5
S'\x80\xc0\xca\xa1Ev.@'
tRp122
F6.1672570705413818
tp123
a(I3
g3
(g5
S'\x00\x00\x00\x00\x00\x00\x00\x00'
tRp124
F0.082303047180175781
tp125
aa(lp126
(I3
g3
(g5
S'D\x8bl\xe7\xfb\xe9G@'
tRp127
F0.051466941833496094
tp128
a(I3
g3
(g5
S'\x10\xac\x1cZd{*@'
tRp129
F0.12787890434265137
tp130
a(I3
g3
(g5
S'|\x14\xaeG\xe1\xc2U@'
tRp131
F0.13585090637207031
tp132
a(I3
g3
(g5
S'|\x14\xaeG\xe1\xc2U@'
tRp133
F0.063745975494384766
tp134
a(I3
g3
(g5
S'|\x14\xaeG\xe1\xc2U@'
tRp135
F0.066454887390136719
tp136
a(I3
g3
(g5
S'@\x8d\x97n\x12\x83\x01@'
tRp137
F4.5917479991912842
tp138
a(I3
g3
(g5
S'@\x8d\x97n\x12\x83\x01@'
tRp139
F0.080409049987792969
tp140
a(I3
g3
(g5
S'@\x8d\x97n\x12\x83\x01@'
tRp141
F0.23009085655212402
tp142
a(I3
g3
(g5
S'\x00\x00\x00\x00\x00\x00\x00\x00'
tRp143
F0.5664060115814209
tp144
aa(lp145
(I3
g3
(g5
S'\xac\x1cZd;\xefS@'
tRp146
F0.051874876022338867
tp147
a(I3
g3
(g5
S'H\xe1z\x14\xae\xd7A@'
tRp148
F0.11581301689147949
tp149
a(I3
g3
(g5
S'\xc4\xca\xa1E\xb6\x935@'
tRp150
F0.17671513557434082
tp151
a(I3
g3
(g5
S'\x00\x00\x00\x00\x00\x00\x00\x00'
tRp152
F0.12996196746826172
tp153
aa(lp154
(I3
g3
(g5
S'!\xb0rh\x91mN@'
tRp155
F0.051959037780761719
tp156
a(I3
g3
(g5
S'\x08\xac\x1cZd\xdbE@'
tRp157
F0.13008999824523926
tp158
a(I3
g3
(g5
S'\xb0\xc8v\xbe\x9f\x1a#@'
tRp159
F0.13803815841674805
tp160
a(I3
g3
(g5
S'\xfe\xd4x\xe9&\xc1W@'
tRp161
F0.062153100967407227
tp162
a(I3
g3
(g5
S'\xfe\xd4x\xe9&\xc1W@'
tRp163
F0.059140920639038086
tp164
a(I3
g3
(g5
S'\x00\x00\x00\x00\x00\x00\x00\x00'
tRp165
F5.6882560253143311
tp166
aa(lp167
(I3
g3
(g5
S'\xdc\xf9~j\xbc\xc4J@'
tRp168
F0.051915168762207031
tp169
a(I3
g3
(g5
S',\x87\x16\xd9\xce\x87N@'
tRp170
F0.11777901649475098
tp171
a(I3
g3
(g5
S'\xc0t\x93\x18\x04V\x16@'
tRp172
F0.14907979965209961
tp173
a(I3
g3
(g5
S'\x00\x00\x00\x00\x00\x00\x00\x00'
tRp174
F0.070488929748535156
tp175
aa(lp176
(I3
g3
(g5
S'\xb2\x9d\xef\xa7\xc6\xeb;@'
tRp177
F0.051764011383056641
tp178
a(I3
g3
(g5
S'\xb2\x9d\xef\xa7\xc6\xeb;@'
tRp179
F0.1247251033782959
tp180
a(I3
g3
(g5
S'\xdfO\x8d\x97nJR@'
tRp181
F0.11844396591186523
tp182
a(I3
g3
(g5
S'\xdfO\x8d\x97nJR@'
tRp183
F0.057420015335083008
tp184
a(I3
g3
(g5
S'\xdfO\x8d\x97nJR@'
tRp185
F0.060945034027099609
tp186
a(I3
g3
(g5
S'\xa6\x9b\xc4 \xb0RA@'
tRp187
F4.7864840030670166
tp188
a(I3
g3
(g5
S'\xa6\x9b\xc4 \xb0RA@'
tRp189
F0.076627016067504883
tp190
a(I3
g3
(g5
S'\x00\x00\x00\x00\x00\x00\x00\x00'
tRp191
F0.091819047927856445
tp192
aa(lp193
(I3
g3
(g5
S'\xf8S\xe3\xa5\x9b$;@'
tRp194
F0.051566839218139648
tp195
a(I3
g3
(g5
S'\xd8\xce\xf7S\xe3\xb5L@'
tRp196
F0.12239909172058105
tp197
a(I3
g3
(g5
S'\xf8S\xe3\xa5\x9b$;@'
tRp198
F0.15038204193115234
tp199
a(I3
g3
(g5
S'\x00\x00\x00\x00\x00\x00\x00\x00'
tRp200
F0.063323020935058594
tp201
aa(lp202
(I3
g3
(g5
S'\x94C\x8bl\xe7KL@'
tRp203
F0.051745891571044922
tp204
a(I3
g3
(g5
S'<\n\xd7\xa3p\xbd8@'
tRp205
F0.11280512809753418
tp206
a(I3
g3
(g5
S'\x95C\x8bl\xe7\xdbS@'
tRp207
F0.062532186508178711
tp208
a(I3
g3
(g5
S'\x95C\x8bl\xe7\xdbS@'
tRp209
F0.057495832443237305
tp210
a(I3
g3
(g5
S'\x95C\x8bl\xe7\xdbS@'
tRp211
F0.059657096862792969
tp212
a(I3
g3
(g5
S'@\xdd$\x06\x81\x95\xfd?'
tRp213
F4.395892858505249
tp214
a(I3
g3
(g5
S'@\xdd$\x06\x81\x95\xfd?'
tRp215
F0.071470975875854492
tp216
a(I3
g3
(g5
S'@\xdd$\x06\x81\x95\xfd?'
tRp217
F0.10239005088806152
tp218
a(I3
g3
(g5
S'@\xdd$\x06\x81\x95\xfd?'
tRp219
F0.10541605949401855
tp220
a(I3
g3
(g5
S'@\xdd$\x06\x81\x95\xfd?'
tRp221
F0.10712289810180664
tp222
a(I3
g3
(g5
S'@\xdd$\x06\x81\x95\xfd?'
tRp223
F5.1708629131317139
tp224
a(I3
g3
(g5
S'@\xdd$\x06\x81\x95\xfd?'
tRp225
F0.11483407020568848
tp226
a(I3
g3
(g5
S'@\xdd$\x06\x81\x95\xfd?'
tRp227
F0.11654114723205566
tp228
a(I3
g3
(g5
S'@\xdd$\x06\x81\x95\xfd?'
tRp229
F0.11814498901367188
tp230
a(I3
g3
(g5
S'@\xdd$\x06\x81\x95\xfd?'
tRp231
F0.12000703811645508
tp232
a(I3
g3
(g5
S'\x95C\x8bl\xe7\xdbS@'
tRp233
F5.7592740058898926
tp234
a(I3
g3
(g5
S'\x95C\x8bl\xe7\xdbS@'
tRp235
F0.078737974166870117
tp236
a(I3
g3
(g5
S'\x95C\x8bl\xe7\xdbS@'
tRp237
F0.081111907958984375
tp238
a(I3
g3
(g5
S'\x95C\x8bl\xe7\xdbS@'
tRp239
F0.082020044326782227
tp240
a(I3
g3
(g5
S'\x95C\x8bl\xe7\xdbS@'
tRp241
F0.083933115005493164
tp242
a(I3
g3
(g5
S'@\xdd$\x06\x81\x95\xfd?'
tRp243
F8.3204531669616699
tp244
a(I3
g3
(g5
S'@\xdd$\x06\x81\x95\xfd?'
tRp245
F1.4249870777130127
tp246
a(I3
g3
(g5
S'@\xdd$\x06\x81\x95\xfd?'
tRp247
F1.4196820259094238
tp248
a(I3
g3
(g5
S'@\xdd$\x06\x81\x95\xfd?'
tRp249
F1.3407659530639648
tp250
a(I3
g3
(g5
S'@\xdd$\x06\x81\x95\xfd?'
tRp251
F1.3531129360198975
tp252
a(I3
g3
(g5
S'@\xdd$\x06\x81\x95\xfd?'
tRp253
F8.8306591510772705
tp254
a(I3
g3
(g5
S'@\xdd$\x06\x81\x95\xfd?'
tRp255
F0.37932491302490234
tp256
a(I3
g3
(g5
S'@\xdd$\x06\x81\x95\xfd?'
tRp257
F0.36023116111755371
tp258
a(I3
g3
(g5
S'@\xdd$\x06\x81\x95\xfd?'
tRp259
F0.3633430004119873
tp260
a(I3
g3
(g5
S'@\xdd$\x06\x81\x95\xfd?'
tRp261
F0.41045784950256348
tp262
a(I3
g3
(g5
S'@\xdd$\x06\x81\x95\xfd?'
tRp263
F10.447931051254272
tp264
a(I3
g3
(g5
S'@\xdd$\x06\x81\x95\xfd?'
tRp265
F1.6476371288299561
tp266
a(I3
g3
(g5
S'@\xdd$\x06\x81\x95\xfd?'
tRp267
F1.6538288593292236
tp268
a(I3
g3
(g5
S'@\xdd$\x06\x81\x95\xfd?'
tRp269
F1.6656639575958252
tp270
a(I3
g3
(g5
S'@\xdd$\x06\x81\x95\xfd?'
tRp271
F1.6581640243530273
tp272
a(I3
g3
(g5
S'@\xdd$\x06\x81\x95\xfd?'
tRp273
F11.982084035873413
tp274
a(I3
g3
(g5
S'@\xdd$\x06\x81\x95\xfd?'
tRp275
F1.5931470394134521
tp276
a(I3
g3
(g5
S'@\xdd$\x06\x81\x95\xfd?'
tRp277
F1.5969328880310059
tp278
a(I3
g3
(g5
S'@\xdd$\x06\x81\x95\xfd?'
tRp279
F1.6116158962249756
tp280
a(I3
g3
(g5
S'@\xdd$\x06\x81\x95\xfd?'
tRp281
F1.6406841278076172
tp282
a(I3
g3
(g5
S'@\xdd$\x06\x81\x95\xfd?'
tRp283
F12.787434101104736
tp284
a(I3
g3
(g5
S'@\xdd$\x06\x81\x95\xfd?'
tRp285
F1.6252720355987549
tp286
a(I3
g3
(g5
S'@\xdd$\x06\x81\x95\xfd?'
tRp287
F1.6362738609313965
tp288
a(I3
g3
(g5
S'@\xdd$\x06\x81\x95\xfd?'
tRp289
F1.6219089031219482
tp290
a(I3
g3
(g5
S'@\xdd$\x06\x81\x95\xfd?'
tRp291
F1.6370589733123779
tp292
a(I3
g3
(g5
S'@\xdd$\x06\x81\x95\xfd?'
tRp293
F13.197748899459839
tp294
a(I3
g3
(g5
S'@\xdd$\x06\x81\x95\xfd?'
tRp295
F1.5552041530609131
tp296
a(I3
g3
(g5
S'@\xdd$\x06\x81\x95\xfd?'
tRp297
F1.5921711921691895
tp298
a(I3
g3
(g5
S'@\xdd$\x06\x81\x95\xfd?'
tRp299
F1.6702578067779541
tp300
a(I3
g3
(g5
S'@\xdd$\x06\x81\x95\xfd?'
tRp301
F1.6566550731658936
tp302
aa(lp303
(I3
g3
(g5
S'\x94\x18\x04V\x0e\x11`@'
tRp304
F0.052336931228637695
tp305
a(I3
g3
(g5
S'\x1a\x04V\x0e-\xc2V@'
tRp306
F0.14111804962158203
tp307
a(I3
g3
(g5
S'\\d;\xdfO\x1dN@'
tRp308
F0.14014887809753418
tp309
a(I3
g3
(g5
S'\\d;\xdfO\x1dN@'
tRp310
F0.12871503829956055
tp311
a(I3
g3
(g5
S'\xf6\xfd\xd4x\xe96C@'
tRp312
F0.13632082939147949
tp313
a(I3
g3
(g5
S'\x00\x00\x00\x00\x00\x00\x00\x00'
tRp314
F7.1565871238708496
tp315
aa(lp316
(I3
g3
(g5
S'J\x0c\x02+\x87\xd6J@'
tRp317
F0.052041053771972656
tp318
a(I3
g3
(g5
S'\xa6\x9b\xc4 \xb0\xe2G@'
tRp319
F0.12256622314453125
tp320
a(I3
g3
(g5
S'\xa6\x9b\xc4 \xb0\xe2G@'
tRp321
F0.13314390182495117
tp322
a(I3
g3
(g5
S' \x85\xebQ\xb8\xde=@'
tRp323
F0.07087397575378418
tp324
a(I3
g3
(g5
S'X\xb8\x1e\x85\xeb\xd1 @'
tRp325
F0.080984830856323242
tp326
a(I3
g3
(g5
S'.\xb2\x9d\xef\xa7\xe61@'
tRp327
F4.4134941101074219
tp328
a(I3
g3
(g5
S'.\xb2\x9d\xef\xa7\xe61@'
tRp329
F0.07358098030090332
tp330
a(I3
g3
(g5
S'\x00\x00\x00\x00\x00\x00\x00\x00'
tRp331
F0.094563961029052734
tp332
aa(lp333
(I3
g3
(g5
S'\xd1Mb\x10X\x89G@'
tRp334
F0.052067041397094727
tp335
a(I3
g3
(g5
S'dffff\x862@'
tRp336
F0.11760497093200684
tp337
a(I3
g3
(g5
S'6\xb4\xc8v\xbe\xdf5@'
tRp338
F0.059087038040161133
tp339
a(I3
g3
(g5
S'6\xb4\xc8v\xbe\xdf5@'
tRp340
F0.1140599250793457
tp341
a(I3
g3
(g5
S'<5^\xbaI\x8c<@'
tRp342
F0.11722803115844727
tp343
a(I3
g3
(g5
S'\xec|?5^:;@'
tRp344
F4.9566528797149658
tp345
a(I3
g3
(g5
S'dffff\x862@'
tRp346
F0.083595037460327148
tp347
a(I3
g3
(g5
S'dffff\x862@'
tRp348
F0.079655885696411133
tp349
a(I3
g3
(g5
S'dffff\x862@'
tRp350
F0.081833124160766602
tp351
a(I3
g3
(g5
S'\x00\x00\x00\x00\x00\x00\x00\x00'
tRp352
F0.076756954193115234
tp353
aa(lp354
(I3
g3
(g5
S'@5^\xbaI\xdcQ@'
tRp355
F0.051888942718505859
tp356
a(I3
g3
(g5
S' \x85\xebQ\xb8\xfe<@'
tRp357
F0.12801814079284668
tp358
a(I3
g3
(g5
S'x\xbe\x9f\x1a/\xedJ@'
tRp359
F0.12482118606567383
tp360
a(I3
g3
(g5
S' \x85\xebQ\xb8\xfe<@'
tRp361
F0.063282012939453125
tp362
a(I3
g3
(g5
S'\xf8(\\\x8f\xc252@'
tRp363
F0.12804603576660156
tp364
a(I3
g3
(g5
S'\x00\x00\x00\x00\x00\x00\x00\x00'
tRp365
F4.802138090133667
tp366
aa(lp367
(I3
g3
(g5
S'{\x14\xaeG\xe1zD@'
tRp368
F0.051933050155639648
tp369
a(I3
g3
(g5
S'{\x14\xaeG\xe1zD@'
tRp370
F0.10144495964050293
tp371
a(I3
g3
(g5
S'6^\xbaI\x0c\xf2O@'
tRp372
F0.05998992919921875
tp373
a(I3
g3
(g5
S'6^\xbaI\x0c\xf2O@'
tRp374
F0.057754993438720703
tp375
a(I3
g3
(g5
S'6^\xbaI\x0c\xf2O@'
tRp376
F0.060014009475708008
tp377
a(I3
g3
(g5
S'\x00y\xe9&1\x08\xec?'
tRp378
F4.9537742137908936
tp379
a(I3
g3
(g5
S'\x00y\xe9&1\x08\xec?'
tRp380
F0.089480876922607422
tp381
a(I3
g3
(g5
S'\x00y\xe9&1\x08\xec?'
tRp382
F0.085583925247192383
tp383
a(I3
g3
(g5
S'\x00y\xe9&1\x08\xec?'
tRp384
F0.085835933685302734
tp385
a(I3
g3
(g5
S'\x00y\xe9&1\x08\xec?'
tRp386
F0.087150096893310547
tp387
a(I3
g3
(g5
S'\x00y\xe9&1\x08\xec?'
tRp388
F5.3361580371856689
tp389
a(I3
g3
(g5
S'\x00y\xe9&1\x08\xec?'
tRp390
F0.093261003494262695
tp391
a(I3
g3
(g5
S'\x00y\xe9&1\x08\xec?'
tRp392
F0.13892889022827148
tp393
a(I3
g3
(g5
S'\x00y\xe9&1\x08\xec?'
tRp394
F0.098019838333129883
tp395
a(I3
g3
(g5
S'\x00y\xe9&1\x08\xec?'
tRp396
F0.099791049957275391
tp397
a(I3
g3
(g5
S'\x00y\xe9&1\x08\xec?'
tRp398
F5.975139856338501
tp399
a(I3
g3
(g5
S'\x00y\xe9&1\x08\xec?'
tRp400
F0.089953184127807617
tp401
a(I3
g3
(g5
S'\x00y\xe9&1\x08\xec?'
tRp402
F0.091993808746337891
tp403
a(I3
g3
(g5
S'\x00y\xe9&1\x08\xec?'
tRp404
F0.094141960144042969
tp405
a(I3
g3
(g5
S'\x00y\xe9&1\x08\xec?'
tRp406
F0.095036983489990234
tp407
a(I3
g3
(g5
S'\x00y\xe9&1\x08\xec?'
tRp408
F6.6883361339569092
tp409
a(I3
g3
(g5
S'\x00y\xe9&1\x08\xec?'
tRp410
F0.12474703788757324
tp411
a(I3
g3
(g5
S'\x00y\xe9&1\x08\xec?'
tRp412
F0.12590694427490234
tp413
a(I3
g3
(g5
S'\x00y\xe9&1\x08\xec?'
tRp414
F0.1272430419921875
tp415
a(I3
g3
(g5
S'\x00y\xe9&1\x08\xec?'
tRp416
F0.12920808792114258
tp417
a(I3
g3
(g5
S'\x00y\xe9&1\x08\xec?'
tRp418
F7.253849983215332
tp419
a(I3
g3
(g5
S'\x00y\xe9&1\x08\xec?'
tRp420
F0.13126206398010254
tp421
a(I3
g3
(g5
S'\x00y\xe9&1\x08\xec?'
tRp422
F0.13302183151245117
tp423
a(I3
g3
(g5
S'\x00y\xe9&1\x08\xec?'
tRp424
F0.13485193252563477
tp425
a(I3
g3
(g5
S'\x00y\xe9&1\x08\xec?'
tRp426
F0.1366269588470459
tp427
a(I3
g3
(g5
S'\x00y\xe9&1\x08\xec?'
tRp428
F8.0439131259918213
tp429
a(I3
g3
(g5
S'\x00y\xe9&1\x08\xec?'
tRp430
F0.12830591201782227
tp431
a(I3
g3
(g5
S'\x00y\xe9&1\x08\xec?'
tRp432
F0.12983489036560059
tp433
a(I3
g3
(g5
S'\x00y\xe9&1\x08\xec?'
tRp434
F0.13180303573608398
tp435
a(I3
g3
(g5
S'\x00y\xe9&1\x08\xec?'
tRp436
F0.13392090797424316
tp437
a(I3
g3
(g5
S'\x00y\xe9&1\x08\xec?'
tRp438
F8.71038818359375
tp439
a(I3
g3
(g5
S'\x00y\xe9&1\x08\xec?'
tRp440
F0.13683104515075684
tp441
a(I3
g3
(g5
S'\x00y\xe9&1\x08\xec?'
tRp442
F0.1386711597442627
tp443
a(I3
g3
(g5
S'\x00y\xe9&1\x08\xec?'
tRp444
F0.14085102081298828
tp445
a(I3
g3
(g5
S'\x00y\xe9&1\x08\xec?'
tRp446
F0.14245986938476562
tp447
a(I3
g3
(g5
S'\x00y\xe9&1\x08\xec?'
tRp448
F9.2366631031036377
tp449
a(I3
g3
(g5
S'\x00y\xe9&1\x08\xec?'
tRp450
F0.1455230712890625
tp451
a(I3
g3
(g5
S'\x00y\xe9&1\x08\xec?'
tRp452
F0.14705705642700195
tp453
a(I3
g3
(g5
S'\x00y\xe9&1\x08\xec?'
tRp454
F0.14875483512878418
tp455
a(I3
g3
(g5
S'\x00y\xe9&1\x08\xec?'
tRp456
F0.15053606033325195
tp457
a(I3
g3
(g5
S'\x00y\xe9&1\x08\xec?'
tRp458
F9.8775508403778076
tp459
a(I3
g3
(g5
S'\x00y\xe9&1\x08\xec?'
tRp460
F0.15436911582946777
tp461
a(I3
g3
(g5
S'\x00\x00\x00\x00\x00\x00\x00\x00'
tRp462
F0.1652219295501709
tp463
aa(lp464
(I3
g3
(g5
S'V\x0e-\xb2\x9d\x87W@'
tRp465
F0.05215907096862793
tp466
a(I3
g3
(g5
S'\\d;\xdfO\r7@'
tRp467
F0.12820982933044434
tp468
a(I3
g3
(g5
S'\\d;\xdfO\r7@'
tRp469
F0.11731481552124023
tp470
a(I3
g3
(g5
S'\xd1"\xdb\xf9~zV@'
tRp471
F0.085227012634277344
tp472
a(I3
g3
(g5
S'\xd1"\xdb\xf9~zV@'
tRp473
F0.059776067733764648
tp474
a(I3
g3
(g5
S'\n\xd7\xa3p=\xeaH@'
tRp475
F5.4755079746246338
tp476
a(I3
g3
(g5
S'\n\xd7\xa3p=\xeaH@'
tRp477
F0.36528182029724121
tp478
a(I3
g3
(g5
S'\n\xd7\xa3p=\xeaH@'
tRp479
F0.37083911895751953
tp480
a(I3
g3
(g5
S'\n\xd7\xa3p=\xeaH@'
tRp481
F0.19730997085571289
tp482
a(I3
g3
(g5
S'\xbaI\x0c\x02+wM@'
tRp483
F0.37694907188415527
tp484
a(I3
g3
(g5
S'D\xb6\xf3\xfd\xd4\xd82@'
tRp485
F7.1673519611358643
tp486
a(I3
g3
(g5
S'D\xb6\xf3\xfd\xd4\xd82@'
tRp487
F0.31305193901062012
tp488
a(I3
g3
(g5
S'D\xb6\xf3\xfd\xd4\xd82@'
tRp489
F1.6557497978210449
tp490
a(I3
g3
(g5
S'@\xb8\x1e\x85\xeb\xd1\x10@'
tRp491
F1.540302038192749
tp492
a(I3
g3
(g5
S'@\xb8\x1e\x85\xeb\xd1\x10@'
tRp493
F1.058535099029541
tp494
a(I3
g3
(g5
S'D\xb6\xf3\xfd\xd4\xd82@'
tRp495
F9.7595500946044922
tp496
a(I3
g3
(g5
S'D\xb6\xf3\xfd\xd4\xd82@'
tRp497
F0.98327803611755371
tp498
a(I3
g3
(g5
S'D\xb6\xf3\xfd\xd4\xd82@'
tRp499
F1.385530948638916
tp500
a(I3
g3
(g5
S'D\xb6\xf3\xfd\xd4\xd82@'
tRp501
F0.91341590881347656
tp502
a(I3
g3
(g5
S'D\xb6\xf3\xfd\xd4\xd82@'
tRp503
F1.01409912109375
tp504
a(I3
g3
(g5
S'D\xb6\xf3\xfd\xd4\xd82@'
tRp505
F10.703006982803345
tp506
a(I3
g3
(g5
S'D\xb6\xf3\xfd\xd4\xd82@'
tRp507
F1.0673599243164062
tp508
a(I3
g3
(g5
S'D\xb6\xf3\xfd\xd4\xd82@'
tRp509
F1.978754997253418
tp510
a(I3
g3
(g5
S'D\xb6\xf3\xfd\xd4\xd82@'
tRp511
F1.9917168617248535
tp512
a(I3
g3
(g5
S'D\xb6\xf3\xfd\xd4\xd82@'
tRp513
F2.1738920211791992
tp514
a(I3
g3
(g5
S'D\xb6\xf3\xfd\xd4\xd82@'
tRp515
F12.137020111083984
tp516
a(I3
g3
(g5
S'D\xb6\xf3\xfd\xd4\xd82@'
tRp517
F1.9813761711120605
tp518
a(I3
g3
(g5
S'D\xb6\xf3\xfd\xd4\xd82@'
tRp519
F1.3001301288604736
tp520
a(I3
g3
(g5
S'D\xb6\xf3\xfd\xd4\xd82@'
tRp521
F0.88914203643798828
tp522
a(I3
g3
(g5
S'D\xb6\xf3\xfd\xd4\xd82@'
tRp523
F0.77495193481445312
tp524
a(I3
g3
(g5
S'D\xb6\xf3\xfd\xd4\xd82@'
tRp525
F12.256705045700073
tp526
a(I3
g3
(g5
S'D\xb6\xf3\xfd\xd4\xd82@'
tRp527
F0.99339008331298828
tp528
a(I3
g3
(g5
S'D\xb6\xf3\xfd\xd4\xd82@'
tRp529
F1.1116278171539307
tp530
a(I3
g3
(g5
S'D\xb6\xf3\xfd\xd4\xd82@'
tRp531
F1.0883269309997559
tp532
a(I3
g3
(g5
S'D\xb6\xf3\xfd\xd4\xd82@'
tRp533
F1.0611908435821533
tp534
a(I3
g3
(g5
S'D\xb6\xf3\xfd\xd4\xd82@'
tRp535
F12.785299062728882
tp536
a(I3
g3
(g5
S'D\xb6\xf3\xfd\xd4\xd82@'
tRp537
F1.0187990665435791
tp538
a(I3
g3
(g5
S'D\xb6\xf3\xfd\xd4\xd82@'
tRp539
F1.0327370166778564
tp540
a(I3
g3
(g5
S'D\xb6\xf3\xfd\xd4\xd82@'
tRp541
F1.1499111652374268
tp542
a(I3
g3
(g5
S'D\xb6\xf3\xfd\xd4\xd82@'
tRp543
F0.96717405319213867
tp544
a(I3
g3
(g5
S'\xd1"\xdb\xf9~zV@'
tRp545
F12.344964981079102
tp546
a(I3
g3
(g5
S'\xd1"\xdb\xf9~zV@'
tRp547
F0.12532210350036621
tp548
a(I3
g3
(g5
S'\xd1"\xdb\xf9~zV@'
tRp549
F0.12681913375854492
tp550
a(I3
g3
(g5
S'\xd1"\xdb\xf9~zV@'
tRp551
F0.12698721885681152
tp552
a(I3
g3
(g5
S'\xd1"\xdb\xf9~zV@'
tRp553
F0.13135600090026855
tp554
a(I3
g3
(g5
S'D\xb6\xf3\xfd\xd4\xd82@'
tRp555
F13.853656053543091
tp556
a(I3
g3
(g5
S'D\xb6\xf3\xfd\xd4\xd82@'
tRp557
F0.88581204414367676
tp558
a(I3
g3
(g5
S'D\xb6\xf3\xfd\xd4\xd82@'
tRp559
F0.93921804428100586
tp560
a(I3
g3
(g5
S'D\xb6\xf3\xfd\xd4\xd82@'
tRp561
F1.1320970058441162
tp562
a(I3
g3
(g5
S'D\xb6\xf3\xfd\xd4\xd82@'
tRp563
F1.1241171360015869
tp564
aa.