(lp1
(lp2
(I3
cnumpy.core.multiarray
scalar
p3
(cnumpy
dtype
p4
(S'f8'
I0
I1
tRp5
(I3
S'<'
NNNI-1
I-1
I0
tbS'\xe0z\x14\xaeG\xe1-@'
tRp6
F0.036137104034423828
tp7
a(I3
g3
(g5
S'\xdfO\x8d\x97nr9@'
tRp8
F0.078104019165039062
tp9
a(I3
g3
(g5
S'<\xdfO\x8d\x97.%@'
tRp10
F0.11082315444946289
tp11
a(I3
g3
(g5
S'<\xdfO\x8d\x97.%@'
tRp12
F0.069200992584228516
tp13
a(I3
g3
(g5
S'<\xdfO\x8d\x97.%@'
tRp14
F0.10391402244567871
tp15
a(I3
g3
(g5
S'<\xdfO\x8d\x97.%@'
tRp16
F4.2849438190460205
tp17
a(I3
g3
(g5
S'<\xdfO\x8d\x97.%@'
tRp18
F0.10903096199035645
tp19
a(I3
g3
(g5
S'<\xdfO\x8d\x97.%@'
tRp20
F0.11192822456359863
tp21
a(I3
g3
(g5
S'<\xdfO\x8d\x97.%@'
tRp22
F0.10317492485046387
tp23
a(I3
g3
(g5
S'<\xdfO\x8d\x97.%@'
tRp24
F0.10715007781982422
tp25
a(I3
g3
(g5
S'<\xdfO\x8d\x97.%@'
tRp26
F4.8183698654174805
tp27
a(I3
g3
(g5
S'<\xdfO\x8d\x97.%@'
tRp28
F3.3145899772644043
tp29
a(I3
g3
(g5
S'<\xdfO\x8d\x97.%@'
tRp30
F2.6581549644470215
tp31
a(I3
g3
(g5
S'<\xdfO\x8d\x97.%@'
tRp32
F2.1759400367736816
tp33
a(I3
g3
(g5
S'<\xdfO\x8d\x97.%@'
tRp34
F4.0347671508789062
tp35
a(I3
g3
(g5
S'\x00\x00\x00\x00\x00\x00\x00\x00'
tRp36
F7.6201920509338379
tp37
aa(lp38
(I3
g3
(g5
S'\x00\x00\x00\x00\x00\x00\x00\x00'
tRp39
F0.036084890365600586
tp40
aa(lp41
(I3
g3
(g5
S'x\xe9&1\x08\x8c5@'
tRp42
F0.035869121551513672
tp43
a(I3
g3
(g5
S'x\xe9&1\x08\x8c5@'
tRp44
F0.088397979736328125
tp45
a(I3
g3
(g5
S'\x00\x00\x00\x00\x00\x00\x00\x00'
tRp46
F0.13244104385375977
tp47
aa(lp48
(I3
g3
(g5
S'p\x12\x83\xc0\xcaa!@'
tRp49
F0.035715818405151367
tp50
a(I3
g3
(g5
S'\x00\x00\x00\x00\x00\x00\x00\x00'
tRp51
F0.084347009658813477
tp52
aa(lp53
(I3
g3
(g5
S'\x00\x00\x00\x00\x00\x00\x00\x00'
tRp54
F0.035494089126586914
tp55
aa(lp56
(I3
g3
(g5
S'\xa6\x9b\xc4 \xb0r2@'
tRp57
F0.035676002502441406
tp58
a(I3
g3
(g5
S'\x00\x00\x00\x00\x00\x00\x00\x00'
tRp59
F0.084867000579833984
tp60
aa(lp61
(I3
g3
(g5
S'p\xbe\x9f\x1a/\xdd\x14@'
tRp62
F0.035594940185546875
tp63
a(I3
g3
(g5
S'\x00\x00\x00\x00\x00\x00\x00\x00'
tRp64
F0.079877853393554688
tp65
aa(lp66
(I3
g3
(g5
S'\xe9&1\x08\xac\\7@'
tRp67
F0.035655975341796875
tp68
a(I3
g3
(g5
S'\xf4\xfd\xd4x\xe9f%@'
tRp69
F0.077350139617919922
tp70
a(I3
g3
(g5
S'\xf4\xfd\xd4x\xe9f%@'
tRp71
F0.044930934906005859
tp72
a(I3
g3
(g5
S'\x00\x00\x00\x00\x00\x00\x00\x00'
tRp73
F0.098516941070556641
tp74
aa(lp75
(I3
g3
(g5
S'\x8e\xc2\xf5(\\\xafA@'
tRp76
F0.035829067230224609
tp77
a(I3
g3
(g5
S'\\\xbaI\x0c\x02\x8b;@'
tRp78
F0.088413000106811523
tp79
a(I3
g3
(g5
S'\x00\x00\x00\x00\x00\x00\x00\x00'
tRp80
F0.10107302665710449
tp81
aa(lp82
(I3
g3
(g5
S'\x92\x18\x04V\x0e\rI@'
tRp83
F0.035624027252197266
tp84
a(I3
g3
(g5
S'`\xbe\x9f\x1a/\xdd\x00@'
tRp85
F0.086607217788696289
tp86
a(I3
g3
(g5
S'\x00\x00\x00\x00\x00\x00\x00\x00'
tRp87
F0.098867893218994141
tp88
aa(lp89
(I3
g3
(g5
S'\xaa\xf1\xd2Mb0J@'
tRp90
F0.035849809646606445
tp91
a(I3
g3
(g5
S'\xaa\xf1\xd2Mb0J@'
tRp92
F0.073440074920654297
tp93
a(I3
g3
(g5
S'\xfa~j\xbcts?@'
tRp94
F0.083245992660522461
tp95
a(I3
g3
(g5
S'\xfa~j\xbcts?@'
tRp96
F0.086344003677368164
tp97
a(I3
g3
(g5
S'\xfa~j\xbcts?@'
tRp98
F0.10277700424194336
tp99
a(I3
g3
(g5
S'\xfa~j\xbcts?@'
tRp100
F5.3456339836120605
tp101
a(I3
g3
(g5
S'\xfa~j\xbcts?@'
tRp102
F0.1026310920715332
tp103
a(I3
g3
(g5
S'\xfa~j\xbcts?@'
tRp104
F0.10535383224487305
tp105
a(I3
g3
(g5
S'\xfa~j\xbcts?@'
tRp106
F0.10539913177490234
tp107
a(I3
g3
(g5
S'\xfa~j\xbcts?@'
tRp108
F0.11602592468261719
tp109
a(I3
g3
(g5
S'\xfa~j\xbcts?@'
tRp110
F5.9697930812835693
tp111
a(I3
g3
(g5
S'\xfa~j\xbcts?@'
tRp112
F0.10713791847229004
tp113
a(I3
g3
(g5
S'\xfa~j\xbcts?@'
tRp114
F0.11984109878540039
tp115
a(I3
g3
(g5
S'\xfa~j\xbcts?@'
tRp116
F0.1114051342010498
tp117
a(I3
g3
(g5
S'\xfa~j\xbcts?@'
tRp118
F0.11117386817932129
tp119
a(I3
g3
(g5
S'\x00\x00\x00\x00\x00\x00\x00\x00'
tRp120
F6.5153717994689941
tp121
aa(lp122
(I3
g3
(g5
S'\xe0O\x8d\x97n\xeaP@'
tRp123
F0.035923004150390625
tp124
a(I3
g3
(g5
S'h;\xdfO\x8d\xf75@'
tRp125
F0.076940059661865234
tp126
a(I3
g3
(g5
S'\x00\x19\x04V\x0e-\xe6?'
tRp127
F0.090156078338623047
tp128
a(I3
g3
(g5
S'p\x12\x83\xc0\xca1G@'
tRp129
F0.082850933074951172
tp130
a(I3
g3
(g5
S'p\x12\x83\xc0\xca1G@'
tRp131
F0.095406055450439453
tp132
a(I3
g3
(g5
S'\x00\x00\x00\x00\x00\x00\x00\x00'
tRp133
F4.6340930461883545
tp134
aa(lp135
(I3
g3
(g5
S'\xb8\xf3\xfd\xd4xi)@'
tRp136
F0.035742044448852539
tp137
a(I3
g3
(g5
S'\xb8\xf3\xfd\xd4xi)@'
tRp138
F0.08343195915222168
tp139
a(I3
g3
(g5
S'\xb8\xf3\xfd\xd4xi)@'
tRp140
F0.090301990509033203
tp141
a(I3
g3
(g5
S'\xa6p=\n\xd7c9@'
tRp142
F0.084753990173339844
tp143
a(I3
g3
(g5
S'\xa6p=\n\xd7c9@'
tRp144
F0.046679019927978516
tp145
a(I3
g3
(g5
S'\x00\x00\x00\x00\x00\x00\x00\x00'
tRp146
F4.0155320167541504
tp147
aa(lp148
(I3
g3
(g5
S'<\xdfO\x8d\x97nH@'
tRp149
F0.035839080810546875
tp150
a(I3
g3
(g5
S'\xc8K7\x89A`.@'
tRp151
F0.079140901565551758
tp152
a(I3
g3
(g5
S'\x00\x00\x00\x00\x00\x00\x00\x00'
tRp153
F0.083938837051391602
tp154
aa(lp155
(I3
g3
(g5
S'/\xdd$\x06\x81uC@'
tRp156
F0.035833120346069336
tp157
a(I3
g3
(g5
S'\x00\x00\x00\x00\x00\x00\x00\x00'
tRp158
F0.0777740478515625
tp159
aa(lp160
(I3
g3
(g5
S'\x80?5^\xba\x899@'
tRp161
F0.035681009292602539
tp162
a(I3
g3
(g5
S'H\xb6\xf3\xfd\xd4\xd83@'
tRp163
F0.081984996795654297
tp164
a(I3
g3
(g5
S'H\xb6\xf3\xfd\xd4\xd83@'
tRp165
F0.092905044555664062
tp166
a(I3
g3
(g5
S'Y9\xb4\xc8v\xfeL@'
tRp167
F0.073518991470336914
tp168
a(I3
g3
(g5
S'Y9\xb4\xc8v\xfeL@'
tRp169
F0.053208827972412109
tp170
a(I3
g3
(g5
S'\x00\x00\x00\x00\x00\x00\x00\x00'
tRp171
F6.2819969654083252
tp172
aa(lp173
(I3
g3
(g5
S'\xe8&1\x08\xac\xdc;@'
tRp174
F0.035747051239013672
tp175
a(I3
g3
(g5
S'\xe8&1\x08\xac\xdc;@'
tRp176
F0.086171865463256836
tp177
a(I3
g3
(g5
S'\x00\x00\x00\x00\x00\x00\x00\x00'
tRp178
F0.11168909072875977
tp179
aa(lp180
(I3
g3
(g5
S'\x00\x00\x00\x00\x00\x00\x00\x00'
tRp181
F0.035860061645507812
tp182
aa(lp183
(I3
g3
(g5
S'\xf0\xa7\xc6K7\tC@'
tRp184
F0.035792112350463867
tp185
a(I3
g3
(g5
S'\xd0\xf7S\xe3\xa5\x9b*@'
tRp186
F0.081023216247558594
tp187
a(I3
g3
(g5
S'\x84\xc0\xca\xa1E\xe6F@'
tRp188
F0.097616910934448242
tp189
a(I3
g3
(g5
S'\x84\xc0\xca\xa1E\xe6F@'
tRp190
F0.039559841156005859
tp191
a(I3
g3
(g5
S'\x84\xc0\xca\xa1E\xe6F@'
tRp192
F0.041825056076049805
tp193
a(I3
g3
(g5
S'\x84\xc0\xca\xa1E\xe6F@'
tRp194
F4.5210590362548828
tp195
a(I3
g3
(g5
S'\x84\xc0\xca\xa1E\xe6F@'
tRp196
F0.04466700553894043
tp197
a(I3
g3
(g5
S'\x84\xc0\xca\xa1E\xe6F@'
tRp198
F0.045989990234375
tp199
a(I3
g3
(g5
S'\x84\xc0\xca\xa1E\xe6F@'
tRp200
F0.047961950302124023
tp201
a(I3
g3
(g5
S'\x84\xc0\xca\xa1E\xe6F@'
tRp202
F0.049326896667480469
tp203
a(I3
g3
(g5
S'\x00\x00\x00\x00\x00\x00\x00\x00'
tRp204
F5.5500409603118896
tp205
aa(lp206
(I3
g3
(g5
S'\x00\x00\x00\x00\x00\x00\x00\x00'
tRp207
F0.03578495979309082
tp208
aa.