(lp1
(lp2
(I3
cnumpy.core.multiarray
scalar
p3
(cnumpy
dtype
p4
(S'f8'
I0
I1
tRp5
(I3
S'<'
NNNI-1
I-1
I0
tbS',\xd4\x9a\xe6\x1d\xa7Q@'
tRp6
F0.076681852340698242
tp7
a(I3
g3
(g5
S'\xa8G\xe1z\x14\x0e1@'
tRp8
F0.079081058502197266
tp9
a(I3
g3
(g5
S'\x10\xaeG\xe1zt2@'
tRp10
F0.085439205169677734
tp11
a(I3
g3
(g5
S'X\xe5\xd0"\xdby6@'
tRp12
F0.08656001091003418
tp13
a(I3
g3
(g5
S'\x18\x04V\x0e-\xa2J@'
tRp14
F0.15818500518798828
tp15
a(I3
g3
(g5
S"\x00\x00\x00\x00\x00@'@"
tRp16
F7.6457600593566895
tp17
a(I3
g3
(g5
S'\x00\x02+\x87\x16\xd9\x18@'
tRp18
F0.19433712959289551
tp19
a(I3
g3
(g5
S'\xe0\xfd\xd4x\xe9&\x15@'
tRp20
F0.20520687103271484
tp21
a(I3
g3
(g5
S'\x00\xaeG\xe1z\x14\xfc?'
tRp22
F0.1487278938293457
tp23
a(I3
g3
(g5
S'`\xe5\xd0"\xdb\xf9"@'
tRp24
F0.27940106391906738
tp25
a(I3
g3
(g5
S'\xc0\x9f\x1a/\xdd\xa4\x13@'
tRp26
F9.1612930297851562
tp27
a(I3
g3
(g5
S'\x80?5^\xbaI)@'
tRp28
F1.0081651210784912
tp29
a(I3
g3
(g5
S'\x80?5^\xbaI)@'
tRp30
F2.904217004776001
tp31
a(I3
g3
(g5
S'`\xe5\xd0"\xdb\xf9"@'
tRp32
F1.3916070461273193
tp33
a(I3
g3
(g5
S'\x00\xaeG\xe1z\x14\xfc?'
tRp34
F2.4351451396942139
tp35
a(I3
g3
(g5
S'\x00\xaeG\xe1z\x14\xfc?'
tRp36
F13.310343027114868
tp37
a(I3
g3
(g5
S'\x00\xaeG\xe1z\x14\xfc?'
tRp38
F0.82580113410949707
tp39
a(I3
g3
(g5
S'\x00\xaeG\xe1z\x14\xfc?'
tRp40
F0.46460604667663574
tp41
a(I3
g3
(g5
S'\x00\xaeG\xe1z\x14\xfc?'
tRp42
F0.47094106674194336
tp43
a(I3
g3
(g5
S'\x00\xaeG\xe1z\x14\xfc?'
tRp44
F0.47248387336730957
tp45
a(I3
g3
(g5
S'\x00\xaeG\xe1z\x14\xfc?'
tRp46
F10.69605016708374
tp47
a(I3
g3
(g5
S'\x00\xaeG\xe1z\x14\xfc?'
tRp48
F0.67454791069030762
tp49
a(I3
g3
(g5
S'\x00\xaeG\xe1z\x14\xfc?'
tRp50
F0.67599916458129883
tp51
a(I3
g3
(g5
S'\x00\xaeG\xe1z\x14\xfc?'
tRp52
F0.68405389785766602
tp53
a(I3
g3
(g5
S'\x00\xaeG\xe1z\x14\xfc?'
tRp54
F0.6884617805480957
tp55
a(I3
g3
(g5
S'\x00\xaeG\xe1z\x14\xfc?'
tRp56
F11.670427083969116
tp57
a(I3
g3
(g5
S'\x00\xaeG\xe1z\x14\xfc?'
tRp58
F0.48838496208190918
tp59
a(I3
g3
(g5
S'\x00\xaeG\xe1z\x14\xfc?'
tRp60
F0.50165796279907227
tp61
a(I3
g3
(g5
S'\x00\xaeG\xe1z\x14\xfc?'
tRp62
F0.49356818199157715
tp63
a(I3
g3
(g5
S'\x00\xaeG\xe1z\x14\xfc?'
tRp64
F0.50512313842773438
tp65
a(I3
g3
(g5
S'\x00\xaeG\xe1z\x14\xfc?'
tRp66
F12.180041074752808
tp67
a(I3
g3
(g5
S'\x00\xaeG\xe1z\x14\xfc?'
tRp68
F0.65795087814331055
tp69
a(I3
g3
(g5
S'\x00\xaeG\xe1z\x14\xfc?'
tRp70
F0.66131901741027832
tp71
a(I3
g3
(g5
S'\x00\xaeG\xe1z\x14\xfc?'
tRp72
F0.66009712219238281
tp73
aa(lp74
(I3
g3
(g5
S'\x94\xc2\xf5(\\?I@'
tRp75
F0.073528051376342773
tp76
a(I3
g3
(g5
S'\xc8 \xb0rh\xb1@@'
tRp77
F0.078673124313354492
tp78
a(I3
g3
(g5
S'\xf8S\xe3\xa5\x9bTC@'
tRp79
F0.22079706192016602
tp80
a(I3
g3
(g5
S'Pb\x10X9t%@'
tRp81
F0.086262941360473633
tp82
a(I3
g3
(g5
S'\xa8p=\n\xd7\xb3P@'
tRp83
F0.16251897811889648
tp84
a(I3
g3
(g5
S'\x00\xaeG\xe1z\x14\xe2?'
tRp85
F5.9027168750762939
tp86
a(I3
g3
(g5
S'\x00\xaeG\xe1z\x14\xe2?'
tRp87
F0.21503305435180664
tp88
a(I3
g3
(g5
S'\x00\xaeG\xe1z\x14\xe2?'
tRp89
F0.18738317489624023
tp90
a(I3
g3
(g5
S'\xc0|?5^\xba\x0e@'
tRp91
F0.30901503562927246
tp92
a(I3
g3
(g5
S'\xc0|?5^\xba\x0e@'
tRp93
F0.27176594734191895
tp94
a(I3
g3
(g5
S'\xc0|?5^\xba\x0e@'
tRp95
F9.2079579830169678
tp96
a(I3
g3
(g5
S'\x80\xebQ\xb8\x1e\x85\x07@'
tRp97
F0.42763996124267578
tp98
a(I3
g3
(g5
S'\x00\xaeG\xe1z\x14\xe2?'
tRp99
F0.5444028377532959
tp100
a(I3
g3
(g5
S'\x00\xfc\xa9\xf1\xd2M\xf0?'
tRp101
F0.98260116577148438
tp102
a(I3
g3
(g5
S'\x00\xaeG\xe1z\x14\xe2?'
tRp103
F6.802854061126709
tp104
a(I3
g3
(g5
S'\x00\xfc\xa9\xf1\xd2M\xf0?'
tRp105
F13.015079975128174
tp106
a(I3
g3
(g5
S'\x00\x94\x18\x04V\x0e\xdd?'
tRp107
F6.1614940166473389
tp108
a(I3
g3
(g5
S'\x00\x94\x18\x04V\x0e\xdd?'
tRp109
F25.204034090042114
tp110
a(I3
g3
(g5
S'\x80\x12\x83\xc0\xca\xa1\x06@'
tRp111
F38.873567819595337
tp112
a(I3
g3
(g5
S'\x00\x94\x18\x04V\x0e\xdd?'
tRp113
F31.062599897384644
tp114
a(I3
g3
(g5
S'\x80\x12\x83\xc0\xca\xa1\x06@'
tRp115
F66.227411985397339
tp116
a(I3
g3
(g5
S'\x00\x00\x00\x00\x00\x00\x03@'
tRp117
F61.173848867416382
tp118
a(I3
g3
(g5
S'\x80\x12\x83\xc0\xca\xa1\x06@'
tRp119
F331.27176690101624
tp120
a(I3
g3
(g5
S'\x00\x00\x00\x00\x00\x00\x00\x00'
tRp121
F1439.9562590122223
tp122
aa(lp123
(I3
g3
(g5
S'\x00\xd5x\xe9&\xa1L@'
tRp124
F0.073582172393798828
tp125
a(I3
g3
(g5
S'\xb8\x1e\x85\xebQX?@'
tRp126
F0.078607082366943359
tp127
a(I3
g3
(g5
S'\xb8\x1e\x85\xebQX?@'
tRp128
F0.26907706260681152
tp129
a(I3
g3
(g5
S'43333\x13C@'
tRp130
F0.086213111877441406
tp131
a(I3
g3
(g5
S'43333\x13C@'
tRp132
F0.14823412895202637
tp133
a(I3
g3
(g5
S'\xc6m4\x80\xb7\x94_@'
tRp134
F6.8629190921783447
tp135
a(I3
g3
(g5
S'\xc6m4\x80\xb7\x94_@'
tRp136
F0.2172849178314209
tp137
a(I3
g3
(g5
S'\xc6m4\x80\xb7\x94_@'
tRp138
F0.2402489185333252
tp139
a(I3
g3
(g5
S'\xc6m4\x80\xb7\x94_@'
tRp140
F0.23241305351257324
tp141
a(I3
g3
(g5
S'\xc6m4\x80\xb7\x94_@'
tRp142
F0.24143409729003906
tp143
a(I3
g3
(g5
S'\xd8"\xdb\xf9~\xaa1@'
tRp144
F9.3465518951416016
tp145
a(I3
g3
(g5
S'\xd8"\xdb\xf9~\xaa1@'
tRp146
F0.2244420051574707
tp147
a(I3
g3
(g5
S'\xd8"\xdb\xf9~\xaa1@'
tRp148
F0.13393402099609375
tp149
a(I3
g3
(g5
S'\xe0Mb\x10X\xf9-@'
tRp150
F0.20577192306518555
tp151
a(I3
g3
(g5
S'\xe0Mb\x10X\xf9-@'
tRp152
F0.17905306816101074
tp153
a(I3
g3
(g5
S'\xe0Mb\x10X\xf9-@'
tRp154
F8.9392762184143066
tp155
a(I3
g3
(g5
S'`\x8d\x97n\x12\x03\x13@'
tRp156
F0.33480405807495117
tp157
a(I3
g3
(g5
S'@\x08\xac\x1cZd\x10@'
tRp158
F0.30069088935852051
tp159
a(I3
g3
(g5
S'@\x08\xac\x1cZd\x10@'
tRp160
F0.47478890419006348
tp161
a(I3
g3
(g5
S'@\x08\xac\x1cZd\x10@'
tRp162
F0.96451902389526367
tp163
a(I3
g3
(g5
S'@\x08\xac\x1cZd\x10@'
tRp164
F15.07754111289978
tp165
a(I3
g3
(g5
S'@\x08\xac\x1cZd\x10@'
tRp166
F7.1520299911499023
tp167
a(I3
g3
(g5
S' X9\xb4\xc8\xf6"@'
tRp168
F43.579522132873535
tp169
a(I3
g3
(g5
S' X9\xb4\xc8\xf6"@'
tRp170
F44.329892158508301
tp171
a(I3
g3
(g5
S' X9\xb4\xc8\xf6"@'
tRp172
F31.005396842956543
tp173
a(I3
g3
(g5
S'\xa0\x18\x04V\x0e\xad\x12@'
tRp174
F14.318673133850098
tp175
a(I3
g3
(g5
S'ph\x91\xed|\x7f/@'
tRp176
F5.1975929737091064
tp177
a(I3
g3
(g5
S'\xa0\x18\x04V\x0e\xad\x12@'
tRp178
F4.8845899105072021
tp179
a(I3
g3
(g5
S'\xa0\x18\x04V\x0e\xad\x12@'
tRp180
F2.2086660861968994
tp181
a(I3
g3
(g5
S'\xa0\x18\x04V\x0e\xad\x12@'
tRp182
F3.5618910789489746
tp183
a(I3
g3
(g5
S'\xa0\x18\x04V\x0e\xad\x12@'
tRp184
F17.708137035369873
tp185
a(I3
g3
(g5
S'\xa0\x18\x04V\x0e\xad\x12@'
tRp186
F3.4261248111724854
tp187
a(I3
g3
(g5
S'\xa0\x18\x04V\x0e\xad\x12@'
tRp188
F3.4336180686950684
tp189
a(I3
g3
(g5
S'\xa0\x18\x04V\x0e\xad\x12@'
tRp190
F3.4427008628845215
tp191
aa(lp192
(I3
g3
(g5
S'l\xe7\xfb\xa9\xf1rI@'
tRp193
F0.074352025985717773
tp194
a(I3
g3
(g5
S'hffffFJ@'
tRp195
F0.079061031341552734
tp196
a(I3
g3
(g5
S'<\n\xd7\xa3p\xbdC@'
tRp197
F0.25455498695373535
tp198
a(I3
g3
(g5
S'Pb\x10X94D@'
tRp199
F0.10066986083984375
tp200
a(I3
g3
(g5
S'\x94C\x8bl\xe7\x0bI@'
tRp201
F0.20214605331420898
tp202
a(I3
g3
(g5
S'`\x8f\xc2\xf5(\xdc;@'
tRp203
F6.442133903503418
tp204
a(I3
g3
(g5
S' Zd;\xdf\x8f0@'
tRp205
F0.20691895484924316
tp206
a(I3
g3
(g5
S'P9\xb4\xc8v>*@'
tRp207
F0.24642801284790039
tp208
a(I3
g3
(g5
S'\xf0\xd2Mb\x108M@'
tRp209
F0.24805903434753418
tp210
a(I3
g3
(g5
S'\x98C\x8bl\xe7;4@'
tRp211
F0.10962486267089844
tp212
a(I3
g3
(g5
S'\x94C\x8bl\xe7\x0bI@'
tRp213
F6.8831729888916016
tp214
a(I3
g3
(g5
S'\x94C\x8bl\xe7\x0bI@'
tRp215
F0.095518827438354492
tp216
a(I3
g3
(g5
S'\x94C\x8bl\xe7\x0bI@'
tRp217
F0.1619110107421875
tp218
a(I3
g3
(g5
S'\x94C\x8bl\xe7\x0bI@'
tRp219
F0.098908901214599609
tp220
a(I3
g3
(g5
S'\x94C\x8bl\xe7\x0bI@'
tRp221
F0.10047388076782227
tp222
a(I3
g3
(g5
S'\xe0\xfb\xa9\xf1\xd2M*@'
tRp223
F8.3356180191040039
tp224
a(I3
g3
(g5
S'\x80?5^\xbaI\x15@'
tRp225
F0.12484598159790039
tp226
a(I3
g3
(g5
S'\x80?5^\xbaI\x15@'
tRp227
F0.17006611824035645
tp228
a(I3
g3
(g5
S'\x80?5^\xbaI\x15@'
tRp229
F0.17581701278686523
tp230
a(I3
g3
(g5
S'\x80?5^\xbaI\x15@'
tRp231
F0.1781919002532959
tp232
a(I3
g3
(g5
S'\x80?5^\xbaI\x15@'
tRp233
F8.1466379165649414
tp234
a(I3
g3
(g5
S'\x80?5^\xbaI\x15@'
tRp235
F0.14307188987731934
tp236
a(I3
g3
(g5
S'\x80?5^\xbaI\x15@'
tRp237
F0.14456605911254883
tp238
a(I3
g3
(g5
S'\x80?5^\xbaI\x15@'
tRp239
F0.14721393585205078
tp240
a(I3
g3
(g5
S'\x80?5^\xbaI\x15@'
tRp241
F0.14906907081604004
tp242
a(I3
g3
(g5
S'\x80?5^\xbaI\x15@'
tRp243
F8.9050760269165039
tp244
a(I3
g3
(g5
S'\x80?5^\xbaI\x15@'
tRp245
F0.18661308288574219
tp246
a(I3
g3
(g5
S'\x80?5^\xbaI\x15@'
tRp247
F0.18915390968322754
tp248
a(I3
g3
(g5
S'\x80?5^\xbaI\x15@'
tRp249
F0.19091415405273438
tp250
a(I3
g3
(g5
S'\x80?5^\xbaI\x15@'
tRp251
F0.19325399398803711
tp252
a(I3
g3
(g5
S'\x80?5^\xbaI\x15@'
tRp253
F9.7385141849517822
tp254
a(I3
g3
(g5
S'\x80?5^\xbaI\x15@'
tRp255
F0.20126008987426758
tp256
a(I3
g3
(g5
S'\x80?5^\xbaI\x15@'
tRp257
F0.19976687431335449
tp258
a(I3
g3
(g5
S'\x80?5^\xbaI\x15@'
tRp259
F0.20158982276916504
tp260
aa(lp261
(I3
g3
(g5
S'p=\n\xd7\xa30N@'
tRp262
F0.073336124420166016
tp263
a(I3
g3
(g5
S'43333\xb3K@'
tRp264
F0.078726053237915039
tp265
a(I3
g3
(g5
S'\xc0\xf5(\\\x8f\x02>@'
tRp266
F0.20875310897827148
tp267
a(I3
g3
(g5
S'ph\x91\xed|\x7f8@'
tRp268
F0.095531940460205078
tp269
a(I3
g3
(g5
S'W}\xae\xb6b\xc3V@'
tRp270
F0.177001953125
tp271
a(I3
g3
(g5
S'W}\xae\xb6b\xc3V@'
tRp272
F5.5124650001525879
tp273
a(I3
g3
(g5
S'W}\xae\xb6b\xc3V@'
tRp274
F0.086421012878417969
tp275
a(I3
g3
(g5
S'W}\xae\xb6b\xc3V@'
tRp276
F0.089944124221801758
tp277
a(I3
g3
(g5
S'W}\xae\xb6b\xc3V@'
tRp278
F0.091524124145507812
tp279
a(I3
g3
(g5
S'W}\xae\xb6b\xc3V@'
tRp280
F0.093352079391479492
tp281
a(I3
g3
(g5
S'\xd4Mb\x10XyI@'
tRp282
F7.7104768753051758
tp283
a(I3
g3
(g5
S'\x88\x16\xd9\xce\xf7\x931@'
tRp284
F0.12388300895690918
tp285
a(I3
g3
(g5
S'\x88\x16\xd9\xce\xf7\x931@'
tRp286
F0.25361299514770508
tp287
a(I3
g3
(g5
S'\x88\x16\xd9\xce\xf7\x931@'
tRp288
F0.1257469654083252
tp289
a(I3
g3
(g5
S'\x88\x16\xd9\xce\xf7\x931@'
tRp290
F0.16953396797180176
tp291
a(I3
g3
(g5
S'\x88\x16\xd9\xce\xf7\x931@'
tRp292
F7.6070301532745361
tp293
a(I3
g3
(g5
S'\x88\x16\xd9\xce\xf7\x931@'
tRp294
F0.1930239200592041
tp295
a(I3
g3
(g5
S'\x88\x16\xd9\xce\xf7\x931@'
tRp296
F0.19425010681152344
tp297
a(I3
g3
(g5
S'\x88\x16\xd9\xce\xf7\x931@'
tRp298
F0.19590592384338379
tp299
a(I3
g3
(g5
S'\x88\x16\xd9\xce\xf7\x931@'
tRp300
F0.19759488105773926
tp301
a(I3
g3
(g5
S'\x88\x16\xd9\xce\xf7\x931@'
tRp302
F8.6284289360046387
tp303
a(I3
g3
(g5
S'\x88\x16\xd9\xce\xf7\x931@'
tRp304
F0.22865605354309082
tp305
a(I3
g3
(g5
S'\x88\x16\xd9\xce\xf7\x931@'
tRp306
F0.23119497299194336
tp307
a(I3
g3
(g5
S'\x88\x16\xd9\xce\xf7\x931@'
tRp308
F0.23244190216064453
tp309
a(I3
g3
(g5
S'\x88\x16\xd9\xce\xf7\x931@'
tRp310
F0.23372983932495117
tp311
a(I3
g3
(g5
S'W}\xae\xb6b\xc3V@'
tRp312
F9.3710591793060303
tp313
a(I3
g3
(g5
S'W}\xae\xb6b\xc3V@'
tRp314
F0.12356305122375488
tp315
a(I3
g3
(g5
S'W}\xae\xb6b\xc3V@'
tRp316
F0.12543296813964844
tp317
a(I3
g3
(g5
S'W}\xae\xb6b\xc3V@'
tRp318
F0.12691712379455566
tp319
a(I3
g3
(g5
S'W}\xae\xb6b\xc3V@'
tRp320
F0.12972402572631836
tp321
a(I3
g3
(g5
S'\x88\x16\xd9\xce\xf7\x931@'
tRp322
F10.213025093078613
tp323
a(I3
g3
(g5
S'\x88\x16\xd9\xce\xf7\x931@'
tRp324
F0.2312169075012207
tp325
a(I3
g3
(g5
S'\x88\x16\xd9\xce\xf7\x931@'
tRp326
F0.23174285888671875
tp327
a(I3
g3
(g5
S'\x88\x16\xd9\xce\xf7\x931@'
tRp328
F0.23434019088745117
tp329
aa(lp330
(I3
g3
(g5
S'\x08\xac\x1cZd\xcbI@'
tRp331
F0.073089838027954102
tp332
a(I3
g3
(g5
S'\xf0|?5^\xfaA@'
tRp333
F0.078779935836791992
tp334
a(I3
g3
(g5
S'\x18\xaeG\xe1z$C@'
tRp335
F0.18264603614807129
tp336
a(I3
g3
(g5
S'\xb0rh\x91\xed\x0cE@'
tRp337
F0.086718082427978516
tp338
a(I3
g3
(g5
S'p\xbe\x9f\x1a/\xdd:@'
tRp339
F0.16750192642211914
tp340
a(I3
g3
(g5
S'\xe0\xd0"\xdb\xf9\x9e7@'
tRp341
F6.6293160915374756
tp342
a(I3
g3
(g5
S' \xdb\xf9~j\xdc3@'
tRp343
F0.11608409881591797
tp344
a(I3
g3
(g5
S'\x00\x02+\x87\x16\x19"@'
tRp345
F0.18455696105957031
tp346
a(I3
g3
(g5
S'\x00\xa0\x1a/\xdd$\xc6?'
tRp347
F0.10665106773376465
tp348
a(I3
g3
(g5
S'\x00\xa0\x1a/\xdd$\xc6?'
tRp349
F0.28099298477172852
tp350
a(I3
g3
(g5
S' \xaeG\xe1zT"@'
tRp351
F8.3977630138397217
tp352
a(I3
g3
(g5
S'\x00\x00\x00\x00\x00\x00\x00\x00'
tRp353
F2.3845958709716797
tp354
aa(lp355
(I3
g3
(g5
S'\xa0E\xb6\xf3\xfdt?@'
tRp356
F0.073850870132446289
tp357
a(I3
g3
(g5
S'\xc4v\xbe\x9f\x1a_O@'
tRp358
F0.078825950622558594
tp359
a(I3
g3
(g5
S'\x80j\xbct\x93\xb84@'
tRp360
F0.083952188491821289
tp361
a(I3
g3
(g5
S'\xac\x1cZd;\x0fM@'
tRp362
F0.09076690673828125
tp363
a(I3
g3
(g5
S'\xac\x1cZd;\x0fM@'
tRp364
F0.094207048416137695
tp365
a(I3
g3
(g5
S'\xb0\xc6K7\x89\x01!@'
tRp366
F7.4238059520721436
tp367
a(I3
g3
(g5
S'\xb0\xc6K7\x89\x01!@'
tRp368
F0.26133203506469727
tp369
a(I3
g3
(g5
S'\xb0\xc6K7\x89\x01!@'
tRp370
F0.24189496040344238
tp371
a(I3
g3
(g5
S'\x00\x00\x00\x00\x00\x00\x00\x00'
tRp372
F0.21936511993408203
tp373
aa(lp374
(I3
g3
(g5
S'8\x89A`\xe5\xf0?@'
tRp375
F0.074101924896240234
tp376
a(I3
g3
(g5
S'43333\xa3@@'
tRp377
F0.079258918762207031
tp378
a(I3
g3
(g5
S'43333\xa3@@'
tRp379
F0.24078583717346191
tp380
a(I3
g3
(g5
S'43333\xa3@@'
tRp381
F0.093841791152954102
tp382
a(I3
g3
(g5
S'\xec|?5^JD@'
tRp383
F0.088593959808349609
tp384
a(I3
g3
(g5
S'\xf0\xd2Mb\x10\xf83@'
tRp385
F5.738347053527832
tp386
a(I3
g3
(g5
S'\xf0\xd2Mb\x10\xf83@'
tRp387
F0.10677981376647949
tp388
a(I3
g3
(g5
S'\xf0\xd2Mb\x10\xf83@'
tRp389
F0.18682384490966797
tp390
a(I3
g3
(g5
S'P9\xb4\xc8v>(@'
tRp391
F0.19499492645263672
tp392
a(I3
g3
(g5
S'P9\xb4\xc8v>(@'
tRp393
F0.18003010749816895
tp394
a(I3
g3
(g5
S'P9\xb4\xc8v>(@'
tRp395
F8.2012770175933838
tp396
a(I3
g3
(g5
S'P9\xb4\xc8v>(@'
tRp397
F0.31165885925292969
tp398
a(I3
g3
(g5
S'P9\xb4\xc8v>(@'
tRp399
F0.8205559253692627
tp400
a(I3
g3
(g5
S'\xc0\x9f\x1a/\xdd$#@'
tRp401
F0.44963812828063965
tp402
a(I3
g3
(g5
S'\xf0&1\x08\xac\x9c!@'
tRp403
F0.57747483253479004
tp404
a(I3
g3
(g5
S'\xf0&1\x08\xac\x9c!@'
tRp405
F16.674614191055298
tp406
a(I3
g3
(g5
S'\x00\x04V\x0e-\xb2\x0c@'
tRp407
F4.198983907699585
tp408
a(I3
g3
(g5
S'\x00\x04V\x0e-\xb2\x0c@'
tRp409
F34.278861045837402
tp410
a(I3
g3
(g5
S'\x00\x04V\x0e-\xb2\x0c@'
tRp411
F105.00920009613037
tp412
a(I3
g3
(g5
S'\xc0 \xb0rh\x91\x06@'
tRp413
F165.03358888626099
tp414
a(I3
g3
(g5
S'\x00\x00\x00\x00\x00\x00\x00\x00'
tRp415
F15.030728101730347
tp416
aa(lp417
(I3
g3
(g5
S'\xb0rh\x91\xed\xbcC@'
tRp418
F0.073827028274536133
tp419
a(I3
g3
(g5
S'\xd0\xcc\xcc\xcc\xccl>@'
tRp420
F0.078817129135131836
tp421
a(I3
g3
(g5
S'\xd0\xcc\xcc\xcc\xccl>@'
tRp422
F0.082320928573608398
tp423
a(I3
g3
(g5
S'p\x12\x83\xc0\xca\xb1X@'
tRp424
F0.10741305351257324
tp425
a(I3
g3
(g5
S'p\x12\x83\xc0\xca\xb1X@'
tRp426
F0.092518091201782227
tp427
a(I3
g3
(g5
S'$\xdb\xf9~j\xecC@'
tRp428
F5.7687811851501465
tp429
a(I3
g3
(g5
S'\xd4"\xdb\xf9~*B@'
tRp430
F0.11482715606689453
tp431
a(I3
g3
(g5
S'\x80\xe9&1\x08\x8c3@'
tRp432
F0.15696287155151367
tp433
a(I3
g3
(g5
S'\x80\xe9&1\x08\x8c3@'
tRp434
F0.24001097679138184
tp435
a(I3
g3
(g5
S'\x80\xe9&1\x08\x8c3@'
tRp436
F0.24262595176696777
tp437
a(I3
g3
(g5
S'\x80\xe9&1\x08\x8c3@'
tRp438
F6.9487121105194092
tp439
a(I3
g3
(g5
S'\x80\xe9&1\x08\x8c3@'
tRp440
F0.55705690383911133
tp441
a(I3
g3
(g5
S'\x10\x00\x00\x00\x00@$@'
tRp442
F0.40249800682067871
tp443
a(I3
g3
(g5
S'@\x06\x81\x95C\x0b\x16@'
tRp444
F1.5703608989715576
tp445
a(I3
g3
(g5
S'@\x06\x81\x95C\x0b\x16@'
tRp446
F2.7854650020599365
tp447
a(I3
g3
(g5
S'@\x06\x81\x95C\x0b\x16@'
tRp448
F12.467430830001831
tp449
a(I3
g3
(g5
S'@\x06\x81\x95C\x0b\x16@'
tRp450
F0.79282999038696289
tp451
a(I3
g3
(g5
S'@\x06\x81\x95C\x0b\x16@'
tRp452
F0.58362412452697754
tp453
a(I3
g3
(g5
S'\x00\xcb\xa1E\xb6\xf3\xfd?'
tRp454
F1.0003910064697266
tp455
a(I3
g3
(g5
S'\x00\x00\x00\x00\x00\x00\x00\x00'
tRp456
F0.57535505294799805
tp457
aa(lp458
(I3
g3
(g5
S'\xe8Q\xb8\x1e\x85\x8b<@'
tRp459
F0.073626995086669922
tp460
a(I3
g3
(g5
S'X;\xdfO\x8d\x97;@'
tRp461
F0.079254150390625
tp462
a(I3
g3
(g5
S'\x08\xd7\xa3p=\xea>@'
tRp463
F0.083585977554321289
tp464
a(I3
g3
(g5
S'D\xe1z\x14\xae\xb7O@'
tRp465
F0.24035906791687012
tp466
a(I3
g3
(g5
S'D\xe1z\x14\xae\xb7O@'
tRp467
F0.093063116073608398
tp468
a(I3
g3
(g5
S'\x90\xc2\xf5(\\\x0f5@'
tRp469
F6.2821531295776367
tp470
a(I3
g3
(g5
S'\x00+\x87\x16\xd9\xbeK@'
tRp471
F0.13393902778625488
tp472
a(I3
g3
(g5
S'\xe4\xd0"\xdb\xf9\x0eM@'
tRp473
F0.10673785209655762
tp474
a(I3
g3
(g5
S' 1\x08\xac\x1cZ*@'
tRp475
F0.11795806884765625
tp476
a(I3
g3
(g5
S' 1\x08\xac\x1cZ*@'
tRp477
F0.18087315559387207
tp478
a(I3
g3
(g5
S' 1\x08\xac\x1cZ*@'
tRp479
F7.7896759510040283
tp480
a(I3
g3
(g5
S' 1\x08\xac\x1cZ*@'
tRp481
F0.23340106010437012
tp482
a(I3
g3
(g5
S' 1\x08\xac\x1cZ*@'
tRp483
F0.23013806343078613
tp484
a(I3
g3
(g5
S' 1\x08\xac\x1cZ*@'
tRp485
F0.23768401145935059
tp486
a(I3
g3
(g5
S' 1\x08\xac\x1cZ*@'
tRp487
F0.23675084114074707
tp488
a(I3
g3
(g5
S'D\xe1z\x14\xae\xb7O@'
tRp489
F7.8858509063720703
tp490
a(I3
g3
(g5
S'D\xe1z\x14\xae\xb7O@'
tRp491
F0.10526609420776367
tp492
a(I3
g3
(g5
S'D\xe1z\x14\xae\xb7O@'
tRp493
F0.10691499710083008
tp494
a(I3
g3
(g5
S'D\xe1z\x14\xae\xb7O@'
tRp495
F0.10926103591918945
tp496
a(I3
g3
(g5
S'D\xe1z\x14\xae\xb7O@'
tRp497
F0.11083102226257324
tp498
a(I3
g3
(g5
S' 1\x08\xac\x1cZ*@'
tRp499
F8.7952959537506104
tp500
a(I3
g3
(g5
S' 1\x08\xac\x1cZ*@'
tRp501
F0.24617695808410645
tp502
a(I3
g3
(g5
S' 1\x08\xac\x1cZ*@'
tRp503
F0.24994993209838867
tp504
a(I3
g3
(g5
S' 1\x08\xac\x1cZ*@'
tRp505
F0.24972105026245117
tp506
a(I3
g3
(g5
S' 1\x08\xac\x1cZ*@'
tRp507
F0.24916315078735352
tp508
a(I3
g3
(g5
S' 1\x08\xac\x1cZ*@'
tRp509
F9.799901008605957
tp510
a(I3
g3
(g5
S' 1\x08\xac\x1cZ*@'
tRp511
F0.21145987510681152
tp512
a(I3
g3
(g5
S' 1\x08\xac\x1cZ*@'
tRp513
F0.21577000617980957
tp514
a(I3
g3
(g5
S' 1\x08\xac\x1cZ*@'
tRp515
F0.23971104621887207
tp516
a(I3
g3
(g5
S' 1\x08\xac\x1cZ*@'
tRp517
F0.2283480167388916
tp518
a(I3
g3
(g5
S' 1\x08\xac\x1cZ*@'
tRp519
F10.481361865997314
tp520
a(I3
g3
(g5
S' 1\x08\xac\x1cZ*@'
tRp521
F0.22876191139221191
tp522
a(I3
g3
(g5
S' 1\x08\xac\x1cZ*@'
tRp523
F0.23642086982727051
tp524
a(I3
g3
(g5
S' 1\x08\xac\x1cZ*@'
tRp525
F0.23276805877685547
tp526
aa(lp527
(I3
g3
(g5
S'\xee\xa7\xc6K7\xf9P@'
tRp528
F0.073688030242919922
tp529
a(I3
g3
(g5
S'\xc4\xa1E\xb6\xf3\x1dE@'
tRp530
F0.078988075256347656
tp531
a(I3
g3
(g5
S'\xe8Q\xb8\x1e\x85\xbbJ@'
tRp532
F0.082561969757080078
tp533
a(I3
g3
(g5
S'@\xb6\xf3\xfd\xd4\xd8C@'
tRp534
F0.21285104751586914
tp535
a(I3
g3
(g5
S'\xb8\x9f\x1a/\xddd<@'
tRp536
F0.18614292144775391
tp537
a(I3
g3
(g5
S'\xb8\x9f\x1a/\xddd<@'
tRp538
F6.9760210514068604
tp539
a(I3
g3
(g5
S'\x00V\x0e-\xb2\xbd4@'
tRp540
F0.20319414138793945
tp541
a(I3
g3
(g5
S'\x00V\x0e-\xb2\xbd4@'
tRp542
F0.16658902168273926
tp543
a(I3
g3
(g5
S'x\xe9&1\x08l0@'
tRp544
F0.18769502639770508
tp545
a(I3
g3
(g5
S'x\xe9&1\x08l0@'
tRp546
F0.25347280502319336
tp547
a(I3
g3
(g5
S'x\xe9&1\x08l0@'
tRp548
F6.965656042098999
tp549
a(I3
g3
(g5
S'x\xe9&1\x08l0@'
tRp550
F0.61831188201904297
tp551
a(I3
g3
(g5
S'\xd8O\x8d\x97n\xb20@'
tRp552
F0.58732986450195312
tp553
a(I3
g3
(g5
S'\xd8O\x8d\x97n\xb20@'
tRp554
F1.0951669216156006
tp555
a(I3
g3
(g5
S'\x00\x00\x00\x00\x00\x00\x00\x00'
tRp556
F1.0113639831542969
tp557
aa(lp558
(I3
g3
(g5
S'(\x85\xebQ\xb8\x1e<@'
tRp559
F0.073964118957519531
tp560
a(I3
g3
(g5
S'0\xdd$\x06\x81E@@'
tRp561
F0.078923940658569336
tp562
a(I3
g3
(g5
S'\x00\xaa\xf1\xd2M\xc2?@'
tRp563
F0.19920182228088379
tp564
a(I3
g3
(g5
S'\xb8\xc8v\xbe\x9f\xda;@'
tRp565
F0.17647504806518555
tp566
a(I3
g3
(g5
S'\xb8\xc8v\xbe\x9f\xda;@'
tRp567
F0.15853691101074219
tp568
a(I3
g3
(g5
S'\xb8rh\x91\xed\xbc4@'
tRp569
F5.9001400470733643
tp570
a(I3
g3
(g5
S'Xb\x10X9\xf43@'
tRp571
F0.14885282516479492
tp572
a(I3
g3
(g5
S'P\x0c\x02+\x87v5@'
tRp573
F0.1858060359954834
tp574
a(I3
g3
(g5
S'\xc0p=\n\xd7#\x15@'
tRp575
F0.47026181221008301
tp576
a(I3
g3
(g5
S'\x80\n\xd7\xa3p=\t@'
tRp577
F0.38597202301025391
tp578
a(I3
g3
(g5
S'\x00\x00\x00\x00\x00\x00\x00\x00'
tRp579
F8.5651671886444092
tp580
aa(lp581
(I3
g3
(g5
S'\xbe\xca\xa1E\xb6\x97Q@'
tRp582
F0.073450088500976562
tp583
a(I3
g3
(g5
S'8\xdfO\x8d\x97>B@'
tRp584
F0.079136848449707031
tp585
a(I3
g3
(g5
S'8\xdfO\x8d\x97>B@'
tRp586
F0.25607991218566895
tp587
a(I3
g3
(g5
S'\xb4\xf3\xfd\xd4x\xc1M@'
tRp588
F0.090506076812744141
tp589
a(I3
g3
(g5
S'\xb4\xf3\xfd\xd4x\xc1M@'
tRp590
F0.092287063598632812
tp591
a(I3
g3
(g5
S'\x80\xfb\xa9\xf1\xd2M\x00@'
tRp592
F7.3248751163482666
tp593
a(I3
g3
(g5
S'\x80\xfb\xa9\xf1\xd2M\x00@'
tRp594
F0.2660679817199707
tp595
a(I3
g3
(g5
S'\x80\xfb\xa9\xf1\xd2M\x00@'
tRp596
F0.25048303604125977
tp597
a(I3
g3
(g5
S'\x80\xfb\xa9\xf1\xd2M\x00@'
tRp598
F0.28828883171081543
tp599
a(I3
g3
(g5
S'\x80\xfb\xa9\xf1\xd2M\x00@'
tRp600
F0.34601593017578125
tp601
a(I3
g3
(g5
S'\x80\xfb\xa9\xf1\xd2M\x00@'
tRp602
F11.27501392364502
tp603
a(I3
g3
(g5
S'\x00\x00\x00\x00\x00\x00\x00\x00'
tRp604
F1.1874871253967285
tp605
aa(lp606
(I3
g3
(g5
S'\xa8\xf1\xd2Mb\xa0H@'
tRp607
F0.073782205581665039
tp608
a(I3
g3
(g5
S'd;\xdfO\x8d/P@'
tRp609
F0.078969001770019531
tp610
a(I3
g3
(g5
S'l\x12\x83\xc0\xca\xe1@@'
tRp611
F0.083279132843017578
tp612
a(I3
g3
(g5
S'ph\x91\xed|\x1f<@'
tRp613
F0.08525395393371582
tp614
a(I3
g3
(g5
S"\xb0\x9d\xef\xa7\xc6\x0b'@"
tRp615
F0.1034090518951416
tp616
a(I3
g3
(g5
S'43333cC@'
tRp617
F7.1029911041259766
tp618
a(I3
g3
(g5
S'43333cC@'
tRp619
F0.097259044647216797
tp620
a(I3
g3
(g5
S'43333cC@'
tRp621
F0.10159087181091309
tp622
a(I3
g3
(g5
S'43333cC@'
tRp623
F0.10334300994873047
tp624
a(I3
g3
(g5
S'43333cC@'
tRp625
F0.10501909255981445
tp626
a(I3
g3
(g5
S'`\x10X9\xb4\xc8\x18@'
tRp627
F7.3639469146728516
tp628
a(I3
g3
(g5
S'`\x10X9\xb4\xc8\x18@'
tRp629
F0.17713093757629395
tp630
a(I3
g3
(g5
S'\xc0K7\x89A`\x0c@'
tRp631
F0.1804499626159668
tp632
a(I3
g3
(g5
S'\x80\x16\xd9\xce\xf7\x93!@'
tRp633
F0.23358511924743652
tp634
a(I3
g3
(g5
S'`fffff%@'
tRp635
F0.26514887809753418
tp636
a(I3
g3
(g5
S'\xc0K7\x89A`\x0c@'
tRp637
F9.4375200271606445
tp638
a(I3
g3
(g5
S'\xc0K7\x89A`\x0c@'
tRp639
F0.21722888946533203
tp640
a(I3
g3
(g5
S'\xc0K7\x89A`\x0c@'
tRp641
F0.21718406677246094
tp642
a(I3
g3
(g5
S'\xc0K7\x89A`\x0c@'
tRp643
F0.25508403778076172
tp644
a(I3
g3
(g5
S'\xc0K7\x89A`\x0c@'
tRp645
F0.24600601196289062
tp646
a(I3
g3
(g5
S'`fffff%@'
tRp647
F10.330073833465576
tp648
a(I3
g3
(g5
S'`fffff%@'
tRp649
F0.77605390548706055
tp650
a(I3
g3
(g5
S'@5^\xbaI\x8c\x1a@'
tRp651
F0.9406740665435791
tp652
a(I3
g3
(g5
S'\x00\x7fj\xbct\x93\xfe?'
tRp653
F1.3287820816040039
tp654
a(I3
g3
(g5
S'\x00\x00\x00\x00\x00\x00\x00\x00'
tRp655
F1.3504760265350342
tp656
aa(lp657
(I3
g3
(g5
S'\xc4K7\x89A\x90E@'
tRp658
F0.074388027191162109
tp659
a(I3
g3
(g5
S'\xda\xb5\x84|\xd0\xebN@'
tRp660
F0.079288005828857422
tp661
a(I3
g3
(g5
S'x?5^\xba)>@'
tRp662
F0.082545042037963867
tp663
a(I3
g3
(g5
S'\xe8|?5^\x1a2@'
tRp664
F0.19648504257202148
tp665
a(I3
g3
(g5
S'\x90\x18\x04V\x0emD@'
tRp666
F0.18110179901123047
tp667
a(I3
g3
(g5
S'\xe8|?5^\x1a5@'
tRp668
F7.6335859298706055
tp669
a(I3
g3
(g5
S'\xe8|?5^\x1a5@'
tRp670
F5.6718471050262451
tp671
a(I3
g3
(g5
S'\xe8|?5^\x1a2@'
tRp672
F6.5566878318786621
tp673
a(I3
g3
(g5
S'x\x14\xaeG\xe1:A@'
tRp674
F3.0312020778656006
tp675
a(I3
g3
(g5
S'P\xe5\xd0"\xdb\xf9+@'
tRp676
F2.3000040054321289
tp677
a(I3
g3
(g5
S'\xf8\xd4x\xe9&q6@'
tRp678
F10.260656833648682
tp679
a(I3
g3
(g5
S'\xd0z\x14\xaeG\xe1&@'
tRp680
F0.37375593185424805
tp681
a(I3
g3
(g5
S'\xe0U\x0e-\xb2\x9d\x11@'
tRp682
F0.79198980331420898
tp683
a(I3
g3
(g5
S'\x00l\xe7\xfb\xa9\xf1\xe2?'
tRp684
F0.89426994323730469
tp685
a(I3
g3
(g5
S'\x00\x08\xac\x1cZd\x00@'
tRp686
F0.42123198509216309
tp687
a(I3
g3
(g5
S'\x00l\xe7\xfb\xa9\xf1\xe2?'
tRp688
F12.165068864822388
tp689
a(I3
g3
(g5
S'\x00\x08\xac\x1cZd\x00@'
tRp690
F1.0403609275817871
tp691
a(I3
g3
(g5
S'\x00\x08\xac\x1cZd\x00@'
tRp692
F1.5961501598358154
tp693
a(I3
g3
(g5
S'\x00\x08\xac\x1cZd\x00@'
tRp694
F3.3696420192718506
tp695
a(I3
g3
(g5
S'\x00\x08\xac\x1cZd\x00@'
tRp696
F3.9239168167114258
tp697
a(I3
g3
(g5
S'\x00\x08\xac\x1cZd\x00@'
tRp698
F1541.8612909317017
tp699
a(I3
g3
(g5
S'\x00\x08\xac\x1cZd\x00@'
tRp700
F1036.1302890777588
tp701
a(I3
g3
(g5
S'\x00\x08\xac\x1cZd\x00@'
tRp702
F1948.7104029655457
tp703
a(I3
g3
(g5
S'\x00\x08\xac\x1cZd\x00@'
tRp704
F579.03457593917847
tp705
a(I3
g3
(g5
S'\x00\x08\xac\x1cZd\x00@'
tRp706
F997.29155611991882
tp707
a(I3
g3
(g5
S'\x00\x08\xac\x1cZd\x00@'
tRp708
F982.69514894485474
tp709
a(I3
g3
(g5
S'\x00\x08\xac\x1cZd\x00@'
tRp710
F167.34671998023987
tp711
a(I3
g3
(g5
S'\x00\x08\xac\x1cZd\x00@'
tRp712
F709.11094880104065
tp713
a(I3
g3
(g5
S'\x00\x08\xac\x1cZd\x00@'
tRp714
F339.75607895851135
tp715
a(I3
g3
(g5
S'\x00\x08\xac\x1cZd\x00@'
tRp716
F431.32746005058289
tp717
a(I3
g3
(g5
S'\x00\x08\xac\x1cZd\x00@'
tRp718
F547.5933849811554
tp719
a(I3
g3
(g5
S'\x00\x08\xac\x1cZd\x00@'
tRp720
F765.27253580093384
tp721
a(I3
g3
(g5
S'\x00\xfa~j\xbct\xd3?'
tRp722
F434.91435599327087
tp723
a(I3
g3
(g5
S'\x80\x18\x04V\x0e-\xfc?'
tRp724
F6.8880970478057861
tp725
aa(lp726
(I3
g3
(g5
S'\x14\x83\xc0\xca\xa1%P@'
tRp727
F0.073845148086547852
tp728
a(I3
g3
(g5
S'\xb8\x1e\x85\xebQ\xf8I@'
tRp729
F0.079102993011474609
tp730
a(I3
g3
(g5
S'Xd;\xdfO\x9dM@'
tRp731
F0.15161299705505371
tp732
a(I3
g3
(g5
S'\x90\xed|?5\xeeN@'
tRp733
F0.219512939453125
tp734
a(I3
g3
(g5
S'F\xb6\xf3\xfd\xd4\xa0V@'
tRp735
F0.12670207023620605
tp736
a(I3
g3
(g5
S'\xa8\xc6K7\x89YR@'
tRp737
F5.631450891494751
tp738
a(I3
g3
(g5
S'\xa8\xc6K7\x89YR@'
tRp739
F0.088104963302612305
tp740
a(I3
g3
(g5
S'\xa8\xc6K7\x89YR@'
tRp741
F0.090482950210571289
tp742
a(I3
g3
(g5
S'\xa8\xc6K7\x89YR@'
tRp743
F0.091613054275512695
tp744
a(I3
g3
(g5
S'\xa8\xc6K7\x89YR@'
tRp745
F0.093239068984985352
tp746
a(I3
g3
(g5
S'\xa8\xc6K7\x89YR@'
tRp747
F7.5799510478973389
tp748
a(I3
g3
(g5
S'\xa8\xc6K7\x89YR@'
tRp749
F0.096944093704223633
tp750
a(I3
g3
(g5
S'\xa8\xc6K7\x89YR@'
tRp751
F0.099234104156494141
tp752
a(I3
g3
(g5
S'\xa8\xc6K7\x89YR@'
tRp753
F0.10095000267028809
tp754
a(I3
g3
(g5
S'\xa8\xc6K7\x89YR@'
tRp755
F0.10292196273803711
tp756
a(I3
g3
(g5
S'\x00+\x87\x16\xd9\xceH@'
tRp757
F8.7557840347290039
tp758
a(I3
g3
(g5
S'(\x87\x16\xd9\xce\x87D@'
tRp759
F1.4227619171142578
tp760
a(I3
g3
(g5
S'(\x87\x16\xd9\xce\x87D@'
tRp761
F0.99122500419616699
tp762
a(I3
g3
(g5
S'p\x93\x18\x04V.6@'
tRp763
F0.56745600700378418
tp764
a(I3
g3
(g5
S'p\x93\x18\x04V.6@'
tRp765
F0.30369019508361816
tp766
a(I3
g3
(g5
S'\x90\xc2\xf5(\\\xef1@'
tRp767
F11.825505018234253
tp768
a(I3
g3
(g5
S'\xd0 \xb0rh\xb11@'
tRp769
F0.39073395729064941
tp770
a(I3
g3
(g5
S'\xc0\xa1E\xb6\xf3\xfd\x13@'
tRp771
F0.96992707252502441
tp772
a(I3
g3
(g5
S'\xd0 \xb0rh\xb11@'
tRp773
F2.1741111278533936
tp774
a(I3
g3
(g5
S'\xc0\xa1E\xb6\xf3\xfd\x13@'
tRp775
F5.678307056427002
tp776
a(I3
g3
(g5
S' /\xdd$\x06\x01 @'
tRp777
F15.442158937454224
tp778
a(I3
g3
(g5
S'\xc0\xa1E\xb6\xf3\xfd\x13@'
tRp779
F2.1084489822387695
tp780
a(I3
g3
(g5
S'\xc0\xa1E\xb6\xf3\xfd\x13@'
tRp781
F2.5436689853668213
tp782
a(I3
g3
(g5
S'\xc0\xa1E\xb6\xf3\xfd\x13@'
tRp783
F2.3165280818939209
tp784
a(I3
g3
(g5
S'\xc0\xa1E\xb6\xf3\xfd\x13@'
tRp785
F1.6852140426635742
tp786
a(I3
g3
(g5
S'\xc0\xa1E\xb6\xf3\xfd\x13@'
tRp787
F21.542046070098877
tp788
a(I3
g3
(g5
S'\x00\x00\x00\x00\x00\x00\x00\x00'
tRp789
F6.1791460514068604
tp790
aa(lp791
(I3
g3
(g5
S'8\xdfO\x8d\x97\xeeA@'
tRp792
F0.073850870132446289
tp793
a(I3
g3
(g5
S'\xa0\xebQ\xb8\x1eE.@'
tRp794
F0.079149007797241211
tp795
a(I3
g3
(g5
S'\xa0\xebQ\xb8\x1eE.@'
tRp796
F0.084715843200683594
tp797
a(I3
g3
(g5
S'\x0c-\xb2\x9d\xef\x07E@'
tRp798
F0.10162496566772461
tp799
a(I3
g3
(g5
S'\x0c-\xb2\x9d\xef\x07E@'
tRp800
F0.091641902923583984
tp801
a(I3
g3
(g5
S'\x00\xee|?5^\xfa?'
tRp802
F6.4525830745697021
tp803
a(I3
g3
(g5
S'\x00\xee|?5^\xfa?'
tRp804
F0.22291803359985352
tp805
a(I3
g3
(g5
S'\x00\xee|?5^\xfa?'
tRp806
F0.25398802757263184
tp807
a(I3
g3
(g5
S'\x00\xee|?5^\xfa?'
tRp808
F0.21957516670227051
tp809
a(I3
g3
(g5
S'\x00\xf4\xfd\xd4x\xe9\n@'
tRp810
F0.21915888786315918
tp811
a(I3
g3
(g5
S'\x00\xee|?5^\xfa?'
tRp812
F8.8601830005645752
tp813
a(I3
g3
(g5
S'\x00\xaa\xf1\xd2Mb\xf4?'
tRp814
F0.28838205337524414
tp815
a(I3
g3
(g5
S'\x00R\xb8\x1e\x85\xeb\x07@'
tRp816
F0.30209088325500488
tp817
a(I3
g3
(g5
S'\x00R\xb8\x1e\x85\xeb\x07@'
tRp818
F0.3269660472869873
tp819
a(I3
g3
(g5
S'@b\x10X9\xb4\x10@'
tRp820
F0.81892514228820801
tp821
a(I3
g3
(g5
S'\x80\xef\xa7\xc6K7\x07@'
tRp822
F15.402637004852295
tp823
a(I3
g3
(g5
S'@b\x10X9\xb4\x10@'
tRp824
F13.568143844604492
tp825
a(I3
g3
(g5
S'@b\x10X9\xb4\x10@'
tRp826
F4.6002380847930908
tp827
a(I3
g3
(g5
S'\x80G\xe1z\x14\xae\x03@'
tRp828
F6.9220728874206543
tp829
a(I3
g3
(g5
S'@b\x10X9\xb4\x10@'
tRp830
F14.912330865859985
tp831
a(I3
g3
(g5
S'\x80G\xe1z\x14\xae\x03@'
tRp832
F16.300078153610229
tp833
a(I3
g3
(g5
S'\x80\xebQ\xb8\x1e\x85\t@'
tRp834
F4.0673708915710449
tp835
a(I3
g3
(g5
S'\x80\xebQ\xb8\x1e\x85\t@'
tRp836
F3.5900170803070068
tp837
a(I3
g3
(g5
S'@\xb4\xc8v\xbe\x9f\x13@'
tRp838
F14.55900502204895
tp839
a(I3
g3
(g5
S'\x80\xc4 \xb0rh\x1c@'
tRp840
F11.888947010040283
tp841
a(I3
g3
(g5
S'@\xb4\xc8v\xbe\x9f\x13@'
tRp842
F26.780389070510864
tp843
a(I3
g3
(g5
S'@\xb4\xc8v\xbe\x9f\x13@'
tRp844
F10.77844500541687
tp845
a(I3
g3
(g5
S'@\xb4\xc8v\xbe\x9f\x13@'
tRp846
F10.690356969833374
tp847
a(I3
g3
(g5
S'@\xb4\xc8v\xbe\x9f\x13@'
tRp848
F10.694462060928345
tp849
a(I3
g3
(g5
S'@\xb4\xc8v\xbe\x9f\x13@'
tRp850
F10.693518877029419
tp851
a(I3
g3
(g5
S'\x00\xee|?5^\xfa?'
tRp852
F33.533016920089722
tp853
a(I3
g3
(g5
S'@\xb6\xf3\xfd\xd4\xf8#@'
tRp854
F16.490665197372437
tp855
a(I3
g3
(g5
S'\x80j\xbct\x93\x18\x1b@'
tRp856
F18.256675004959106
tp857
a(I3
g3
(g5
S'\x00\xee|?5^\xfa?'
tRp858
F12.560215950012207
tp859
aa(lp860
(I3
g3
(g5
S'\xdc$\x06\x81\x95+P@'
tRp861
F0.074341058731079102
tp862
a(I3
g3
(g5
S'\x92\xed|?5\x86Q@'
tRp863
F0.079300165176391602
tp864
a(I3
g3
(g5
S'\x00\xd5x\xe9&\xd1M@'
tRp865
F0.22254490852355957
tp866
a(I3
g3
(g5
S'\x18\xd9\xce\xf7S\xa3K@'
tRp867
F0.17895603179931641
tp868
a(I3
g3
(g5
S'\x18\xd9\xce\xf7S\xa3K@'
tRp869
F0.092926979064941406
tp870
a(I3
g3
(g5
S'T\x0e-\xb2\x9do@@'
tRp871
F7.379755973815918
tp872
a(I3
g3
(g5
S'\xc8\xf7S\xe3\xa5\xdb8@'
tRp873
F0.20803403854370117
tp874
a(I3
g3
(g5
S'\xc0$\x06\x81\x95C\x0b@'
tRp875
F0.21899199485778809
tp876
a(I3
g3
(g5
S'\xecQ\xb8\x1e\x85\x8bM@'
tRp877
F0.22279500961303711
tp878
a(I3
g3
(g5
S'@`\xe5\xd0"\x1b@@'
tRp879
F0.11590290069580078
tp880
a(I3
g3
(g5
S'\xe0$\x06\x81\x95\xc3\x11@'
tRp881
F6.9123408794403076
tp882
a(I3
g3
(g5
S'\x00\x00\x00\x00\x00\x00\x00\x00'
tRp883
F0.12743616104125977
tp884
aa(lp885
(I3
g3
(g5
S'T\x0e-\xb2\x9d\xcfV@'
tRp886
F0.073632955551147461
tp887
a(I3
g3
(g5
S't?5^\xba\xe9J@'
tRp888
F0.079033136367797852
tp889
a(I3
g3
(g5
S't?5^\xba\xe9J@'
tRp890
F0.24730110168457031
tp891
a(I3
g3
(g5
S'\x18\x85\xebQ\xb8\xbeO@'
tRp892
F0.08653712272644043
tp893
a(I3
g3
(g5
S'\x94C\x8bl\xe7\xdbT@'
tRp894
F0.14632797241210938
tp895
a(I3
g3
(g5
S'\x18\x04V\x0e-BA@'
tRp896
F7.3832359313964844
tp897
a(I3
g3
(g5
S'\x18\x04V\x0e-BA@'
tRp898
F0.22928905487060547
tp899
a(I3
g3
(g5
S'\x18\x04V\x0e-BA@'
tRp900
F0.2248690128326416
tp901
a(I3
g3
(g5
S'(\x06\x81\x95C\x0b?@'
tRp902
F0.26036500930786133
tp903
a(I3
g3
(g5
S'(\x06\x81\x95C\x0b?@'
tRp904
F0.29555702209472656
tp905
a(I3
g3
(g5
S'(\x06\x81\x95C\x0b?@'
tRp906
F7.1616909503936768
tp907
a(I3
g3
(g5
S'(\x06\x81\x95C\x0b?@'
tRp908
F0.25141692161560059
tp909
a(I3
g3
(g5
S'(\x06\x81\x95C\x0b?@'
tRp910
F0.32198095321655273
tp911
a(I3
g3
(g5
S'(\x06\x81\x95C\x0b?@'
tRp912
F0.84637904167175293
tp913
a(I3
g3
(g5
S'P\x8f\xc2\xf5(\x1c!@'
tRp914
F0.7646489143371582
tp915
a(I3
g3
(g5
S'@9\xb4\xc8v\xbe\x16@'
tRp916
F30.217576026916504
tp917
a(I3
g3
(g5
S'@9\xb4\xc8v\xbe\x16@'
tRp918
F30.358860969543457
tp919
a(I3
g3
(g5
S'\x00\x00\x00\x00\x00\x00\x00\x00'
tRp920
F77.693441152572632
tp921
aa(lp922
(I3
g3
(g5
S'D\xb6\xf3\xfd\xd4\xb8F@'
tRp923
F0.073876142501831055
tp924
a(I3
g3
(g5
S'`\xe5\xd0"\xdb\x994@'
tRp925
F0.078775882720947266
tp926
a(I3
g3
(g5
S'`\xe5\xd0"\xdb\x994@'
tRp927
F0.27315807342529297
tp928
a(I3
g3
(g5
S'\xf8~j\xbcts>@'
tRp929
F0.090794801712036133
tp930
a(I3
g3
(g5
S'\xf8~j\xbcts>@'
tRp931
F0.093621015548706055
tp932
a(I3
g3
(g5
S'Pb\x10X9\xb4!@'
tRp933
F6.6645958423614502
tp934
a(I3
g3
(g5
S'Pb\x10X9\xb4!@'
tRp935
F0.13527703285217285
tp936
a(I3
g3
(g5
S'\x00+\x87\x16\xd9N\x14@'
tRp937
F0.12024497985839844
tp938
a(I3
g3
(g5
S'\x00)\\\x8f\xc2\xf5\xf2?'
tRp939
F0.16739702224731445
tp940
a(I3
g3
(g5
S'\x00)\\\x8f\xc2\xf5\xf2?'
tRp941
F0.23769712448120117
tp942
a(I3
g3
(g5
S'\xa0\xc6K7\x89A\x11@'
tRp943
F7.8095300197601318
tp944
a(I3
g3
(g5
S'\xa0\xc6K7\x89A\x11@'
tRp945
F0.38782906532287598
tp946
a(I3
g3
(g5
S'\x00)\\\x8f\xc2\xf5\xf2?'
tRp947
F1.7484989166259766
tp948
a(I3
g3
(g5
S'\x00)\\\x8f\xc2\xf5\xf2?'
tRp949
F7.5838148593902588
tp950
a(I3
g3
(g5
S' \xd9\xce\xf7Sc\x18@'
tRp951
F52.274075031280518
tp952
a(I3
g3
(g5
S'\x00)\\\x8f\xc2\xf5\xf2?'
tRp953
F43.143808841705322
tp954
a(I3
g3
(g5
S'\x00)\\\x8f\xc2\xf5\xf2?'
tRp955
F21.111768007278442
tp956
a(I3
g3
(g5
S'\x00)\\\x8f\xc2\xf5\xf2?'
tRp957
F40.819371938705444
tp958
a(I3
g3
(g5
S'\xf8~j\xbcts>@'
tRp959
F16.48714804649353
tp960
a(I3
g3
(g5
S'\xf8~j\xbcts>@'
tRp961
F0.11239504814147949
tp962
a(I3
g3
(g5
S'\x00)\\\x8f\xc2\xf5\xf2?'
tRp963
F14.267685174942017
tp964
a(I3
g3
(g5
S'\x00)\\\x8f\xc2\xf5\xf2?'
tRp965
F1.218228816986084
tp966
a(I3
g3
(g5
S'\x00+\x87\x16\xd9N\x14@'
tRp967
F0.53752493858337402
tp968
a(I3
g3
(g5
S'\x00+\x87\x16\xd9N\x14@'
tRp969
F1.4330098628997803
tp970
a(I3
g3
(g5
S'\x00+\x87\x16\xd9N\x14@'
tRp971
F0.69629693031311035
tp972
a(I3
g3
(g5
S'\x00)\\\x8f\xc2\xf5\xf2?'
tRp973
F14.721724987030029
tp974
a(I3
g3
(g5
S'\x00)\\\x8f\xc2\xf5\xf2?'
tRp975
F1.5201859474182129
tp976
a(I3
g3
(g5
S'\x00)\\\x8f\xc2\xf5\xf2?'
tRp977
F1.5346570014953613
tp978
a(I3
g3
(g5
S'\x00)\\\x8f\xc2\xf5\xf2?'
tRp979
F1.5337798595428467
tp980
a(I3
g3
(g5
S'\x00)\\\x8f\xc2\xf5\xf2?'
tRp981
F1.0998580455780029
tp982
a(I3
g3
(g5
S'\x00)\\\x8f\xc2\xf5\xf2?'
tRp983
F15.064718961715698
tp984
a(I3
g3
(g5
S'\x00)\\\x8f\xc2\xf5\xf2?'
tRp985
F1.3209381103515625
tp986
a(I3
g3
(g5
S'\x00)\\\x8f\xc2\xf5\xf2?'
tRp987
F1.3246579170227051
tp988
a(I3
g3
(g5
S'\x00)\\\x8f\xc2\xf5\xf2?'
tRp989
F1.3304281234741211
tp990
aa.