(lp1
(lp2
(I3
cnumpy.core.multiarray
scalar
p3
(cnumpy
dtype
p4
(S'f8'
I0
I1
tRp5
(I3
S'<'
NNNI-1
I-1
I0
tbS'\xde$\x06\x81\x95\xab\\@'
tRp6
F0.036324977874755859
tp7
a(I3
g3
(g5
S'\xde$\x06\x81\x95\xab\\@'
tRp8
F0.080862998962402344
tp9
a(I3
g3
(g5
S'\xde$\x06\x81\x95\xab\\@'
tRp10
F0.10283708572387695
tp11
a(I3
g3
(g5
S'\x8cl\xe7\xfb\xa9\xbdc@'
tRp12
F0.10339689254760742
tp13
a(I3
g3
(g5
S'\x8cl\xe7\xfb\xa9\xbdc@'
tRp14
F0.053777933120727539
tp15
a(I3
g3
(g5
S'\x00\x00\x00\x00\x00\x00\x00\x00'
tRp16
F5.0677061080932617
tp17
aa(lp18
(I3
g3
(g5
S'X\x0e-\xb2\x9dOS@'
tRp19
F0.03590703010559082
tp20
a(I3
g3
(g5
S'.\xb2\x9d\xef\xa7\xeeo@'
tRp21
F0.076445102691650391
tp22
a(I3
g3
(g5
S'.\xb2\x9d\xef\xa7\xeeo@'
tRp23
F0.037926912307739258
tp24
a(I3
g3
(g5
S'.\xb2\x9d\xef\xa7\xeeo@'
tRp25
F0.039398908615112305
tp26
a(I3
g3
(g5
S'.\xb2\x9d\xef\xa7\xeeo@'
tRp27
F0.041096925735473633
tp28
a(I3
g3
(g5
S'\xc8K7\x89ALf@'
tRp29
F3.4271819591522217
tp30
a(I3
g3
(g5
S'\xc8K7\x89ALf@'
tRp31
F0.046755075454711914
tp32
a(I3
g3
(g5
S'\xc8K7\x89ALf@'
tRp33
F0.047755956649780273
tp34
a(I3
g3
(g5
S'\xc8K7\x89ALf@'
tRp35
F0.049288034439086914
tp36
a(I3
g3
(g5
S'\xc8K7\x89ALf@'
tRp37
F0.0507659912109375
tp38
a(I3
g3
(g5
S'\xc8K7\x89ALf@'
tRp39
F3.99639892578125
tp40
a(I3
g3
(g5
S'\xc8K7\x89ALf@'
tRp41
F0.054352998733520508
tp42
a(I3
g3
(g5
S'\xc8K7\x89ALf@'
tRp43
F0.055547952651977539
tp44
a(I3
g3
(g5
S'\xc8K7\x89ALf@'
tRp45
F0.057203054428100586
tp46
a(I3
g3
(g5
S'\xc8K7\x89ALf@'
tRp47
F0.058690071105957031
tp48
a(I3
g3
(g5
S'\xc8K7\x89ALf@'
tRp49
F4.5705409049987793
tp50
a(I3
g3
(g5
S'\xc8K7\x89ALf@'
tRp51
F0.061733007431030273
tp52
a(I3
g3
(g5
S'\xc8K7\x89ALf@'
tRp53
F0.063171148300170898
tp54
a(I3
g3
(g5
S'\xc8K7\x89ALf@'
tRp55
F0.064991950988769531
tp56
a(I3
g3
(g5
S'\xc8K7\x89ALf@'
tRp57
F0.066232204437255859
tp58
a(I3
g3
(g5
S'\xc8K7\x89ALf@'
tRp59
F5.1648449897766113
tp60
a(I3
g3
(g5
S'\xc8K7\x89ALf@'
tRp61
F0.06964111328125
tp62
a(I3
g3
(g5
S'\xc8K7\x89ALf@'
tRp63
F0.070847034454345703
tp64
a(I3
g3
(g5
S'\xc8K7\x89ALf@'
tRp65
F0.072890996932983398
tp66
a(I3
g3
(g5
S'\xc8K7\x89ALf@'
tRp67
F0.074450969696044922
tp68
a(I3
g3
(g5
S'\xc8K7\x89ALf@'
tRp69
F5.7021000385284424
tp70
a(I3
g3
(g5
S'\xc8K7\x89ALf@'
tRp71
F0.077419042587280273
tp72
a(I3
g3
(g5
S'\xc8K7\x89ALf@'
tRp73
F0.078805923461914062
tp74
a(I3
g3
(g5
S'\xc8K7\x89ALf@'
tRp75
F0.080475807189941406
tp76
a(I3
g3
(g5
S'\xc8K7\x89ALf@'
tRp77
F0.081609010696411133
tp78
a(I3
g3
(g5
S'\xc8K7\x89ALf@'
tRp79
F6.4155871868133545
tp80
a(I3
g3
(g5
S'\xc8K7\x89ALf@'
tRp81
F0.084579944610595703
tp82
a(I3
g3
(g5
S'\xc8K7\x89ALf@'
tRp83
F0.086063146591186523
tp84
a(I3
g3
(g5
S'\xc8K7\x89ALf@'
tRp85
F0.087388992309570312
tp86
a(I3
g3
(g5
S'\xc8K7\x89ALf@'
tRp87
F0.089420080184936523
tp88
a(I3
g3
(g5
S'\xc8K7\x89ALf@'
tRp89
F6.8605849742889404
tp90
a(I3
g3
(g5
S'\xc8K7\x89ALf@'
tRp91
F0.09139704704284668
tp92
a(I3
g3
(g5
S'\xc8K7\x89ALf@'
tRp93
F0.092932939529418945
tp94
a(I3
g3
(g5
S'\xc8K7\x89ALf@'
tRp95
F0.094291925430297852
tp96
a(I3
g3
(g5
S'\xc8K7\x89ALf@'
tRp97
F0.096201896667480469
tp98
a(I3
g3
(g5
S'\xc8K7\x89ALf@'
tRp99
F7.4529001712799072
tp100
a(I3
g3
(g5
S'\xc8K7\x89ALf@'
tRp101
F0.09878993034362793
tp102
a(I3
g3
(g5
S'\xc8K7\x89ALf@'
tRp103
F0.1002349853515625
tp104
a(I3
g3
(g5
S'\xc8K7\x89ALf@'
tRp105
F0.10199403762817383
tp106
a(I3
g3
(g5
S'\xc8K7\x89ALf@'
tRp107
F0.10313296318054199
tp108
a(I3
g3
(g5
S'\xc8K7\x89ALf@'
tRp109
F8.1227459907531738
tp110
a(I3
g3
(g5
S'\xc8K7\x89ALf@'
tRp111
F0.10566306114196777
tp112
a(I3
g3
(g5
S'\xc8K7\x89ALf@'
tRp113
F0.10721898078918457
tp114
a(I3
g3
(g5
S'\xc8K7\x89ALf@'
tRp115
F0.10898494720458984
tp116
a(I3
g3
(g5
S'\xc8K7\x89ALf@'
tRp117
F0.1099698543548584
tp118
aa(lp119
(I3
g3
(g5
S'\xd0\xf7S\xe3\xa5\xebH@'
tRp120
F0.035700082778930664
tp121
a(I3
g3
(g5
S'\xd0\xf7S\xe3\xa5\xebH@'
tRp122
F0.079454898834228516
tp123
a(I3
g3
(g5
S')\\\x8f\xc2\xf5\x10b@'
tRp124
F0.084005117416381836
tp125
a(I3
g3
(g5
S')\\\x8f\xc2\xf5\x10b@'
tRp126
F0.044032096862792969
tp127
a(I3
g3
(g5
S')\\\x8f\xc2\xf5\x10b@'
tRp128
F0.049344062805175781
tp129
a(I3
g3
(g5
S'\x00\x00\x00\x00\x00\x00\x00\x00'
tRp130
F5.4256381988525391
tp131
aa(lp132
(I3
g3
(g5
S'\xa1E\xb6\xf3\xfd,X@'
tRp133
F0.036201000213623047
tp134
a(I3
g3
(g5
S'x\xe9&1\x08L>@'
tRp135
F0.074261903762817383
tp136
a(I3
g3
(g5
S'x\xe9&1\x08L>@'
tRp137
F0.045212030410766602
tp138
a(I3
g3
(g5
S'\x00\x00\x00\x00\x00\x00\x00\x00'
tRp139
F0.10108518600463867
tp140
aa(lp141
(I3
g3
(g5
S'\x00\x00\x00\x00\x00\x00\x00\x00'
tRp142
F0.035795927047729492
tp143
aa(lp144
(I3
g3
(g5
S'\xc0\xf3\xfd\xd4x\xe9\xf7?'
tRp145
F0.035728931427001953
tp146
a(I3
g3
(g5
S'\x00\x00\x00\x00\x00\x00\x00\x00'
tRp147
F0.083389997482299805
tp148
aa(lp149
(I3
g3
(g5
S'\xafrh\x91\xed\xd8a@'
tRp150
F0.035661220550537109
tp151
a(I3
g3
(g5
S'\xafrh\x91\xed\xd8a@'
tRp152
F0.082369089126586914
tp153
a(I3
g3
(g5
S'\x00\x00\x00\x00\x00\x00\x00\x00'
tRp154
F0.097294092178344727
tp155
aa(lp156
(I3
g3
(g5
S'\xc9v\xbe\x9f\x1a\xa7a@'
tRp157
F0.035775899887084961
tp158
a(I3
g3
(g5
S'\x00\x00\x00\x00\x00\x00\x00\x00'
tRp159
F0.077414035797119141
tp160
aa(lp161
(I3
g3
(g5
S'\x80\x95C\x8bloQ@'
tRp162
F0.035648822784423828
tp163
a(I3
g3
(g5
S'<\n\xd7\xa3p\x1dH@'
tRp164
F0.080091953277587891
tp165
a(I3
g3
(g5
S'<\n\xd7\xa3p\x1dH@'
tRp166
F0.090257883071899414
tp167
a(I3
g3
(g5
S'\xd2Mb\x10X\xe9E@'
tRp168
F0.09811711311340332
tp169
a(I3
g3
(g5
S'\xd2Mb\x10X\xe9E@'
tRp170
F0.04677891731262207
tp171
a(I3
g3
(g5
S'\x00\x00\x00\x00\x00\x00\x00\x00'
tRp172
F3.9465961456298828
tp173
aa(lp174
(I3
g3
(g5
S'\xa4p=\n\xd7\xc35@'
tRp175
F0.03567194938659668
tp176
a(I3
g3
(g5
S'\xa4p=\n\xd7\xc35@'
tRp177
F0.076105833053588867
tp178
a(I3
g3
(g5
S'\xa4p=\n\xd7\xc35@'
tRp179
F0.10079503059387207
tp180
a(I3
g3
(g5
S'\x00\x00\x00\x00\x00\x00\x00\x00'
tRp181
F0.11803698539733887
tp182
aa(lp183
(I3
g3
(g5
S'\xa0p=\n\xd7\xa37@'
tRp184
F0.035984992980957031
tp185
a(I3
g3
(g5
S'\xbaI\x0c\x02+\xc7Q@'
tRp186
F0.082885026931762695
tp187
a(I3
g3
(g5
S'\x00\xaa\xf1\xd2M"+@'
tRp188
F0.12019181251525879
tp189
a(I3
g3
(g5
S'\x00\xaa\xf1\xd2M"+@'
tRp190
F0.072318077087402344
tp191
a(I3
g3
(g5
S'\x00\xaa\xf1\xd2M"+@'
tRp192
F0.085039854049682617
tp193
a(I3
g3
(g5
S'\x00\xaa\xf1\xd2M"+@'
tRp194
F3.7524459362030029
tp195
a(I3
g3
(g5
S'\x00\xaa\xf1\xd2M"+@'
tRp196
F0.044228076934814453
tp197
a(I3
g3
(g5
S'\x00\xaa\xf1\xd2M"+@'
tRp198
F0.045756101608276367
tp199
a(I3
g3
(g5
S'\x00\xaa\xf1\xd2M"+@'
tRp200
F0.047453880310058594
tp201
a(I3
g3
(g5
S'\x00\xaa\xf1\xd2M"+@'
tRp202
F0.048484086990356445
tp203
a(I3
g3
(g5
S'\x00\xaa\xf1\xd2M"+@'
tRp204
F4.3679490089416504
tp205
a(I3
g3
(g5
S'\xbaI\x0c\x02+\xc7Q@'
tRp206
F0.10937380790710449
tp207
a(I3
g3
(g5
S'\x00\x00\x00\x00\x00\x00\x00\x00'
tRp208
F0.20038890838623047
tp209
aa(lp210
(I3
g3
(g5
S'\xa3p=\n\xd7\xa3_@'
tRp211
F0.035797119140625
tp212
a(I3
g3
(g5
S'\x10X9\xb4\xc8&X@'
tRp213
F0.076971054077148438
tp214
a(I3
g3
(g5
S'\xa0\xef\xa7\xc6K\xb7!@'
tRp215
F0.043745994567871094
tp216
a(I3
g3
(g5
S'`\xe5\xd0"\xdb\xc9j@'
tRp217
F0.08663487434387207
tp218
a(I3
g3
(g5
S'`\xe5\xd0"\xdb\xc9j@'
tRp219
F0.053714990615844727
tp220
a(I3
g3
(g5
S'\xa0\xef\xa7\xc6K\xb7!@'
tRp221
F3.8297660350799561
tp222
a(I3
g3
(g5
S'\x00\x00\x00\x00\x00\x00\x00\x00'
tRp223
F0.058974981307983398
tp224
aa(lp225
(I3
g3
(g5
S'\x08\xac\x1cZd\xebA@'
tRp226
F0.035876035690307617
tp227
a(I3
g3
(g5
S'\x08\xac\x1cZd\xebA@'
tRp228
F0.077273130416870117
tp229
a(I3
g3
(g5
S'\x00\x00\x00\x00\x00\x00\x00\x00'
tRp230
F0.083760976791381836
tp231
aa(lp232
(I3
g3
(g5
S'\x00o\x81\x04\xc5\xa7A@'
tRp233
F0.035872936248779297
tp234
a(I3
g3
(g5
S'\x00\x00\x00\x00\x00\x00\x00\x00'
tRp235
F0.085000991821289062
tp236
aa(lp237
(I3
g3
(g5
S'1\x08\xac\x1cZhh@'
tRp238
F0.035783052444458008
tp239
a(I3
g3
(g5
S'\xdc\xf9~j\xbc\x14O@'
tRp240
F0.080177783966064453
tp241
a(I3
g3
(g5
S'\xdc\xf9~j\xbc\x14O@'
tRp242
F0.093504905700683594
tp243
a(I3
g3
(g5
S'\x00\x00\x00\x00\x00\x00\x00\x00'
tRp244
F0.10024905204772949
tp245
aa(lp246
(I3
g3
(g5
S'`\xe5\xd0"\xdb\x89f@'
tRp247
F0.035717964172363281
tp248
a(I3
g3
(g5
S'(\\\x8f\xc2\xf5\xf8N@'
tRp249
F0.082356929779052734
tp250
a(I3
g3
(g5
S't\x93\x18\x04V.T@'
tRp251
F0.11417102813720703
tp252
a(I3
g3
(g5
S't\x93\x18\x04V.T@'
tRp253
F0.072443962097167969
tp254
a(I3
g3
(g5
S't\x93\x18\x04V.T@'
tRp255
F0.089843988418579102
tp256
a(I3
g3
(g5
S't\x93\x18\x04V.T@'
tRp257
F3.9039428234100342
tp258
a(I3
g3
(g5
S't\x93\x18\x04V.T@'
tRp259
F0.082446813583374023
tp260
a(I3
g3
(g5
S't\x93\x18\x04V.T@'
tRp261
F0.075887918472290039
tp262
a(I3
g3
(g5
S't\x93\x18\x04V.T@'
tRp263
F0.079678058624267578
tp264
a(I3
g3
(g5
S't\x93\x18\x04V.T@'
tRp265
F0.087250947952270508
tp266
a(I3
g3
(g5
S'\x10-\xb2\x9d\xef\xa74@'
tRp267
F4.539391040802002
tp268
a(I3
g3
(g5
S'X9\xb4\xc8v\xa6T@'
tRp269
F3.58359694480896
tp270
a(I3
g3
(g5
S'(\\\x8f\xc2\xf5\xf8N@'
tRp271
F16.057497024536133
tp272
a(I3
g3
(g5
S'(\\\x8f\xc2\xf5\xf8N@'
tRp273
F7.4129760265350342
tp274
a(I3
g3
(g5
S'\x10-\xb2\x9d\xef\xa74@'
tRp275
F10.096632957458496
tp276
a(I3
g3
(g5
S'\x00\x00\x00\x00\x00\x00\x00\x00'
tRp277
F7.3944060802459717
tp278
aa(lp279
(I3
g3
(g5
S'\xde\x93\x87\x85Z\xb3V@'
tRp280
F0.036092996597290039
tp281
a(I3
g3
(g5
S'\xfc\xa9\xf1\xd2MRE@'
tRp282
F0.079396963119506836
tp283
a(I3
g3
(g5
S'\xecQ\xb8\x1e\x85\xcf`@'
tRp284
F0.098695993423461914
tp285
a(I3
g3
(g5
S'\xecQ\xb8\x1e\x85\xcf`@'
tRp286
F0.044460058212280273
tp287
a(I3
g3
(g5
S'\xecQ\xb8\x1e\x85\xcf`@'
tRp288
F0.048970937728881836
tp289
a(I3
g3
(g5
S'\xfc\xa9\xf1\xd2MRE@'
tRp290
F4.7357430458068848
tp291
a(I3
g3
(g5
S'\x00\x00\x00\x00\x00\x00\x00\x00'
tRp292
F0.10447311401367188
tp293
aa(lp294
(I3
g3
(g5
S'\xcd\xcc\xcc\xcc\xccTY@'
tRp295
F0.035633087158203125
tp296
a(I3
g3
(g5
S'\x8c\x97n\x12\x83\xe04@'
tRp297
F0.086626052856445312
tp298
a(I3
g3
(g5
S'\x00\x00\x00\x00\x00\x00\x00\x00'
tRp299
F0.090178966522216797
tp300
aa(lp301
(I3
g3
(g5
S'\xac\xc6K7\x89\x01D@'
tRp302
F0.035760879516601562
tp303
a(I3
g3
(g5
S'\xb0\x1cZd;_6@'
tRp304
F0.076185941696166992
tp305
a(I3
g3
(g5
S'\xb0\x1cZd;_6@'
tRp306
F0.12204504013061523
tp307
a(I3
g3
(g5
S'\x00\x00\x00\x00\x00\x00\x00\x00'
tRp308
F0.095443010330200195
tp309
aa(lp310
(I3
g3
(g5
S'\x12\xf2A\xcffuE@'
tRp311
F0.035778045654296875
tp312
a(I3
g3
(g5
S'`+\xf6\x97\xdd\x93\x0c@'
tRp313
F0.096333026885986328
tp314
a(I3
g3
(g5
S'\x12\x83\xc0\xca\xa1%T@'
tRp315
F0.10944795608520508
tp316
a(I3
g3
(g5
S'\x12\x83\xc0\xca\xa1%T@'
tRp317
F0.039975881576538086
tp318
a(I3
g3
(g5
S'\x12\x83\xc0\xca\xa1%T@'
tRp319
F0.041372060775756836
tp320
a(I3
g3
(g5
S'\x00\x00\x00\x00\x00\x00\x00\x00'
tRp321
F3.6002449989318848
tp322
aa.