(lp1
(lp2
(I3
cnumpy.core.multiarray
scalar
p3
(cnumpy
dtype
p4
(S'f8'
I0
I1
tRp5
(I3
S'<'
NNNI-1
I-1
I0
tbS'\xe0z\x14\xaeG\xe1-@'
tRp6
F0.029886007308959961
tp7
a(I3
g3
(g5
S'\xdfO\x8d\x97nr9@'
tRp8
F0.069751977920532227
tp9
a(I3
g3
(g5
S'<\xdfO\x8d\x97.%@'
tRp10
F0.12010788917541504
tp11
a(I3
g3
(g5
S'<\xdfO\x8d\x97.%@'
tRp12
F0.054963111877441406
tp13
a(I3
g3
(g5
S'<\xdfO\x8d\x97.%@'
tRp14
F0.11509084701538086
tp15
a(I3
g3
(g5
S'<\xdfO\x8d\x97.%@'
tRp16
F3.7796781063079834
tp17
a(I3
g3
(g5
S'<\xdfO\x8d\x97.%@'
tRp18
F0.10499095916748047
tp19
a(I3
g3
(g5
S'<\xdfO\x8d\x97.%@'
tRp20
F0.10257697105407715
tp21
a(I3
g3
(g5
S'<\xdfO\x8d\x97.%@'
tRp22
F0.092047929763793945
tp23
a(I3
g3
(g5
S'<\xdfO\x8d\x97.%@'
tRp24
F0.11638998985290527
tp25
a(I3
g3
(g5
S'<\xdfO\x8d\x97.%@'
tRp26
F4.2519850730895996
tp27
a(I3
g3
(g5
S'<\xdfO\x8d\x97.%@'
tRp28
F3.3160231113433838
tp29
a(I3
g3
(g5
S'<\xdfO\x8d\x97.%@'
tRp30
F2.5413599014282227
tp31
a(I3
g3
(g5
S'<\xdfO\x8d\x97.%@'
tRp32
F1.9860050678253174
tp33
a(I3
g3
(g5
S'<\xdfO\x8d\x97.%@'
tRp34
F3.9721860885620117
tp35
a(I3
g3
(g5
S'\x00\x00\x00\x00\x00\x00\x00\x00'
tRp36
F6.7201249599456787
tp37
aa(lp38
(I3
g3
(g5
S'\x00\x00\x00\x00\x00\x00\x00\x00'
tRp39
F0.029365062713623047
tp40
aa(lp41
(I3
g3
(g5
S'x\xe9&1\x08\x8c5@'
tRp42
F0.028979063034057617
tp43
a(I3
g3
(g5
S'x\xe9&1\x08\x8c5@'
tRp44
F0.090178966522216797
tp45
a(I3
g3
(g5
S'\x00\x00\x00\x00\x00\x00\x00\x00'
tRp46
F0.12430977821350098
tp47
aa(lp48
(I3
g3
(g5
S'p\x12\x83\xc0\xcaa!@'
tRp49
F0.029102087020874023
tp50
a(I3
g3
(g5
S'\x00\x00\x00\x00\x00\x00\x00\x00'
tRp51
F0.082808971405029297
tp52
aa(lp53
(I3
g3
(g5
S'\x00\x00\x00\x00\x00\x00\x00\x00'
tRp54
F0.028820037841796875
tp55
aa(lp56
(I3
g3
(g5
S'\xa6\x9b\xc4 \xb0r2@'
tRp57
F0.028918981552124023
tp58
a(I3
g3
(g5
S'\x00\x00\x00\x00\x00\x00\x00\x00'
tRp59
F0.071778059005737305
tp60
aa(lp61
(I3
g3
(g5
S'p\xbe\x9f\x1a/\xdd\x14@'
tRp62
F0.028858184814453125
tp63
a(I3
g3
(g5
S'\x00\x00\x00\x00\x00\x00\x00\x00'
tRp64
F0.079220056533813477
tp65
aa(lp66
(I3
g3
(g5
S'\xe9&1\x08\xac\\7@'
tRp67
F0.028939962387084961
tp68
a(I3
g3
(g5
S'\xf4\xfd\xd4x\xe9f%@'
tRp69
F0.074661016464233398
tp70
a(I3
g3
(g5
S'\xf4\xfd\xd4x\xe9f%@'
tRp71
F0.038189888000488281
tp72
a(I3
g3
(g5
S'\x00\x00\x00\x00\x00\x00\x00\x00'
tRp73
F0.094473123550415039
tp74
aa(lp75
(I3
g3
(g5
S'\x8e\xc2\xf5(\\\xafA@'
tRp76
F0.029215097427368164
tp77
a(I3
g3
(g5
S'\\\xbaI\x0c\x02\x8b;@'
tRp78
F0.082226037979125977
tp79
a(I3
g3
(g5
S'\x00\x00\x00\x00\x00\x00\x00\x00'
tRp80
F0.098773956298828125
tp81
aa(lp82
(I3
g3
(g5
S'\x92\x18\x04V\x0e\rI@'
tRp83
F0.028973102569580078
tp84
a(I3
g3
(g5
S'`\xbe\x9f\x1a/\xdd\x00@'
tRp85
F0.072946071624755859
tp86
a(I3
g3
(g5
S'\x00\x00\x00\x00\x00\x00\x00\x00'
tRp87
F0.091347932815551758
tp88
aa(lp89
(I3
g3
(g5
S'\xaa\xf1\xd2Mb0J@'
tRp90
F0.029105901718139648
tp91
a(I3
g3
(g5
S'\xaa\xf1\xd2Mb0J@'
tRp92
F0.072161197662353516
tp93
a(I3
g3
(g5
S'\xfa~j\xbcts?@'
tRp94
F0.079023122787475586
tp95
a(I3
g3
(g5
S'\xfa~j\xbcts?@'
tRp96
F0.093829154968261719
tp97
a(I3
g3
(g5
S'\xfa~j\xbcts?@'
tRp98
F0.10160398483276367
tp99
a(I3
g3
(g5
S'\xfa~j\xbcts?@'
tRp100
F4.6385769844055176
tp101
a(I3
g3
(g5
S'\xfa~j\xbcts?@'
tRp102
F0.099828958511352539
tp103
a(I3
g3
(g5
S'\xfa~j\xbcts?@'
tRp104
F0.11210417747497559
tp105
a(I3
g3
(g5
S'\xfa~j\xbcts?@'
tRp106
F0.10320210456848145
tp107
a(I3
g3
(g5
S'\xfa~j\xbcts?@'
tRp108
F0.12446999549865723
tp109
a(I3
g3
(g5
S'\xfa~j\xbcts?@'
tRp110
F5.1660139560699463
tp111
a(I3
g3
(g5
S'\xfa~j\xbcts?@'
tRp112
F0.10176205635070801
tp113
a(I3
g3
(g5
S'\xfa~j\xbcts?@'
tRp114
F0.10869002342224121
tp115
a(I3
g3
(g5
S'\xfa~j\xbcts?@'
tRp116
F0.10873079299926758
tp117
a(I3
g3
(g5
S'\xfa~j\xbcts?@'
tRp118
F0.11291885375976562
tp119
a(I3
g3
(g5
S'\x00\x00\x00\x00\x00\x00\x00\x00'
tRp120
F5.7670741081237793
tp121
aa(lp122
(I3
g3
(g5
S'\xe0O\x8d\x97n\xeaP@'
tRp123
F0.029088020324707031
tp124
a(I3
g3
(g5
S'h;\xdfO\x8d\xf75@'
tRp125
F0.065258979797363281
tp126
a(I3
g3
(g5
S'\x00\x19\x04V\x0e-\xe6?'
tRp127
F0.089398860931396484
tp128
a(I3
g3
(g5
S'p\x12\x83\xc0\xca1G@'
tRp129
F0.084892988204956055
tp130
a(I3
g3
(g5
S'p\x12\x83\xc0\xca1G@'
tRp131
F0.082907915115356445
tp132
a(I3
g3
(g5
S'\x00\x00\x00\x00\x00\x00\x00\x00'
tRp133
F3.9192819595336914
tp134
aa(lp135
(I3
g3
(g5
S'\xb8\xf3\xfd\xd4xi)@'
tRp136
F0.029153108596801758
tp137
a(I3
g3
(g5
S'\xb8\xf3\xfd\xd4xi)@'
tRp138
F0.08078312873840332
tp139
a(I3
g3
(g5
S'\xb8\xf3\xfd\xd4xi)@'
tRp140
F0.082122087478637695
tp141
a(I3
g3
(g5
S'\xa6p=\n\xd7c9@'
tRp142
F0.078721046447753906
tp143
a(I3
g3
(g5
S'\xa6p=\n\xd7c9@'
tRp144
F0.039596796035766602
tp145
a(I3
g3
(g5
S'\x00\x00\x00\x00\x00\x00\x00\x00'
tRp146
F3.5337839126586914
tp147
aa(lp148
(I3
g3
(g5
S'<\xdfO\x8d\x97nH@'
tRp149
F0.029206037521362305
tp150
a(I3
g3
(g5
S'\xc8K7\x89A`.@'
tRp151
F0.069148063659667969
tp152
a(I3
g3
(g5
S'\x00\x00\x00\x00\x00\x00\x00\x00'
tRp153
F0.09118199348449707
tp154
aa(lp155
(I3
g3
(g5
S'/\xdd$\x06\x81uC@'
tRp156
F0.029158830642700195
tp157
a(I3
g3
(g5
S'\x00\x00\x00\x00\x00\x00\x00\x00'
tRp158
F0.073526144027709961
tp159
aa(lp160
(I3
g3
(g5
S'\x80?5^\xba\x899@'
tRp161
F0.029028177261352539
tp162
a(I3
g3
(g5
S'H\xb6\xf3\xfd\xd4\xd83@'
tRp163
F0.076581954956054688
tp164
a(I3
g3
(g5
S'H\xb6\xf3\xfd\xd4\xd83@'
tRp165
F0.083945035934448242
tp166
a(I3
g3
(g5
S'Y9\xb4\xc8v\xfeL@'
tRp167
F0.081699132919311523
tp168
a(I3
g3
(g5
S'Y9\xb4\xc8v\xfeL@'
tRp169
F0.046274900436401367
tp170
a(I3
g3
(g5
S'\x00\x00\x00\x00\x00\x00\x00\x00'
tRp171
F5.6542448997497559
tp172
aa(lp173
(I3
g3
(g5
S'\xe8&1\x08\xac\xdc;@'
tRp174
F0.029417991638183594
tp175
a(I3
g3
(g5
S'\xe8&1\x08\xac\xdc;@'
tRp176
F0.086246967315673828
tp177
a(I3
g3
(g5
S'\x00\x00\x00\x00\x00\x00\x00\x00'
tRp178
F0.1031649112701416
tp179
aa(lp180
(I3
g3
(g5
S'\x00\x00\x00\x00\x00\x00\x00\x00'
tRp181
F0.029474973678588867
tp182
aa(lp183
(I3
g3
(g5
S'\xf0\xa7\xc6K7\tC@'
tRp184
F0.029494047164916992
tp185
a(I3
g3
(g5
S'\xd0\xf7S\xe3\xa5\x9b*@'
tRp186
F0.080734014511108398
tp187
a(I3
g3
(g5
S'\x84\xc0\xca\xa1E\xe6F@'
tRp188
F0.10126996040344238
tp189
a(I3
g3
(g5
S'\x84\xc0\xca\xa1E\xe6F@'
tRp190
F0.032827138900756836
tp191
a(I3
g3
(g5
S'\x84\xc0\xca\xa1E\xe6F@'
tRp192
F0.034964084625244141
tp193
a(I3
g3
(g5
S'\x84\xc0\xca\xa1E\xe6F@'
tRp194
F3.7626240253448486
tp195
a(I3
g3
(g5
S'\x84\xc0\xca\xa1E\xe6F@'
tRp196
F0.039361953735351562
tp197
a(I3
g3
(g5
S'\x84\xc0\xca\xa1E\xe6F@'
tRp198
F0.039008855819702148
tp199
a(I3
g3
(g5
S'\x84\xc0\xca\xa1E\xe6F@'
tRp200
F0.040855169296264648
tp201
a(I3
g3
(g5
S'\x84\xc0\xca\xa1E\xe6F@'
tRp202
F0.042080163955688477
tp203
a(I3
g3
(g5
S'\x00\x00\x00\x00\x00\x00\x00\x00'
tRp204
F4.6943941116333008
tp205
aa(lp206
(I3
g3
(g5
S'\x00\x00\x00\x00\x00\x00\x00\x00'
tRp207
F0.029416084289550781
tp208
aa.