(lp1
(lp2
(I6
cnumpy.core.multiarray
scalar
p3
(cnumpy
dtype
p4
(S'f8'
I0
I1
tRp5
(I3
S'<'
NNNI-1
I-1
I0
tbS'H7\x89A`e\x11@'
tRp6
F0.047913074493408203
tp7
a(I6
g3
(g5
S'\x00\x00\x00\x00\x00\x00\x00\x00'
tRp8
F0.15499997138977051
tp9
aa(lp10
(I6
g3
(g5
S'\x18\x04V\x0e-BW@'
tRp11
F0.047413825988769531
tp12
a(I6
g3
(g5
S'\x00\x00\x00\x00\x00\x00\x00\x00'
tRp13
F0.16324496269226074
tp14
aa(lp15
(I6
g3
(g5
S'>\n\xd7\xa3p\x1dN@'
tRp16
F0.047435998916625977
tp17
a(I6
g3
(g5
S'\x00\x00\x00\x00\x00\x00\x00\x00'
tRp18
F0.17051911354064941
tp19
aa(lp20
(I6
g3
(g5
S'p\x12\x83\xc0\xcaa!@'
tRp21
F0.047981977462768555
tp22
a(I6
g3
(g5
S'\x00\x00\x00\x00\x00\x00\x00\x00'
tRp23
F0.12070703506469727
tp24
aa(lp25
(I6
g3
(g5
S'<\xdfO\x8d\x97\xee8@'
tRp26
F0.047562122344970703
tp27
a(I6
g3
(g5
S'5^\xbaI\x0c\xc2D@'
tRp28
F0.12720513343811035
tp29
a(I6
g3
(g5
S'<\xdfO\x8d\x97\xee8@'
tRp30
F0.30930495262145996
tp31
a(I6
g3
(g5
S'ffffff6@'
tRp32
F0.17034196853637695
tp33
a(I6
g3
(g5
S'ffffff6@'
tRp34
F0.2043919563293457
tp35
a(I6
g3
(g5
S'\x00\x00\x00\x00\x00\x00\x00\x00'
tRp36
F29.328642129898071
tp37
aa(lp38
(I6
g3
(g5
S'\x06\x81\x95C\x8b\xbcB@'
tRp39
F0.047630071640014648
tp40
a(I6
g3
(g5
S'\xa6\x9b\xc4 \xb0r2@'
tRp41
F0.072574853897094727
tp42
a(I6
g3
(g5
S'\xa8\xc6K7\x89\xe1C@'
tRp43
F0.1383669376373291
tp44
a(I6
g3
(g5
S'\xa8\xc6K7\x89\xe1C@'
tRp45
F0.24793100357055664
tp46
a(I6
g3
(g5
S'\xa8\xc6K7\x89\xe1C@'
tRp47
F0.20786595344543457
tp48
a(I6
g3
(g5
S'\x00\x00\x00\x00\x00\x00\x00\x00'
tRp49
F6.1568481922149658
tp50
aa(lp51
(I6
g3
(g5
S'*\x87\x16\xd9\xceWF@'
tRp52
F0.047811985015869141
tp53
a(I6
g3
(g5
S'\xbaI\x0c\x02+\xa7D@'
tRp54
F0.12408900260925293
tp55
a(I6
g3
(g5
S'\xbaI\x0c\x02+\xa7D@'
tRp56
F0.14272403717041016
tp57
a(I6
g3
(g5
S'\xbaI\x0c\x02+\xa7D@'
tRp58
F0.17353415489196777
tp59
a(I6
g3
(g5
S'\xbaI\x0c\x02+\xa7D@'
tRp60
F0.062496185302734375
tp61
a(I6
g3
(g5
S' \xb0rh\x91M3@'
tRp62
F4.6289148330688477
tp63
a(I6
g3
(g5
S' \xb0rh\x91M3@'
tRp64
F0.14999794960021973
tp65
a(I6
g3
(g5
S' \xb0rh\x91M3@'
tRp66
F0.13946104049682617
tp67
a(I6
g3
(g5
S' \xb0rh\x91M3@'
tRp68
F0.14715313911437988
tp69
a(I6
g3
(g5
S' \xb0rh\x91M3@'
tRp70
F0.14925599098205566
tp71
a(I6
g3
(g5
S' \xb0rh\x91M3@'
tRp72
F4.9726121425628662
tp73
a(I6
g3
(g5
S' \xb0rh\x91M3@'
tRp74
F0.18404316902160645
tp75
a(I6
g3
(g5
S' \xb0rh\x91M3@'
tRp76
F0.22086191177368164
tp77
a(I6
g3
(g5
S' \xb0rh\x91M3@'
tRp78
F0.19098997116088867
tp79
a(I6
g3
(g5
S' \xb0rh\x91M3@'
tRp80
F0.18251514434814453
tp81
a(I6
g3
(g5
S' \xb0rh\x91M3@'
tRp82
F6.1367998123168945
tp83
a(I6
g3
(g5
S' \xb0rh\x91M3@'
tRp84
F0.19432401657104492
tp85
aa(lp86
(I6
g3
(g5
S'`\xbaI\x0c\x02+\x1c@'
tRp87
F0.04729914665222168
tp88
a(I6
g3
(g5
S'\x00\x00\x00\x00\x00\x00\x00\x00'
tRp89
F0.12899398803710938
tp90
aa(lp91
(I6
g3
(g5
S'\xfd\xd4x\xe9&QB@'
tRp92
F0.047311782836914062
tp93
a(I6
g3
(g5
S'\x00\x00\x00\x00\x00\x00\x00\x00'
tRp94
F0.17319011688232422
tp95
aa(lp96
(I6
g3
(g5
S'^\xbaI\x0c\x02\xdbF@'
tRp97
F0.047336101531982422
tp98
a(I6
g3
(g5
S'\xec|?5^\xfa6@'
tRp99
F0.072227001190185547
tp100
a(I6
g3
(g5
S'\xcc\xf7S\xe3\xa5\xbb6@'
tRp101
F0.21615195274353027
tp102
a(I6
g3
(g5
S'\xcc\xf7S\xe3\xa5\xbb6@'
tRp103
F0.076522111892700195
tp104
a(I6
g3
(g5
S'\xcc\xf7S\xe3\xa5\xbb6@'
tRp105
F0.1630101203918457
tp106
a(I6
g3
(g5
S'\xcc\xf7S\xe3\xa5\xbb6@'
tRp107
F4.851172924041748
tp108
a(I6
g3
(g5
S'\xcc\xf7S\xe3\xa5\xbb6@'
tRp109
F0.06966400146484375
tp110
a(I6
g3
(g5
S'\xcc\xf7S\xe3\xa5\xbb6@'
tRp111
F0.07408595085144043
tp112
a(I6
g3
(g5
S'\xcc\xf7S\xe3\xa5\xbb6@'
tRp113
F0.07816314697265625
tp114
a(I6
g3
(g5
S'\xcc\xf7S\xe3\xa5\xbb6@'
tRp115
F0.082382917404174805
tp116
a(I6
g3
(g5
S'^\xbaI\x0c\x02\xdbF@'
tRp117
F5.030242919921875
tp118
a(I6
g3
(g5
S'^\xbaI\x0c\x02\xdbF@'
tRp119
F0.2506101131439209
tp120
a(I6
g3
(g5
S'^\xbaI\x0c\x02\xdbF@'
tRp121
F0.11476802825927734
tp122
a(I6
g3
(g5
S'^\xbaI\x0c\x02\xdbF@'
tRp123
F0.11843085289001465
tp124
a(I6
g3
(g5
S'^\xbaI\x0c\x02\xdbF@'
tRp125
F0.12291193008422852
tp126
a(I6
g3
(g5
S'^\xbaI\x0c\x02\xdbF@'
tRp127
F6.1723101139068604
tp128
a(I6
g3
(g5
S'^\xbaI\x0c\x02\xdbF@'
tRp129
F0.1805880069732666
tp130
aa(lp131
(I6
g3
(g5
S'\n\xd7\xa3p=JC@'
tRp132
F0.048666954040527344
tp133
a(I6
g3
(g5
S'\x00\x00\x00\x00\x00\x00\x00\x00'
tRp134
F0.11784505844116211
tp135
aa(lp136
(I6
g3
(g5
S'\x00\x19\x04V\x0e-\xe6?'
tRp137
F0.04743194580078125
tp138
a(I6
g3
(g5
S'p\x12\x83\xc0\xca1G@'
tRp139
F0.11782503128051758
tp140
a(I6
g3
(g5
S'p\x12\x83\xc0\xca1G@'
tRp141
F0.20111894607543945
tp142
a(I6
g3
(g5
S'p\x12\x83\xc0\xca1G@'
tRp143
F0.20825719833374023
tp144
a(I6
g3
(g5
S'p\x12\x83\xc0\xca1G@'
tRp145
F0.062677145004272461
tp146
a(I6
g3
(g5
S'\x00\x19\x04V\x0e-\xe6?'
tRp147
F6.8865189552307129
tp148
a(I6
g3
(g5
S'\x00\x00\x00\x00\x00\x00\x00\x00'
tRp149
F1.3661720752716064
tp150
aa(lp151
(I6
g3
(g5
S'\x98\xed|?5^)@'
tRp152
F0.047770977020263672
tp153
a(I6
g3
(g5
S'\xb8\xf3\xfd\xd4xi)@'
tRp154
F0.071300983428955078
tp155
a(I6
g3
(g5
S'\xa6p=\n\xd7c9@'
tRp156
F0.2843329906463623
tp157
a(I6
g3
(g5
S'\xa6p=\n\xd7c9@'
tRp158
F0.12353897094726562
tp159
a(I6
g3
(g5
S'\xa6p=\n\xd7c9@'
tRp160
F0.20303511619567871
tp161
a(I6
g3
(g5
S'\x00\x00\x00\x00\x00\x00\x00\x00'
tRp162
F9.291269063949585
tp163
aa(lp164
(I6
g3
(g5
S'\x1b/\xdd$\x06\xf9Q@'
tRp165
F0.047654151916503906
tp166
a(I6
g3
(g5
S'\xc8K7\x89A`.@'
tRp167
F0.1518700122833252
tp168
a(I6
g3
(g5
S'\x94\x18\x04V\x0e\xc5U@'
tRp169
F0.16414499282836914
tp170
a(I6
g3
(g5
S'\x94\x18\x04V\x0e\xc5U@'
tRp171
F0.15427112579345703
tp172
a(I6
g3
(g5
S'\x94\x18\x04V\x0e\xc5U@'
tRp173
F0.062679052352905273
tp174
a(I6
g3
(g5
S'\x00\x00\x00\x00\x00\x00\x00\x00'
tRp175
F3.8943870067596436
tp176
aa(lp177
(I6
g3
(g5
S'F\xb6\xf3\xfd\xd4\xc8N@'
tRp178
F0.047230958938598633
tp179
a(I6
g3
(g5
S'<\n\xd7\xa3p\xbd2@'
tRp180
F0.14473700523376465
tp181
a(I6
g3
(g5
S'\xf4\xfd\xd4x\xe9\x86H@'
tRp182
F0.21140503883361816
tp183
a(I6
g3
(g5
S'\xf4\xfd\xd4x\xe9\x86H@'
tRp184
F0.058604955673217773
tp185
a(I6
g3
(g5
S'\xf4\xfd\xd4x\xe9\x86H@'
tRp186
F0.063280820846557617
tp187
a(I6
g3
(g5
S'\x00\x00\x00\x00\x00\x00\x00\x00'
tRp188
F3.7143399715423584
tp189
aa(lp190
(I6
g3
(g5
S'\x97C\x8bl\xe7KF@'
tRp191
F0.047235965728759766
tp192
a(I6
g3
(g5
S'\xe8\xd0"\xdb\xf9\xbe8@'
tRp193
F0.15662813186645508
tp194
a(I6
g3
(g5
S'Y9\xb4\xc8v\xfeL@'
tRp195
F0.15600800514221191
tp196
a(I6
g3
(g5
S'Y9\xb4\xc8v\xfeL@'
tRp197
F0.20491981506347656
tp198
a(I6
g3
(g5
S'Y9\xb4\xc8v\xfeL@'
tRp199
F0.18056011199951172
tp200
a(I6
g3
(g5
S'\x00\x00\x00\x00\x00\x00\x00\x00'
tRp201
F10.697962999343872
tp202
aa(lp203
(I6
g3
(g5
S'\x10\x83\xc0\xca\xa1\xc5,@'
tRp204
F0.047985076904296875
tp205
a(I6
g3
(g5
S'\x8al\xe7\xfb\xa9\x919@'
tRp206
F0.13706398010253906
tp207
a(I6
g3
(g5
S'\x95C\x8bl\xe73U@'
tRp208
F0.1411290168762207
tp209
a(I6
g3
(g5
S'\x95C\x8bl\xe73U@'
tRp210
F0.14961791038513184
tp211
a(I6
g3
(g5
S'\x95C\x8bl\xe73U@'
tRp212
F0.14940595626831055
tp213
a(I6
g3
(g5
S'\x8al\xe7\xfb\xa9\x919@'
tRp214
F4.2324490547180176
tp215
a(I6
g3
(g5
S'\x00\x00\x00\x00\x00\x00\x00\x00'
tRp216
F0.081086158752441406
tp217
aa(lp218
(I6
g3
(g5
S'\xe8\xfb\xa9\xf1\xd2\xcd/@'
tRp219
F0.047590970993041992
tp220
a(I6
g3
(g5
S'\xe8\xfb\xa9\xf1\xd2\xcd/@'
tRp221
F0.17683887481689453
tp222
a(I6
g3
(g5
S'\x00\x00\x00\x00\x00\x00\x00\x00'
tRp223
F0.27798104286193848
tp224
aa(lp225
(I6
g3
(g5
S'\x84\xc0\xca\xa1E\xe6F@'
tRp226
F0.047411918640136719
tp227
a(I6
g3
(g5
S'\x84\xc0\xca\xa1E\xe6F@'
tRp228
F0.13416290283203125
tp229
a(I6
g3
(g5
S'\x84\xc0\xca\xa1E\xe6F@'
tRp230
F0.15261006355285645
tp231
a(I6
g3
(g5
S'\x84\xc0\xca\xa1E\xe6F@'
tRp232
F0.060479879379272461
tp233
a(I6
g3
(g5
S'\x84\xc0\xca\xa1E\xe6F@'
tRp234
F0.063348054885864258
tp235
a(I6
g3
(g5
S'\x00\x00\x00\x00\x00\x00\x00\x00'
tRp236
F6.1572418212890625
tp237
aa(lp238
(I6
g3
(g5
S'\xd4Mb\x10X\xa9J@'
tRp239
F0.047507047653198242
tp240
a(I6
g3
(g5
S'\x00\x00\x00\x00\x00\x00\x17@'
tRp241
F0.13295793533325195
tp242
a(I6
g3
(g5
S'\x00\x00\x00\x00\x00\x00\x17@'
tRp243
F0.16033101081848145
tp244
a(I6
g3
(g5
S'\x00\x00\x00\x00\x00\x00\x17@'
tRp245
F0.17552995681762695
tp246
a(I6
g3
(g5
S'\x00\x00\x00\x00\x00\x00\x17@'
tRp247
F0.17439007759094238
tp248
a(I6
g3
(g5
S'\x00\x00\x00\x00\x00\x00\x00\x00'
tRp249
F5.0092029571533203
tp250
aa.