(lp1
(lp2
(I1
cnumpy.core.multiarray
scalar
p3
(cnumpy
dtype
p4
(S'f8'
I0
I1
tRp5
(I3
S'<'
NNNI-1
I-1
I0
tbS'\xdfO\x8d\x97nr9@'
tRp6
F0.019121170043945312
tp7
a(I1
g3
(g5
S'\x84\xc0\xca\xa1E\xb6-@'
tRp8
F0.050604104995727539
tp9
a(I1
g3
(g5
S'\xe0z\x14\xaeG\xe1-@'
tRp10
F0.044654130935668945
tp11
a(I1
g3
(g5
S'\xe0z\x14\xaeG\xe1-@'
tRp12
F0.045681953430175781
tp13
a(I1
g3
(g5
S'H7\x89A`e\x11@'
tRp14
F0.020555019378662109
tp15
a(I1
g3
(g5
S'H7\x89A`e\x11@'
tRp16
F3.1256890296936035
tp17
a(I1
g3
(g5
S'H7\x89A`e\x11@'
tRp18
F0.052284955978393555
tp19
a(I1
g3
(g5
S'\x84\xc0\xca\xa1E\xb6-@'
tRp20
F0.066092014312744141
tp21
a(I1
g3
(g5
S'\x84\xc0\xca\xa1E\xb6-@'
tRp22
F0.096351861953735352
tp23
a(I1
g3
(g5
S'\xdfO\x8d\x97nr9@'
tRp24
F0.14506697654724121
tp25
a(I1
g3
(g5
S'<\xdfO\x8d\x97.%@'
tRp26
F4.592583179473877
tp27
a(I1
g3
(g5
S'<\xdfO\x8d\x97.%@'
tRp28
F0.061767816543579102
tp29
a(I1
g3
(g5
S'<\xdfO\x8d\x97.%@'
tRp30
F0.055444002151489258
tp31
a(I1
g3
(g5
S'<\xdfO\x8d\x97.%@'
tRp32
F0.053842067718505859
tp33
a(I1
g3
(g5
S'<\xdfO\x8d\x97.%@'
tRp34
F0.050227880477905273
tp35
a(I1
g3
(g5
S'<\xdfO\x8d\x97.%@'
tRp36
F5.2583408355712891
tp37
a(I1
g3
(g5
S'<\xdfO\x8d\x97.%@'
tRp38
F0.050848960876464844
tp39
a(I1
g3
(g5
S'<\xdfO\x8d\x97.%@'
tRp40
F0.044413089752197266
tp41
a(I1
g3
(g5
S'<\xdfO\x8d\x97.%@'
tRp42
F0.049726963043212891
tp43
a(I1
g3
(g5
S'<\xdfO\x8d\x97.%@'
tRp44
F0.055444002151489258
tp45
a(I1
g3
(g5
S'<\xdfO\x8d\x97.%@'
tRp46
F5.2660591602325439
tp47
a(I1
g3
(g5
S'<\xdfO\x8d\x97.%@'
tRp48
F0.05551910400390625
tp49
a(I1
g3
(g5
S'<\xdfO\x8d\x97.%@'
tRp50
F0.044810771942138672
tp51
a(I1
g3
(g5
S'<\xdfO\x8d\x97.%@'
tRp52
F0.046625852584838867
tp53
a(I1
g3
(g5
S'<\xdfO\x8d\x97.%@'
tRp54
F0.052008152008056641
tp55
a(I1
g3
(g5
S'<\xdfO\x8d\x97.%@'
tRp56
F5.3550159931182861
tp57
a(I1
g3
(g5
S'<\xdfO\x8d\x97.%@'
tRp58
F0.075271129608154297
tp59
a(I1
g3
(g5
S'<\xdfO\x8d\x97.%@'
tRp60
F0.15864109992980957
tp61
a(I1
g3
(g5
S'<\xdfO\x8d\x97.%@'
tRp62
F0.055088996887207031
tp63
a(I1
g3
(g5
S'<\xdfO\x8d\x97.%@'
tRp64
F0.068620920181274414
tp65
a(I1
g3
(g5
S'<\xdfO\x8d\x97.%@'
tRp66
F5.7504119873046875
tp67
a(I1
g3
(g5
S'<\xdfO\x8d\x97.%@'
tRp68
F0.028889894485473633
tp69
a(I1
g3
(g5
S'<\xdfO\x8d\x97.%@'
tRp70
F0.029085874557495117
tp71
a(I1
g3
(g5
S'<\xdfO\x8d\x97.%@'
tRp72
F0.029501199722290039
tp73
a(I1
g3
(g5
S'<\xdfO\x8d\x97.%@'
tRp74
F0.029690027236938477
tp75
a(I1
g3
(g5
S'<\xdfO\x8d\x97.%@'
tRp76
F5.8637790679931641
tp77
a(I1
g3
(g5
S'\x00\x00\x00\x00\x00\x00\x00\x00'
tRp78
F0.074986934661865234
tp79
aa(lp80
(I1
g3
(g5
S'Zd;\xdfO\x8dL@'
tRp81
F0.018808126449584961
tp82
a(I1
g3
(g5
S'8\x89A`\xe5\x18T@'
tRp83
F0.049333095550537109
tp84
a(I1
g3
(g5
S'\xe0O\x8d\x97n\x82G@'
tRp85
F0.042109012603759766
tp86
a(I1
g3
(g5
S'(\\\x8f\xc2\xf5H7@'
tRp87
F0.05557703971862793
tp88
a(I1
g3
(g5
S'(\\\x8f\xc2\xf5H7@'
tRp89
F0.069561004638671875
tp90
a(I1
g3
(g5
S'(\\\x8f\xc2\xf5H7@'
tRp91
F3.31986403465271
tp92
a(I1
g3
(g5
S'(\\\x8f\xc2\xf5H7@'
tRp93
F0.096719980239868164
tp94
a(I1
g3
(g5
S'\x00\x00\x00\x00\x00\x00\x00\x00'
tRp95
F0.092363119125366211
tp96
aa(lp97
(I1
g3
(g5
S'\xc5 \xb0rh\x11D@'
tRp98
F0.018684148788452148
tp99
a(I1
g3
(g5
S'x\xe9&1\x08\x8c5@'
tRp100
F0.048366069793701172
tp101
a(I1
g3
(g5
S'x\xe9&1\x08\x8c5@'
tRp102
F0.022341012954711914
tp103
a(I1
g3
(g5
S'x\xe9&1\x08\x8c5@'
tRp104
F0.044511079788208008
tp105
a(I1
g3
(g5
S'\x00\x00\x00\x00\x00\x00\x00\x00'
tRp106
F0.021328926086425781
tp107
aa(lp108
(I1
g3
(g5
S'\x96C\x8bl\xe7\xabC@'
tRp109
F0.018567085266113281
tp110
a(I1
g3
(g5
S'\x00\x00\x00\x00\x00\x00\x00\x00'
tRp111
F0.050268888473510742
tp112
aa(lp113
(I1
g3
(g5
S'Zd;\xdfOM?@'
tRp114
F0.018743991851806641
tp115
a(I1
g3
(g5
S'ffffff6@'
tRp116
F0.05160212516784668
tp117
a(I1
g3
(g5
S'ffffff6@'
tRp118
F0.022256135940551758
tp119
a(I1
g3
(g5
S'ffffff6@'
tRp120
F0.032746791839599609
tp121
a(I1
g3
(g5
S'ffffff6@'
tRp122
F0.020570039749145508
tp123
a(I1
g3
(g5
S'\x00\x00\x00\x00\x00\x00\x00\x00'
tRp124
F2.9937500953674316
tp125
aa(lp126
(I1
g3
(g5
S'\x06\x81\x95C\x8b\x1cC@'
tRp127
F0.018630027770996094
tp128
a(I1
g3
(g5
S'fffff\x063@'
tRp129
F0.039865970611572266
tp130
a(I1
g3
(g5
S'fffff\x063@'
tRp131
F0.021683931350708008
tp132
a(I1
g3
(g5
S'fffff\x063@'
tRp133
F0.044981956481933594
tp134
a(I1
g3
(g5
S' \xb0rh\x91\xed\x00@'
tRp135
F0.037076950073242188
tp136
a(I1
g3
(g5
S'fffff\x063@'
tRp137
F3.2028779983520508
tp138
a(I1
g3
(g5
S' \xb0rh\x91\xed\x00@'
tRp139
F0.058081865310668945
tp140
a(I1
g3
(g5
S' \xb0rh\x91\xed\x00@'
tRp141
F0.089840173721313477
tp142
a(I1
g3
(g5
S' \xb0rh\x91\xed\x00@'
tRp143
F0.11980700492858887
tp144
a(I1
g3
(g5
S' \xb0rh\x91\xed\x00@'
tRp145
F0.17913293838500977
tp146
a(I1
g3
(g5
S' \xb0rh\x91\xed\x00@'
tRp147
F4.3552060127258301
tp148
a(I1
g3
(g5
S' \xb0rh\x91\xed\x00@'
tRp149
F0.084655046463012695
tp150
a(I1
g3
(g5
S' \xb0rh\x91\xed\x00@'
tRp151
F0.077779054641723633
tp152
a(I1
g3
(g5
S' \xb0rh\x91\xed\x00@'
tRp153
F0.085169076919555664
tp154
a(I1
g3
(g5
S' \xb0rh\x91\xed\x00@'
tRp155
F0.071241855621337891
tp156
a(I1
g3
(g5
S'\x00\x00\x00\x00\x00\x00\x00\x00'
tRp157
F5.1621038913726807
tp158
aa(lp159
(I1
g3
(g5
S'\x00\x00\x00\x00\x00\x00\x00\x00'
tRp160
F0.018877983093261719
tp161
aa(lp162
(I1
g3
(g5
S'\xe9&1\x08\xac\\7@'
tRp163
F0.018588781356811523
tp164
a(I1
g3
(g5
S'\xf4\xfd\xd4x\xe9f%@'
tRp165
F0.04174494743347168
tp166
a(I1
g3
(g5
S'\x00\x00\x00\x00\x00\x00\x00\x00'
tRp167
F0.044624090194702148
tp168
aa(lp169
(I1
g3
(g5
S'z\x14\xaeG\xe1:L@'
tRp170
F0.018597126007080078
tp171
a(I1
g3
(g5
S'\x8e\xc2\xf5(\\\xafA@'
tRp172
F0.051160812377929688
tp173
a(I1
g3
(g5
S'\\\xbaI\x0c\x02\x8b;@'
tRp174
F0.022255182266235352
tp175
a(I1
g3
(g5
S'\\\xbaI\x0c\x02\x8b;@'
tRp176
F0.033428192138671875
tp177
a(I1
g3
(g5
S'\x00\x00\x00\x00\x00\x00\x00\x00'
tRp178
F0.020442008972167969
tp179
aa(lp180
(I1
g3
(g5
S'E\xb6\xf3\xfd\xd4\xe8G@'
tRp181
F0.018803119659423828
tp182
a(I1
g3
(g5
S'\x9c\xef\xa7\xc6K\xd78@'
tRp183
F0.046033859252929688
tp184
a(I1
g3
(g5
S'`\xbe\x9f\x1a/\xdd\x00@'
tRp185
F0.021620035171508789
tp186
a(I1
g3
(g5
S'\x9c\xef\xa7\xc6K\xd78@'
tRp187
F0.049936056137084961
tp188
a(I1
g3
(g5
S'`\xbe\x9f\x1a/\xdd\x00@'
tRp189
F0.020428180694580078
tp190
a(I1
g3
(g5
S'\x00\x00\x00\x00\x00\x00\x00\x00'
tRp191
F2.9585380554199219
tp192
aa(lp193
(I1
g3
(g5
S'\xfa~j\xbcts?@'
tRp194
F0.018651008605957031
tp195
a(I1
g3
(g5
S'\xfa~j\xbcts?@'
tRp196
F0.044296979904174805
tp197
a(I1
g3
(g5
S'\x00\x00\x00\x00\x00\x00\x00\x00'
tRp198
F0.042361021041870117
tp199
aa(lp200
(I1
g3
(g5
S'43333\x83C@'
tRp201
F0.018605947494506836
tp202
a(I1
g3
(g5
S'43333\x83C@'
tRp203
F0.043436050415039062
tp204
a(I1
g3
(g5
S'\xc8K7\x89A\xc01@'
tRp205
F0.037848949432373047
tp206
a(I1
g3
(g5
S'\xc8K7\x89A\xc01@'
tRp207
F0.050625085830688477
tp208
a(I1
g3
(g5
S'\xc8K7\x89A\xc01@'
tRp209
F0.056065797805786133
tp210
a(I1
g3
(g5
S'\xc8K7\x89A\xc01@'
tRp211
F2.9131770133972168
tp212
a(I1
g3
(g5
S'\xc8K7\x89A\xc01@'
tRp213
F0.021697998046875
tp214
a(I1
g3
(g5
S'\xc8K7\x89A\xc01@'
tRp215
F0.05455780029296875
tp216
a(I1
g3
(g5
S'\x8el\xe7\xfb\xa9q2@'
tRp217
F0.060423851013183594
tp218
a(I1
g3
(g5
S'\x8el\xe7\xfb\xa9q2@'
tRp219
F0.025666952133178711
tp220
a(I1
g3
(g5
S'\xc8K7\x89A\xc01@'
tRp221
F3.554934024810791
tp222
a(I1
g3
(g5
S'\xc8K7\x89A\xc01@'
tRp223
F0.034884929656982422
tp224
a(I1
g3
(g5
S'\xc8K7\x89A\xc01@'
tRp225
F0.041080951690673828
tp226
a(I1
g3
(g5
S'\xc8K7\x89A\xc01@'
tRp227
F0.041805028915405273
tp228
a(I1
g3
(g5
S'\xc8K7\x89A\xc01@'
tRp229
F0.042126893997192383
tp230
a(I1
g3
(g5
S'\xc8K7\x89A\xc01@'
tRp231
F3.9819080829620361
tp232
a(I1
g3
(g5
S'\xc8K7\x89A\xc01@'
tRp233
F0.044732093811035156
tp234
a(I1
g3
(g5
S'\xc8K7\x89A\xc01@'
tRp235
F0.052114009857177734
tp236
a(I1
g3
(g5
S'\xc8K7\x89A\xc01@'
tRp237
F0.047255992889404297
tp238
a(I1
g3
(g5
S'\xc8K7\x89A\xc01@'
tRp239
F0.056888103485107422
tp240
a(I1
g3
(g5
S'\xc8K7\x89A\xc01@'
tRp241
F4.1273970603942871
tp242
a(I1
g3
(g5
S'\xc8K7\x89A\xc01@'
tRp243
F0.047120094299316406
tp244
a(I1
g3
(g5
S'\xc8K7\x89A\xc01@'
tRp245
F0.0559539794921875
tp246
a(I1
g3
(g5
S'\xc8K7\x89A\xc01@'
tRp247
F0.054011106491088867
tp248
a(I1
g3
(g5
S'\xc8K7\x89A\xc01@'
tRp249
F0.051741123199462891
tp250
a(I1
g3
(g5
S'\x00\x00\x00\x00\x00\x00\x00\x00'
tRp251
F4.5730440616607666
tp252
aa(lp253
(I1
g3
(g5
S'\x94\x18\x04V\x0e\xa5Q@'
tRp254
F0.018648862838745117
tp255
a(I1
g3
(g5
S'\x12X9\xb4\xc8VC@'
tRp256
F0.052878856658935547
tp257
a(I1
g3
(g5
S'H\xb6\xf3\xfd\xd4\xf89@'
tRp258
F0.022211074829101562
tp259
a(I1
g3
(g5
S'H\xb6\xf3\xfd\xd4\xf89@'
tRp260
F0.036187887191772461
tp261
a(I1
g3
(g5
S'H\xb6\xf3\xfd\xd4\xf89@'
tRp262
F0.021834850311279297
tp263
a(I1
g3
(g5
S'\x98\xed|?5^)@'
tRp264
F2.9116499423980713
tp265
a(I1
g3
(g5
S'\x98\xed|?5^)@'
tRp266
F0.049955844879150391
tp267
a(I1
g3
(g5
S'H\xb6\xf3\xfd\xd4\xf89@'
tRp268
F0.060601949691772461
tp269
a(I1
g3
(g5
S'\x98\xed|?5^)@'
tRp270
F0.057660102844238281
tp271
a(I1
g3
(g5
S'\x98\xed|?5^)@'
tRp272
F0.066642045974731445
tp273
a(I1
g3
(g5
S'\x98\xed|?5^)@'
tRp274
F3.7814109325408936
tp275
a(I1
g3
(g5
S'\x00\x00\x00\x00\x00\x00\x00\x00'
tRp276
F0.056427001953125
tp277
aa(lp278
(I1
g3
(g5
S'\xda\xce\xf7S\xe3EM@'
tRp279
F0.018596887588500977
tp280
a(I1
g3
(g5
S'\xe8\xfb\xa9\xf1\xd2\xadE@'
tRp281
F0.041983127593994141
tp282
a(I1
g3
(g5
S'\xe8\xfb\xa9\xf1\xd2\xadE@'
tRp283
F0.021619796752929688
tp284
a(I1
g3
(g5
S'\xe8\xfb\xa9\xf1\xd2\xadE@'
tRp285
F0.045271873474121094
tp286
a(I1
g3
(g5
S'\xe8\xfb\xa9\xf1\xd2\xadE@'
tRp287
F0.03709101676940918
tp288
a(I1
g3
(g5
S'\xe0O\x8d\x97n\x92\x14@'
tRp289
F3.2144508361816406
tp290
a(I1
g3
(g5
S'\xe0O\x8d\x97n\x92\x14@'
tRp291
F0.058943986892700195
tp292
a(I1
g3
(g5
S'\xe0O\x8d\x97n\x92\x14@'
tRp293
F0.074018001556396484
tp294
a(I1
g3
(g5
S'\x00\x00\x00\x00\x00\x00\x00\x00'
tRp295
F0.10610079765319824
tp296
aa(lp297
(I1
g3
(g5
S'\xf4\xfd\xd4x\xe9\x86H@'
tRp298
F0.018790006637573242
tp299
a(I1
g3
(g5
S'<\n\xd7\xa3p\xbd2@'
tRp300
F0.04669499397277832
tp301
a(I1
g3
(g5
S'<\n\xd7\xa3p\xbd2@'
tRp302
F0.036430835723876953
tp303
a(I1
g3
(g5
S'\x00\x00\x00\x00\x00\x00\x00\x00'
tRp304
F0.052559852600097656
tp305
aa(lp306
(I1
g3
(g5
S'\xe8\xd0"\xdb\xf9\xbe8@'
tRp307
F0.01868891716003418
tp308
a(I1
g3
(g5
S' Zd;\xdfo>@'
tRp309
F0.047278881072998047
tp310
a(I1
g3
(g5
S' Zd;\xdfo>@'
tRp311
F0.03690791130065918
tp312
a(I1
g3
(g5
S' Zd;\xdfo>@'
tRp313
F0.04042816162109375
tp314
a(I1
g3
(g5
S' Zd;\xdfo>@'
tRp315
F0.033098936080932617
tp316
a(I1
g3
(g5
S' Zd;\xdfo>@'
tRp317
F2.9724099636077881
tp318
a(I1
g3
(g5
S' Zd;\xdfo>@'
tRp319
F0.054593086242675781
tp320
a(I1
g3
(g5
S' Zd;\xdfo>@'
tRp321
F0.023238897323608398
tp322
a(I1
g3
(g5
S' Zd;\xdfo>@'
tRp323
F0.021856069564819336
tp324
a(I1
g3
(g5
S'\x00\x00\x00\x00\x00\x00\x00\x00'
tRp325
F0.09303593635559082
tp326
aa(lp327
(I1
g3
(g5
S'\n\xd7\xa3p=\xfaC@'
tRp328
F0.018683910369873047
tp329
a(I1
g3
(g5
S'\x8al\xe7\xfb\xa9\x919@'
tRp330
F0.042264223098754883
tp331
a(I1
g3
(g5
S'\xbaI\x0c\x02+\xb7J@'
tRp332
F0.039252996444702148
tp333
a(I1
g3
(g5
S'\xbaI\x0c\x02+\xb7J@'
tRp334
F0.044437885284423828
tp335
a(I1
g3
(g5
S'\xbaI\x0c\x02+\xb7J@'
tRp336
F0.033141851425170898
tp337
a(I1
g3
(g5
S'\x8al\xe7\xfb\xa9\x919@'
tRp338
F2.9728248119354248
tp339
a(I1
g3
(g5
S'\x8al\xe7\xfb\xa9\x919@'
tRp340
F0.021029949188232422
tp341
a(I1
g3
(g5
S'\x8al\xe7\xfb\xa9\x919@'
tRp342
F0.035167932510375977
tp343
a(I1
g3
(g5
S'\x8al\xe7\xfb\xa9\x919@'
tRp344
F0.10912394523620605
tp345
a(I1
g3
(g5
S'\x8al\xe7\xfb\xa9\x919@'
tRp346
F0.092167139053344727
tp347
a(I1
g3
(g5
S'\x00\x00\x00\x00\x00\x00\x00\x00'
tRp348
F3.7032909393310547
tp349
aa(lp350
(I1
g3
(g5
S',\xd4\x9a\xe6\x1d\xe79@'
tRp351
F0.018631219863891602
tp352
a(I1
g3
(g5
S'\x9c\x11\xa5\xbd\xc1W"@'
tRp353
F0.047232866287231445
tp354
a(I1
g3
(g5
S'\x9c\x11\xa5\xbd\xc1W"@'
tRp355
F0.022183895111083984
tp356
a(I1
g3
(g5
S'\x9c\x11\xa5\xbd\xc1W"@'
tRp357
F0.035465002059936523
tp358
a(I1
g3
(g5
S'\x9c\x11\xa5\xbd\xc1W"@'
tRp359
F0.053900003433227539
tp360
a(I1
g3
(g5
S'\x9c\x11\xa5\xbd\xc1W"@'
tRp361
F3.2541439533233643
tp362
a(I1
g3
(g5
S'\x9c\x11\xa5\xbd\xc1W"@'
tRp363
F0.063515186309814453
tp364
a(I1
g3
(g5
S'\x9c\x11\xa5\xbd\xc1W"@'
tRp365
F0.086044073104858398
tp366
a(I1
g3
(g5
S'\x9c\x11\xa5\xbd\xc1W"@'
tRp367
F0.15192389488220215
tp368
a(I1
g3
(g5
S'\x00\x00\x00\x00\x00\x00\x00\x00'
tRp369
F0.24040007591247559
tp370
aa(lp371
(I1
g3
(g5
S'\xa0\x1a/\xdd$\x8eS@'
tRp372
F0.018856048583984375
tp373
a(I1
g3
(g5
S'\xf0\xa7\xc6K7\tC@'
tRp374
F0.045129060745239258
tp375
a(I1
g3
(g5
S'\xf0\xa7\xc6K7\tC@'
tRp376
F0.04425811767578125
tp377
a(I1
g3
(g5
S'\xf0\xa7\xc6K7\tC@'
tRp378
F0.020249843597412109
tp379
a(I1
g3
(g5
S'\xf0\xa7\xc6K7\tC@'
tRp380
F0.052013158798217773
tp381
a(I1
g3
(g5
S'\xf0\xa7\xc6K7\tC@'
tRp382
F3.0653619766235352
tp383
a(I1
g3
(g5
S'\xf8S\xe3\xa5\x9b\xc48@'
tRp384
F0.045842170715332031
tp385
a(I1
g3
(g5
S'\xf8S\xe3\xa5\x9b\xc48@'
tRp386
F0.026166200637817383
tp387
a(I1
g3
(g5
S'\x84\xc0\xca\xa1E\xe6F@'
tRp388
F0.037558078765869141
tp389
a(I1
g3
(g5
S'\x84\xc0\xca\xa1E\xe6F@'
tRp390
F0.029489994049072266
tp391
a(I1
g3
(g5
S'\x00\x00\x00\x00\x00\x00\x00\x00'
tRp392
F3.1859111785888672
tp393
aa(lp394
(I1
g3
(g5
S'~?5^\xba)3@'
tRp395
F0.018525838851928711
tp396
a(I1
g3
(g5
S'.\xb2\x9d\xef\xa7&F@'
tRp397
F0.049154043197631836
tp398
a(I1
g3
(g5
S'\x00\x00\x00\x00\x00\x00\x17@'
tRp399
F0.039361000061035156
tp400
a(I1
g3
(g5
S'\x00\x00\x00\x00\x00\x00\x17@'
tRp401
F0.05554509162902832
tp402
a(I1
g3
(g5
S'\x00\x00\x00\x00\x00\x00\x17@'
tRp403
F0.052356958389282227
tp404
a(I1
g3
(g5
S'~?5^\xba\xe98@'
tRp405
F2.9089689254760742
tp406
a(I1
g3
(g5
S'\x00\x00\x00\x00\x00\x00\x00\x00'
tRp407
F0.038682937622070312
tp408
aa.