(lp1
(lp2
(I6
cnumpy.core.multiarray
scalar
p3
(cnumpy
dtype
p4
(S'f8'
I0
I1
tRp5
(I3
S'<'
NNNI-1
I-1
I0
tbS'H7\x89A`e\x11@'
tRp6
F0.058372020721435547
tp7
a(I6
g3
(g5
S'\x00\x00\x00\x00\x00\x00\x00\x00'
tRp8
F0.16832494735717773
tp9
aa(lp10
(I6
g3
(g5
S'\x18\x04V\x0e-BW@'
tRp11
F0.057441949844360352
tp12
a(I6
g3
(g5
S'\x00\x00\x00\x00\x00\x00\x00\x00'
tRp13
F0.17273402214050293
tp14
aa(lp15
(I6
g3
(g5
S'>\n\xd7\xa3p\x1dN@'
tRp16
F0.05761408805847168
tp17
a(I6
g3
(g5
S'\x00\x00\x00\x00\x00\x00\x00\x00'
tRp18
F0.17353010177612305
tp19
aa(lp20
(I6
g3
(g5
S'p\x12\x83\xc0\xcaa!@'
tRp21
F0.057504892349243164
tp22
a(I6
g3
(g5
S'\x00\x00\x00\x00\x00\x00\x00\x00'
tRp23
F0.1207878589630127
tp24
aa(lp25
(I6
g3
(g5
S'<\xdfO\x8d\x97\xee8@'
tRp26
F0.057595968246459961
tp27
a(I6
g3
(g5
S'5^\xbaI\x0c\xc2D@'
tRp28
F0.13518905639648438
tp29
a(I6
g3
(g5
S'<\xdfO\x8d\x97\xee8@'
tRp30
F0.31268095970153809
tp31
a(I6
g3
(g5
S'ffffff6@'
tRp32
F0.17138099670410156
tp33
a(I6
g3
(g5
S'ffffff6@'
tRp34
F0.19787311553955078
tp35
a(I6
g3
(g5
S'\x00\x00\x00\x00\x00\x00\x00\x00'
tRp36
F30.077194213867188
tp37
aa(lp38
(I6
g3
(g5
S'\x06\x81\x95C\x8b\xbcB@'
tRp39
F0.058042049407958984
tp40
a(I6
g3
(g5
S'\xa6\x9b\xc4 \xb0r2@'
tRp41
F0.082742929458618164
tp42
a(I6
g3
(g5
S'\xa8\xc6K7\x89\xe1C@'
tRp43
F0.14514493942260742
tp44
a(I6
g3
(g5
S'\xa8\xc6K7\x89\xe1C@'
tRp45
F0.24721693992614746
tp46
a(I6
g3
(g5
S'\xa8\xc6K7\x89\xe1C@'
tRp47
F0.20811295509338379
tp48
a(I6
g3
(g5
S'\x00\x00\x00\x00\x00\x00\x00\x00'
tRp49
F6.7338218688964844
tp50
aa(lp51
(I6
g3
(g5
S'*\x87\x16\xd9\xceWF@'
tRp52
F0.057825088500976562
tp53
a(I6
g3
(g5
S'\xbaI\x0c\x02+\xa7D@'
tRp54
F0.1396479606628418
tp55
a(I6
g3
(g5
S'\xbaI\x0c\x02+\xa7D@'
tRp56
F0.15249395370483398
tp57
a(I6
g3
(g5
S'\xbaI\x0c\x02+\xa7D@'
tRp58
F0.18610382080078125
tp59
a(I6
g3
(g5
S'\xbaI\x0c\x02+\xa7D@'
tRp60
F0.073049783706665039
tp61
a(I6
g3
(g5
S' \xb0rh\x91M3@'
tRp62
F4.9272491931915283
tp63
a(I6
g3
(g5
S' \xb0rh\x91M3@'
tRp64
F0.16037583351135254
tp65
a(I6
g3
(g5
S' \xb0rh\x91M3@'
tRp66
F0.15045499801635742
tp67
a(I6
g3
(g5
S' \xb0rh\x91M3@'
tRp68
F0.15839409828186035
tp69
a(I6
g3
(g5
S' \xb0rh\x91M3@'
tRp70
F0.16080307960510254
tp71
a(I6
g3
(g5
S' \xb0rh\x91M3@'
tRp72
F5.4093019962310791
tp73
a(I6
g3
(g5
S' \xb0rh\x91M3@'
tRp74
F0.19643402099609375
tp75
a(I6
g3
(g5
S' \xb0rh\x91M3@'
tRp76
F0.23162698745727539
tp77
a(I6
g3
(g5
S' \xb0rh\x91M3@'
tRp78
F0.20296001434326172
tp79
a(I6
g3
(g5
S' \xb0rh\x91M3@'
tRp80
F0.19348597526550293
tp81
a(I6
g3
(g5
S' \xb0rh\x91M3@'
tRp82
F6.7590839862823486
tp83
a(I6
g3
(g5
S' \xb0rh\x91M3@'
tRp84
F0.20658206939697266
tp85
a(I6
g3
(g5
S' \xb0rh\x91M3@'
tRp86
F0.21200203895568848
tp87
a(I6
g3
(g5
S' \xb0rh\x91M3@'
tRp88
F0.21392107009887695
tp89
a(I6
g3
(g5
S' \xb0rh\x91M3@'
tRp90
F0.21800613403320312
tp91
a(I6
g3
(g5
S' \xb0rh\x91M3@'
tRp92
F7.92507004737854
tp93
a(I6
g3
(g5
S' \xb0rh\x91M3@'
tRp94
F0.21461009979248047
tp95
a(I6
g3
(g5
S' \xb0rh\x91M3@'
tRp96
F0.2238609790802002
tp97
a(I6
g3
(g5
S' \xb0rh\x91M3@'
tRp98
F0.22658395767211914
tp99
a(I6
g3
(g5
S' \xb0rh\x91M3@'
tRp100
F0.23157596588134766
tp101
a(I6
g3
(g5
S'\xbaI\x0c\x02+\xa7D@'
tRp102
F8.9383080005645752
tp103
a(I6
g3
(g5
S'\xbaI\x0c\x02+\xa7D@'
tRp104
F0.15849685668945312
tp105
a(I6
g3
(g5
S'\xbaI\x0c\x02+\xa7D@'
tRp106
F0.16231107711791992
tp107
a(I6
g3
(g5
S'\xbaI\x0c\x02+\xa7D@'
tRp108
F0.16679692268371582
tp109
a(I6
g3
(g5
S'\xbaI\x0c\x02+\xa7D@'
tRp110
F0.1717381477355957
tp111
a(I6
g3
(g5
S' \xb0rh\x91M3@'
tRp112
F10.118194818496704
tp113
a(I6
g3
(g5
S' \xb0rh\x91M3@'
tRp114
F0.23623204231262207
tp115
a(I6
g3
(g5
S' \xb0rh\x91M3@'
tRp116
F0.24296307563781738
tp117
a(I6
g3
(g5
S' \xb0rh\x91M3@'
tRp118
F0.24822998046875
tp119
a(I6
g3
(g5
S' \xb0rh\x91M3@'
tRp120
F0.25258803367614746
tp121
a(I6
g3
(g5
S' \xb0rh\x91M3@'
tRp122
F11.236166954040527
tp123
a(I6
g3
(g5
S' \xb0rh\x91M3@'
tRp124
F0.25460696220397949
tp125
a(I6
g3
(g5
S' \xb0rh\x91M3@'
tRp126
F0.25858306884765625
tp127
a(I6
g3
(g5
S' \xb0rh\x91M3@'
tRp128
F0.26264810562133789
tp129
a(I6
g3
(g5
S' \xb0rh\x91M3@'
tRp130
F0.41136908531188965
tp131
a(I6
g3
(g5
S' \xb0rh\x91M3@'
tRp132
F12.33924412727356
tp133
a(I6
g3
(g5
S' \xb0rh\x91M3@'
tRp134
F0.28391098976135254
tp135
a(I6
g3
(g5
S' \xb0rh\x91M3@'
tRp136
F0.26614999771118164
tp137
a(I6
g3
(g5
S' \xb0rh\x91M3@'
tRp138
F0.27014899253845215
tp139
a(I6
g3
(g5
S' \xb0rh\x91M3@'
tRp140
F0.27429604530334473
tp141
a(I6
g3
(g5
S' \xb0rh\x91M3@'
tRp142
F13.845996141433716
tp143
a(I6
g3
(g5
S' \xb0rh\x91M3@'
tRp144
F0.28814387321472168
tp145
a(I6
g3
(g5
S' \xb0rh\x91M3@'
tRp146
F0.2932441234588623
tp147
a(I6
g3
(g5
S' \xb0rh\x91M3@'
tRp148
F0.29725503921508789
tp149
a(I6
g3
(g5
S' \xb0rh\x91M3@'
tRp150
F0.29232311248779297
tp151
aa(lp152
(I6
g3
(g5
S'\xcf\xf7S\xe3\xa5[;@'
tRp153
F0.058046102523803711
tp154
a(I6
g3
(g5
S'\x00\x00\x00\x00\x00\x00\x00\x00'
tRp155
F0.15247702598571777
tp156
aa(lp157
(I6
g3
(g5
S'\xfd\xd4x\xe9&QB@'
tRp158
F0.057852983474731445
tp159
a(I6
g3
(g5
S'\x00\x00\x00\x00\x00\x00\x00\x00'
tRp160
F0.17235279083251953
tp161
aa(lp162
(I6
g3
(g5
S'^\xbaI\x0c\x02\xdbF@'
tRp163
F0.058194875717163086
tp164
a(I6
g3
(g5
S'\xec|?5^\xfa6@'
tRp165
F0.082496166229248047
tp166
a(I6
g3
(g5
S'\xcc\xf7S\xe3\xa5\xbb6@'
tRp167
F0.22018313407897949
tp168
a(I6
g3
(g5
S'\xcc\xf7S\xe3\xa5\xbb6@'
tRp169
F0.06968379020690918
tp170
a(I6
g3
(g5
S'\xcc\xf7S\xe3\xa5\xbb6@'
tRp171
F0.075309038162231445
tp172
a(I6
g3
(g5
S'^\xbaI\x0c\x02\xdbF@'
tRp173
F4.2778410911560059
tp174
a(I6
g3
(g5
S'^\xbaI\x0c\x02\xdbF@'
tRp175
F0.10182905197143555
tp176
a(I6
g3
(g5
S'^\xbaI\x0c\x02\xdbF@'
tRp177
F0.11707305908203125
tp178
a(I6
g3
(g5
S'^\xbaI\x0c\x02\xdbF@'
tRp179
F0.12288188934326172
tp180
a(I6
g3
(g5
S'^\xbaI\x0c\x02\xdbF@'
tRp181
F0.18106508255004883
tp182
a(I6
g3
(g5
S'^\xbaI\x0c\x02\xdbF@'
tRp183
F5.2382659912109375
tp184
a(I6
g3
(g5
S'\x00\x00\x00\x00\x00\x00\x00\x00'
tRp185
F0.12855195999145508
tp186
aa(lp187
(I6
g3
(g5
S'\x00\x00\x00\x00\x00\x00\x00\x00'
tRp188
F0.057890892028808594
tp189
aa(lp190
(I6
g3
(g5
S'\x00\x19\x04V\x0e-\xe6?'
tRp191
F0.057863950729370117
tp192
a(I6
g3
(g5
S'\x00\x19\x04V\x0e-\xe6?'
tRp193
F0.13037705421447754
tp194
a(I6
g3
(g5
S'p\x12\x83\xc0\xca1G@'
tRp195
F0.17578506469726562
tp196
a(I6
g3
(g5
S'p\x12\x83\xc0\xca1G@'
tRp197
F0.17915201187133789
tp198
a(I6
g3
(g5
S'p\x12\x83\xc0\xca1G@'
tRp199
F0.1949760913848877
tp200
a(I6
g3
(g5
S'p\x12\x83\xc0\xca1G@'
tRp201
F17.831639051437378
tp202
a(I6
g3
(g5
S'p\x12\x83\xc0\xca1G@'
tRp203
F0.081743001937866211
tp204
a(I6
g3
(g5
S'p\x12\x83\xc0\xca1G@'
tRp205
F0.085422039031982422
tp206
a(I6
g3
(g5
S'p\x12\x83\xc0\xca1G@'
tRp207
F0.089771032333374023
tp208
a(I6
g3
(g5
S'p\x12\x83\xc0\xca1G@'
tRp209
F0.094007968902587891
tp210
a(I6
g3
(g5
S'\x00\x19\x04V\x0e-\xe6?'
tRp211
F8.316709041595459
tp212
a(I6
g3
(g5
S'\x00\x00\x00\x00\x00\x00\x00\x00'
tRp213
F0.86838412284851074
tp214
aa(lp215
(I6
g3
(g5
S'\x98\xed|?5^)@'
tRp216
F0.058610916137695312
tp217
a(I6
g3
(g5
S'\xa6p=\n\xd7c9@'
tRp218
F0.082198858261108398
tp219
a(I6
g3
(g5
S'\xa6p=\n\xd7c9@'
tRp220
F0.16365504264831543
tp221
a(I6
g3
(g5
S'\xa6p=\n\xd7c9@'
tRp222
F0.0846710205078125
tp223
a(I6
g3
(g5
S'\xa6p=\n\xd7c9@'
tRp224
F0.08974003791809082
tp225
a(I6
g3
(g5
S'\x12X9\xb4\xc8VC@'
tRp226
F24.668694019317627
tp227
a(I6
g3
(g5
S'\x98\xed|?5^)@'
tRp228
F74.56154203414917
tp229
a(I6
g3
(g5
S'\x00\x00\x00\x00\x00\x00\x00\x00'
tRp230
F80.133825778961182
tp231
aa(lp232
(I6
g3
(g5
S'\xdc\xf9~j\xbcT4@'
tRp233
F0.058683872222900391
tp234
a(I6
g3
(g5
S'J\x0c\x02+\x87\xd6@@'
tRp235
F0.17236900329589844
tp236
a(I6
g3
(g5
S'J\x0c\x02+\x87\xd6@@'
tRp237
F0.35115790367126465
tp238
a(I6
g3
(g5
S'J\x0c\x02+\x87\xd6@@'
tRp239
F0.21534895896911621
tp240
a(I6
g3
(g5
S'J\x0c\x02+\x87\xd6@@'
tRp241
F0.2400820255279541
tp242
a(I6
g3
(g5
S'\x94\x18\x04V\x0e\xc5U@'
tRp243
F4.8262970447540283
tp244
a(I6
g3
(g5
S'\x94\x18\x04V\x0e\xc5U@'
tRp245
F0.081984043121337891
tp246
a(I6
g3
(g5
S'\x94\x18\x04V\x0e\xc5U@'
tRp247
F0.08587193489074707
tp248
a(I6
g3
(g5
S'\x94\x18\x04V\x0e\xc5U@'
tRp249
F0.090468168258666992
tp250
a(I6
g3
(g5
S'\x94\x18\x04V\x0e\xc5U@'
tRp251
F0.093075037002563477
tp252
a(I6
g3
(g5
S'\xc8K7\x89A`.@'
tRp253
F5.2584850788116455
tp254
a(I6
g3
(g5
S'\xc8K7\x89A`.@'
tRp255
F0.43696188926696777
tp256
a(I6
g3
(g5
S'\xc8K7\x89A`.@'
tRp257
F0.4432981014251709
tp258
a(I6
g3
(g5
S'\xc8K7\x89A`.@'
tRp259
F1.2985270023345947
tp260
a(I6
g3
(g5
S'\xc8K7\x89A`.@'
tRp261
F1.016322135925293
tp262
a(I6
g3
(g5
S'\xc8K7\x89A`.@'
tRp263
F9.3297200202941895
tp264
a(I6
g3
(g5
S'\xc8K7\x89A`.@'
tRp265
F0.78516101837158203
tp266
a(I6
g3
(g5
S'\xc8K7\x89A`.@'
tRp267
F0.80248594284057617
tp268
a(I6
g3
(g5
S'\xc8K7\x89A`.@'
tRp269
F0.7997288703918457
tp270
a(I6
g3
(g5
S'\xc8K7\x89A`.@'
tRp271
F0.79927301406860352
tp272
a(I6
g3
(g5
S'\x00\x00\x00\x00\x00\x00\x00\x00'
tRp273
F10.907797813415527
tp274
aa(lp275
(I6
g3
(g5
S'F\xb6\xf3\xfd\xd4\xc8N@'
tRp276
F0.058161020278930664
tp277
a(I6
g3
(g5
S'<\n\xd7\xa3p\xbd2@'
tRp278
F0.14737319946289062
tp279
a(I6
g3
(g5
S'\xf4\xfd\xd4x\xe9\x86H@'
tRp280
F0.22274303436279297
tp281
a(I6
g3
(g5
S'\xf4\xfd\xd4x\xe9\x86H@'
tRp282
F0.071506023406982422
tp283
a(I6
g3
(g5
S'\xf4\xfd\xd4x\xe9\x86H@'
tRp284
F0.073988199234008789
tp285
a(I6
g3
(g5
S'\x00\x00\x00\x00\x00\x00\x00\x00'
tRp286
F4.175055980682373
tp287
aa(lp288
(I6
g3
(g5
S'\x97C\x8bl\xe7KF@'
tRp289
F0.05770111083984375
tp290
a(I6
g3
(g5
S'\xe8\xd0"\xdb\xf9\xbe8@'
tRp291
F0.1500239372253418
tp292
a(I6
g3
(g5
S'\xe8\xd0"\xdb\xf9\xbe8@'
tRp293
F0.15818095207214355
tp294
a(I6
g3
(g5
S'\xe8\xd0"\xdb\xf9\xbe8@'
tRp295
F0.1853640079498291
tp296
a(I6
g3
(g5
S'Y9\xb4\xc8v\xfeL@'
tRp297
F0.15693187713623047
tp298
a(I6
g3
(g5
S'H\xb6\xf3\xfd\xd4\xd83@'
tRp299
F4.2225539684295654
tp300
a(I6
g3
(g5
S'H\xb6\xf3\xfd\xd4\xd83@'
tRp301
F0.12865900993347168
tp302
a(I6
g3
(g5
S'H\xb6\xf3\xfd\xd4\xd83@'
tRp303
F0.13021588325500488
tp304
a(I6
g3
(g5
S'H\xb6\xf3\xfd\xd4\xd83@'
tRp305
F0.13436484336853027
tp306
a(I6
g3
(g5
S'H\xb6\xf3\xfd\xd4\xd83@'
tRp307
F0.13761591911315918
tp308
a(I6
g3
(g5
S'H\xb6\xf3\xfd\xd4\xd83@'
tRp309
F5.3288869857788086
tp310
a(I6
g3
(g5
S'H\xb6\xf3\xfd\xd4\xd83@'
tRp311
F0.12923812866210938
tp312
a(I6
g3
(g5
S'H\xb6\xf3\xfd\xd4\xd83@'
tRp313
F0.16680812835693359
tp314
a(I6
g3
(g5
S'H\xb6\xf3\xfd\xd4\xd83@'
tRp315
F0.13741207122802734
tp316
a(I6
g3
(g5
S'H\xb6\xf3\xfd\xd4\xd83@'
tRp317
F0.16418600082397461
tp318
a(I6
g3
(g5
S'H\xb6\xf3\xfd\xd4\xd83@'
tRp319
F6.4804389476776123
tp320
a(I6
g3
(g5
S'H\xb6\xf3\xfd\xd4\xd83@'
tRp321
F0.15350008010864258
tp322
a(I6
g3
(g5
S'H\xb6\xf3\xfd\xd4\xd83@'
tRp323
F0.15830779075622559
tp324
a(I6
g3
(g5
S'H\xb6\xf3\xfd\xd4\xd83@'
tRp325
F0.16270112991333008
tp326
a(I6
g3
(g5
S'H\xb6\xf3\xfd\xd4\xd83@'
tRp327
F0.16676092147827148
tp328
a(I6
g3
(g5
S'H\xb6\xf3\xfd\xd4\xd83@'
tRp329
F7.7998499870300293
tp330
a(I6
g3
(g5
S'H\xb6\xf3\xfd\xd4\xd83@'
tRp331
F0.17520689964294434
tp332
a(I6
g3
(g5
S'H\xb6\xf3\xfd\xd4\xd83@'
tRp333
F0.17908692359924316
tp334
a(I6
g3
(g5
S'H\xb6\xf3\xfd\xd4\xd83@'
tRp335
F0.18325710296630859
tp336
a(I6
g3
(g5
S'H\xb6\xf3\xfd\xd4\xd83@'
tRp337
F0.18759393692016602
tp338
a(I6
g3
(g5
S'Y9\xb4\xc8v\xfeL@'
tRp339
F8.7311489582061768
tp340
a(I6
g3
(g5
S'Y9\xb4\xc8v\xfeL@'
tRp341
F0.15813088417053223
tp342
a(I6
g3
(g5
S'Y9\xb4\xc8v\xfeL@'
tRp343
F0.16189408302307129
tp344
a(I6
g3
(g5
S'Y9\xb4\xc8v\xfeL@'
tRp345
F0.16601896286010742
tp346
a(I6
g3
(g5
S'Y9\xb4\xc8v\xfeL@'
tRp347
F0.17062711715698242
tp348
a(I6
g3
(g5
S'H\xb6\xf3\xfd\xd4\xd83@'
tRp349
F10.022656917572021
tp350
a(I6
g3
(g5
S'H\xb6\xf3\xfd\xd4\xd83@'
tRp351
F0.20664000511169434
tp352
a(I6
g3
(g5
S'H\xb6\xf3\xfd\xd4\xd83@'
tRp353
F0.21026778221130371
tp354
a(I6
g3
(g5
S'H\xb6\xf3\xfd\xd4\xd83@'
tRp355
F0.21488213539123535
tp356
a(I6
g3
(g5
S'H\xb6\xf3\xfd\xd4\xd83@'
tRp357
F0.21871089935302734
tp358
a(I6
g3
(g5
S'H\xb6\xf3\xfd\xd4\xd83@'
tRp359
F11.357595920562744
tp360
a(I6
g3
(g5
S'H\xb6\xf3\xfd\xd4\xd83@'
tRp361
F0.22941994667053223
tp362
a(I6
g3
(g5
S'H\xb6\xf3\xfd\xd4\xd83@'
tRp363
F0.23179507255554199
tp364
a(I6
g3
(g5
S'H\xb6\xf3\xfd\xd4\xd83@'
tRp365
F0.23607206344604492
tp366
a(I6
g3
(g5
S'H\xb6\xf3\xfd\xd4\xd83@'
tRp367
F0.24099111557006836
tp368
a(I6
g3
(g5
S'H\xb6\xf3\xfd\xd4\xd83@'
tRp369
F12.532631158828735
tp370
a(I6
g3
(g5
S'H\xb6\xf3\xfd\xd4\xd83@'
tRp371
F0.25063800811767578
tp372
a(I6
g3
(g5
S'H\xb6\xf3\xfd\xd4\xd83@'
tRp373
F0.23260498046875
tp374
a(I6
g3
(g5
S'H\xb6\xf3\xfd\xd4\xd83@'
tRp375
F0.23644399642944336
tp376
a(I6
g3
(g5
S'H\xb6\xf3\xfd\xd4\xd83@'
tRp377
F0.2413480281829834
tp378
a(I6
g3
(g5
S'H\xb6\xf3\xfd\xd4\xd83@'
tRp379
F13.570754051208496
tp380
a(I6
g3
(g5
S'H\xb6\xf3\xfd\xd4\xd83@'
tRp381
F0.38917994499206543
tp382
a(I6
g3
(g5
S'H\xb6\xf3\xfd\xd4\xd83@'
tRp383
F0.25136113166809082
tp384
a(I6
g3
(g5
S'H\xb6\xf3\xfd\xd4\xd83@'
tRp385
F0.2546839714050293
tp386
a(I6
g3
(g5
S'H\xb6\xf3\xfd\xd4\xd83@'
tRp387
F0.25517487525939941
tp388
aa(lp389
(I6
g3
(g5
S'\x10\x83\xc0\xca\xa1\xc5,@'
tRp390
F0.05807185173034668
tp391
a(I6
g3
(g5
S'\x8al\xe7\xfb\xa9\x919@'
tRp392
F0.15644693374633789
tp393
a(I6
g3
(g5
S'\x95C\x8bl\xe73U@'
tRp394
F0.15478682518005371
tp395
a(I6
g3
(g5
S'\x95C\x8bl\xe73U@'
tRp396
F0.15052008628845215
tp397
a(I6
g3
(g5
S'\x95C\x8bl\xe73U@'
tRp398
F0.073608160018920898
tp399
a(I6
g3
(g5
S'\x00\x00\x00\x00\x00\x00\x00\x00'
tRp400
F4.0758190155029297
tp401
aa(lp402
(I6
g3
(g5
S'\xe8\xfb\xa9\xf1\xd2\xcd/@'
tRp403
F0.058012008666992188
tp404
a(I6
g3
(g5
S'\xe8\xfb\xa9\xf1\xd2\xcd/@'
tRp405
F0.1676781177520752
tp406
a(I6
g3
(g5
S'\xc2\x86\xa7W\xca\x129@'
tRp407
F0.29649806022644043
tp408
a(I6
g3
(g5
S'\xc2\x86\xa7W\xca\x129@'
tRp409
F0.16463899612426758
tp410
a(I6
g3
(g5
S'\xc2\x86\xa7W\xca\x129@'
tRp411
F0.099588871002197266
tp412
a(I6
g3
(g5
S'\x00\x00\x00\x00\x00\x00\x00\x00'
tRp413
F7.6897270679473877
tp414
aa(lp415
(I6
g3
(g5
S'\x84\xc0\xca\xa1E\xe6F@'
tRp416
F0.058053970336914062
tp417
a(I6
g3
(g5
S'\x84\xc0\xca\xa1E\xe6F@'
tRp418
F0.16656184196472168
tp419
a(I6
g3
(g5
S'\x84\xc0\xca\xa1E\xe6F@'
tRp420
F0.19094705581665039
tp421
a(I6
g3
(g5
S'\x84\xc0\xca\xa1E\xe6F@'
tRp422
F0.18009018898010254
tp423
a(I6
g3
(g5
S'\x84\xc0\xca\xa1E\xe6F@'
tRp424
F0.073932886123657227
tp425
a(I6
g3
(g5
S'\xd0\xf7S\xe3\xa5\x9b*@'
tRp426
F6.5029590129852295
tp427
a(I6
g3
(g5
S'\xd0\xf7S\xe3\xa5\x9b*@'
tRp428
F0.4749901294708252
tp429
a(I6
g3
(g5
S'\xd0\xf7S\xe3\xa5\x9b*@'
tRp430
F0.29686689376831055
tp431
a(I6
g3
(g5
S'\xd0\xf7S\xe3\xa5\x9b*@'
tRp432
F0.38829302787780762
tp433
a(I6
g3
(g5
S'\xd0\xf7S\xe3\xa5\x9b*@'
tRp434
F0.39438295364379883
tp435
a(I6
g3
(g5
S'\xd0\xf7S\xe3\xa5\x9b*@'
tRp436
F6.878521203994751
tp437
a(I6
g3
(g5
S'\xd0\xf7S\xe3\xa5\x9b*@'
tRp438
F0.25151300430297852
tp439
a(I6
g3
(g5
S'\xd0\xf7S\xe3\xa5\x9b*@'
tRp440
F0.28015995025634766
tp441
a(I6
g3
(g5
S'\xd0\xf7S\xe3\xa5\x9b*@'
tRp442
F0.34218692779541016
tp443
a(I6
g3
(g5
S'\xd0\xf7S\xe3\xa5\x9b*@'
tRp444
F0.31025505065917969
tp445
a(I6
g3
(g5
S'\xd0\xf7S\xe3\xa5\x9b*@'
tRp446
F8.1648938655853271
tp447
a(I6
g3
(g5
S'\xd0\xf7S\xe3\xa5\x9b*@'
tRp448
F0.3641819953918457
tp449
a(I6
g3
(g5
S'\xd0\xf7S\xe3\xa5\x9b*@'
tRp450
F0.36485505104064941
tp451
a(I6
g3
(g5
S'\xd0\xf7S\xe3\xa5\x9b*@'
tRp452
F0.37168502807617188
tp453
a(I6
g3
(g5
S'\xd0\xf7S\xe3\xa5\x9b*@'
tRp454
F0.33660292625427246
tp455
a(I6
g3
(g5
S'\xd0\xf7S\xe3\xa5\x9b*@'
tRp456
F9.5723299980163574
tp457
a(I6
g3
(g5
S'\xd0\xf7S\xe3\xa5\x9b*@'
tRp458
F0.37772393226623535
tp459
a(I6
g3
(g5
S'\xd0\xf7S\xe3\xa5\x9b*@'
tRp460
F0.40667104721069336
tp461
a(I6
g3
(g5
S'\xd0\xf7S\xe3\xa5\x9b*@'
tRp462
F0.38136100769042969
tp463
a(I6
g3
(g5
S'\xd0\xf7S\xe3\xa5\x9b*@'
tRp464
F0.3890221118927002
tp465
a(I6
g3
(g5
S'\xd0\xf7S\xe3\xa5\x9b*@'
tRp466
F10.854306936264038
tp467
a(I6
g3
(g5
S'\xd0\xf7S\xe3\xa5\x9b*@'
tRp468
F0.50617313385009766
tp469
a(I6
g3
(g5
S'\xd0\xf7S\xe3\xa5\x9b*@'
tRp470
F0.40217995643615723
tp471
a(I6
g3
(g5
S'\xd0\xf7S\xe3\xa5\x9b*@'
tRp472
F0.35576796531677246
tp473
a(I6
g3
(g5
S'\xd0\xf7S\xe3\xa5\x9b*@'
tRp474
F0.42740797996520996
tp475
a(I6
g3
(g5
S'\xd0\xf7S\xe3\xa5\x9b*@'
tRp476
F12.215514898300171
tp477
a(I6
g3
(g5
S'\xd0\xf7S\xe3\xa5\x9b*@'
tRp478
F0.38115191459655762
tp479
a(I6
g3
(g5
S'\xd0\xf7S\xe3\xa5\x9b*@'
tRp480
F0.4091649055480957
tp481
a(I6
g3
(g5
S'\xd0\xf7S\xe3\xa5\x9b*@'
tRp482
F0.43184304237365723
tp483
a(I6
g3
(g5
S'\xd0\xf7S\xe3\xa5\x9b*@'
tRp484
F0.46759510040283203
tp485
a(I6
g3
(g5
S'\xd0\xf7S\xe3\xa5\x9b*@'
tRp486
F13.2848961353302
tp487
a(I6
g3
(g5
S'\xd0\xf7S\xe3\xa5\x9b*@'
tRp488
F0.42172884941101074
tp489
a(I6
g3
(g5
S'\xd0\xf7S\xe3\xa5\x9b*@'
tRp490
F0.48830199241638184
tp491
a(I6
g3
(g5
S'\xd0\xf7S\xe3\xa5\x9b*@'
tRp492
F0.46254897117614746
tp493
a(I6
g3
(g5
S'\xd0\xf7S\xe3\xa5\x9b*@'
tRp494
F0.4484398365020752
tp495
a(I6
g3
(g5
S'\xd0\xf7S\xe3\xa5\x9b*@'
tRp496
F14.456255197525024
tp497
a(I6
g3
(g5
S'\xd0\xf7S\xe3\xa5\x9b*@'
tRp498
F0.54377102851867676
tp499
a(I6
g3
(g5
S'\xd0\xf7S\xe3\xa5\x9b*@'
tRp500
F0.42610502243041992
tp501
a(I6
g3
(g5
S'\xd0\xf7S\xe3\xa5\x9b*@'
tRp502
F0.44540596008300781
tp503
a(I6
g3
(g5
S'\xd0\xf7S\xe3\xa5\x9b*@'
tRp504
F0.43684792518615723
tp505
a(I6
g3
(g5
S'\x84\xc0\xca\xa1E\xe6F@'
tRp506
F14.977483034133911
tp507
a(I6
g3
(g5
S'\x84\xc0\xca\xa1E\xe6F@'
tRp508
F0.22419500350952148
tp509
a(I6
g3
(g5
S'\x84\xc0\xca\xa1E\xe6F@'
tRp510
F0.22879600524902344
tp511
a(I6
g3
(g5
S'\x84\xc0\xca\xa1E\xe6F@'
tRp512
F0.2337031364440918
tp513
a(I6
g3
(g5
S'\x84\xc0\xca\xa1E\xe6F@'
tRp514
F0.23800396919250488
tp515
aa(lp516
(I6
g3
(g5
S'\xd4Mb\x10X\xa9J@'
tRp517
F0.058331012725830078
tp518
a(I6
g3
(g5
S'\x00\x00\x00\x00\x00\x00\x17@'
tRp519
F0.13179206848144531
tp520
a(I6
g3
(g5
S'\x00\x00\x00\x00\x00\x00\x17@'
tRp521
F0.15647506713867188
tp522
a(I6
g3
(g5
S'\x00\x00\x00\x00\x00\x00\x17@'
tRp523
F0.18519401550292969
tp524
a(I6
g3
(g5
S'~?5^\xba\xe98@'
tRp525
F0.17168307304382324
tp526
a(I6
g3
(g5
S'\x00\x00\x00\x00\x00\x00\x00\x00'
tRp527
F4.2837378978729248
tp528
aa.