(lp1
(lp2
(I1
cnumpy.core.multiarray
scalar
p3
(cnumpy
dtype
p4
(S'f8'
I0
I1
tRp5
(I3
S'<'
NNNI-1
I-1
I0
tbS'53333\x13`@'
tRp6
F0.022626161575317383
tp7
a(I1
g3
(g5
S'\xf0Q\xb8\x1e\x85+I@'
tRp8
F0.044472217559814453
tp9
a(I1
g3
(g5
S'\x98\x18\x04V\x0e\xddO@'
tRp10
F0.049023866653442383
tp11
a(I1
g3
(g5
S'\xe4a\xa1\xd64\xbb[@'
tRp12
F0.0388031005859375
tp13
a(I1
g3
(g5
S'@33333:@'
tRp14
F0.084966182708740234
tp15
a(I1
g3
(g5
S'\x80h\x91\xed|?-@'
tRp16
F3.4939777851104736
tp17
a(I1
g3
(g5
S' \x85\xebQ\xb8\x1eG@'
tRp18
F0.068211078643798828
tp19
a(I1
g3
(g5
S'\x90\xc2\xf5(\\/[@'
tRp20
F0.095054149627685547
tp21
a(I1
g3
(g5
S'\x10-\xb2\x9d\xefGS@'
tRp22
F0.20189881324768066
tp23
a(I1
g3
(g5
S'\x80h\x91\xed|?-@'
tRp24
F0.21223592758178711
tp25
a(I1
g3
(g5
S'\x80h\x91\xed|?-@'
tRp26
F3.8826169967651367
tp27
a(I1
g3
(g5
S'\x80h\x91\xed|?-@'
tRp28
F0.097994089126586914
tp29
a(I1
g3
(g5
S'\x80h\x91\xed|?-@'
tRp30
F0.11458492279052734
tp31
a(I1
g3
(g5
S'\x80h\x91\xed|?-@'
tRp32
F0.1131129264831543
tp33
a(I1
g3
(g5
S'\x80h\x91\xed|?-@'
tRp34
F0.14751195907592773
tp35
a(I1
g3
(g5
S'\x80h\x91\xed|?-@'
tRp36
F5.4175639152526855
tp37
a(I1
g3
(g5
S'\x80h\x91\xed|?-@'
tRp38
F0.029314041137695312
tp39
a(I1
g3
(g5
S'\x80h\x91\xed|?-@'
tRp40
F0.029381036758422852
tp41
a(I1
g3
(g5
S'\x80h\x91\xed|?-@'
tRp42
F0.029795169830322266
tp43
a(I1
g3
(g5
S'\x80h\x91\xed|?-@'
tRp44
F0.030199050903320312
tp45
a(I1
g3
(g5
S'x\x9c\xa2#\xb9fa@'
tRp46
F5.9916491508483887
tp47
a(I1
g3
(g5
S'x\x9c\xa2#\xb9fa@'
tRp48
F0.036516904830932617
tp49
a(I1
g3
(g5
S'x\x9c\xa2#\xb9fa@'
tRp50
F0.036632061004638672
tp51
a(I1
g3
(g5
S'x\x9c\xa2#\xb9fa@'
tRp52
F0.037042856216430664
tp53
a(I1
g3
(g5
S'x\x9c\xa2#\xb9fa@'
tRp54
F0.037308931350708008
tp55
a(I1
g3
(g5
S'@\xdfO\x8d\x97\x8eH@'
tRp56
F4.7292249202728271
tp57
a(I1
g3
(g5
S'@\xdfO\x8d\x97\x8eH@'
tRp58
F0.042515993118286133
tp59
a(I1
g3
(g5
S'@\xdfO\x8d\x97\x8eH@'
tRp60
F0.041303157806396484
tp61
a(I1
g3
(g5
S'@\xdfO\x8d\x97\x8eH@'
tRp62
F0.043327093124389648
tp63
a(I1
g3
(g5
S'\x80h\x91\xed|?-@'
tRp64
F0.041059970855712891
tp65
a(I1
g3
(g5
S'\x80h\x91\xed|?-@'
tRp66
F4.995866060256958
tp67
a(I1
g3
(g5
S'\x80h\x91\xed|?-@'
tRp68
F0.037277936935424805
tp69
a(I1
g3
(g5
S'\x80h\x91\xed|?-@'
tRp70
F0.037518024444580078
tp71
a(I1
g3
(g5
S'\x80h\x91\xed|?-@'
tRp72
F0.03783106803894043
tp73
a(I1
g3
(g5
S'\x80h\x91\xed|?-@'
tRp74
F0.03823399543762207
tp75
a(I1
g3
(g5
S'\x80h\x91\xed|?-@'
tRp76
F4.7226309776306152
tp77
a(I1
g3
(g5
S'\x80h\x91\xed|?-@'
tRp78
F0.046401023864746094
tp79
a(I1
g3
(g5
S'\x80h\x91\xed|?-@'
tRp80
F0.044672012329101562
tp81
a(I1
g3
(g5
S'\x80h\x91\xed|?-@'
tRp82
F0.045022010803222656
tp83
a(I1
g3
(g5
S'\x80h\x91\xed|?-@'
tRp84
F0.045155048370361328
tp85
a(I1
g3
(g5
S'\x80h\x91\xed|?-@'
tRp86
F4.8882689476013184
tp87
a(I1
g3
(g5
S'\x80h\x91\xed|?-@'
tRp88
F0.043789863586425781
tp89
a(I1
g3
(g5
S'\x80h\x91\xed|?-@'
tRp90
F0.046386957168579102
tp91
a(I1
g3
(g5
S'\x80h\x91\xed|?-@'
tRp92
F0.044603109359741211
tp93
a(I1
g3
(g5
S'\x80h\x91\xed|?-@'
tRp94
F0.044829130172729492
tp95
a(I1
g3
(g5
S'\x80h\x91\xed|?-@'
tRp96
F5.1144950389862061
tp97
a(I1
g3
(g5
S'\x80h\x91\xed|?-@'
tRp98
F0.04360508918762207
tp99
a(I1
g3
(g5
S'\x80h\x91\xed|?-@'
tRp100
F0.043758153915405273
tp101
a(I1
g3
(g5
S'\x80h\x91\xed|?-@'
tRp102
F0.04395604133605957
tp103
a(I1
g3
(g5
S'\x80h\x91\xed|?-@'
tRp104
F0.046399831771850586
tp105
a(I1
g3
(g5
S'\x80h\x91\xed|?-@'
tRp106
F5.2809560298919678
tp107
a(I1
g3
(g5
S'\x80h\x91\xed|?-@'
tRp108
F0.045273065567016602
tp109
a(I1
g3
(g5
S'\x80h\x91\xed|?-@'
tRp110
F0.04549098014831543
tp111
a(I1
g3
(g5
S'\x80h\x91\xed|?-@'
tRp112
F0.044852972030639648
tp113
a(I1
g3
(g5
S'\x80h\x91\xed|?-@'
tRp114
F0.045124053955078125
tp115
a(I1
g3
(g5
S'\x80h\x91\xed|?-@'
tRp116
F5.5269088745117188
tp117
a(I1
g3
(g5
S'\x80h\x91\xed|?-@'
tRp118
F0.045482158660888672
tp119
a(I1
g3
(g5
S'\x80h\x91\xed|?-@'
tRp120
F0.045814990997314453
tp121
a(I1
g3
(g5
S'\x80h\x91\xed|?-@'
tRp122
F0.046198844909667969
tp123
a(I1
g3
(g5
S'\x80h\x91\xed|?-@'
tRp124
F0.046519041061401367
tp125
a(I1
g3
(g5
S'\x80h\x91\xed|?-@'
tRp126
F5.7748301029205322
tp127
a(I1
g3
(g5
S'\x80h\x91\xed|?-@'
tRp128
F0.047793865203857422
tp129
a(I1
g3
(g5
S'\x80h\x91\xed|?-@'
tRp130
F0.048532009124755859
tp131
a(I1
g3
(g5
S'\x80h\x91\xed|?-@'
tRp132
F0.050856113433837891
tp133
a(I1
g3
(g5
S'\x80h\x91\xed|?-@'
tRp134
F0.048909902572631836
tp135
a(I1
g3
(g5
S'\x80h\x91\xed|?-@'
tRp136
F5.9686181545257568
tp137
a(I1
g3
(g5
S'\x80h\x91\xed|?-@'
tRp138
F0.051633834838867188
tp139
a(I1
g3
(g5
S'\x80h\x91\xed|?-@'
tRp140
F0.050240993499755859
tp141
a(I1
g3
(g5
S'\x80h\x91\xed|?-@'
tRp142
F0.052201032638549805
tp143
a(I1
g3
(g5
S'\x80h\x91\xed|?-@'
tRp144
F0.052723169326782227
tp145
a(I1
g3
(g5
S'\x80h\x91\xed|?-@'
tRp146
F6.1356480121612549
tp147
a(I1
g3
(g5
S'\x80h\x91\xed|?-@'
tRp148
F0.05582880973815918
tp149
a(I1
g3
(g5
S'\x80h\x91\xed|?-@'
tRp150
F0.055964946746826172
tp151
a(I1
g3
(g5
S'\x80h\x91\xed|?-@'
tRp152
F0.056669950485229492
tp153
a(I1
g3
(g5
S'\x80h\x91\xed|?-@'
tRp154
F0.056898832321166992
tp155
a(I1
g3
(g5
S'\xa0\x1a/\xdd$\x86a@'
tRp156
F6.5758850574493408
tp157
a(I1
g3
(g5
S'\xa0\x1a/\xdd$\x86a@'
tRp158
F0.04896092414855957
tp159
a(I1
g3
(g5
S'\xa0\x1a/\xdd$\x86a@'
tRp160
F0.049463033676147461
tp161
a(I1
g3
(g5
S'\xa0\x1a/\xdd$\x86a@'
tRp162
F0.050121068954467773
tp163
a(I1
g3
(g5
S'\xa0\x1a/\xdd$\x86a@'
tRp164
F0.050143003463745117
tp165
a(I1
g3
(g5
S'\x80h\x91\xed|?-@'
tRp166
F6.6545350551605225
tp167
a(I1
g3
(g5
S'\x80h\x91\xed|?-@'
tRp168
F0.060153007507324219
tp169
a(I1
g3
(g5
S'\x80h\x91\xed|?-@'
tRp170
F0.060096979141235352
tp171
a(I1
g3
(g5
S'\x80h\x91\xed|?-@'
tRp172
F0.06052398681640625
tp173
a(I1
g3
(g5
S'\x80h\x91\xed|?-@'
tRp174
F0.060735940933227539
tp175
a(I1
g3
(g5
S'\x80h\x91\xed|?-@'
tRp176
F6.8839921951293945
tp177
a(I1
g3
(g5
S'\x80h\x91\xed|?-@'
tRp178
F0.061953067779541016
tp179
a(I1
g3
(g5
S'\x80h\x91\xed|?-@'
tRp180
F0.061866998672485352
tp181
a(I1
g3
(g5
S'\x80h\x91\xed|?-@'
tRp182
F0.06254887580871582
tp183
a(I1
g3
(g5
S'\x80h\x91\xed|?-@'
tRp184
F0.062811851501464844
tp185
a(I1
g3
(g5
S'\x80h\x91\xed|?-@'
tRp186
F7.090177059173584
tp187
a(I1
g3
(g5
S'\x80h\x91\xed|?-@'
tRp188
F0.063745021820068359
tp189
a(I1
g3
(g5
S'\x80h\x91\xed|?-@'
tRp190
F0.063987970352172852
tp191
a(I1
g3
(g5
S'\x80h\x91\xed|?-@'
tRp192
F0.06417393684387207
tp193
a(I1
g3
(g5
S'\x80h\x91\xed|?-@'
tRp194
F0.064473152160644531
tp195
a(I1
g3
(g5
S'\x80h\x91\xed|?-@'
tRp196
F7.3511240482330322
tp197
a(I1
g3
(g5
S'\x80h\x91\xed|?-@'
tRp198
F0.065600156784057617
tp199
a(I1
g3
(g5
S'\x80h\x91\xed|?-@'
tRp200
F0.065527915954589844
tp201
a(I1
g3
(g5
S'\x80h\x91\xed|?-@'
tRp202
F0.066542148590087891
tp203
a(I1
g3
(g5
S'\x80h\x91\xed|?-@'
tRp204
F0.066237926483154297
tp205
aa(lp206
(I1
g3
(g5
S'\x90\xa0\xf81\xe6\xeca@'
tRp207
F0.021974086761474609
tp208
a(I1
g3
(g5
S'x\x9c\xa2#\xb9\xb8c@'
tRp209
F0.042930841445922852
tp210
a(I1
g3
(g5
S',\x18\x95\xd4\tXV@'
tRp211
F0.080401182174682617
tp212
a(I1
g3
(g5
S'\x98\xbb\x96\x90\x0f:W@'
tRp213
F0.037447929382324219
tp214
a(I1
g3
(g5
S'\x18/\xdd$\x06\xd1V@'
tRp215
F0.071331024169921875
tp216
a(I1
g3
(g5
S'\x18/\xdd$\x06\xd1V@'
tRp217
F3.4104909896850586
tp218
a(I1
g3
(g5
S'\xa8\xc6K7\x89\x91Y@'
tRp219
F0.077790975570678711
tp220
a(I1
g3
(g5
S'\xa8\xc6K7\x89\x91Y@'
tRp221
F0.11620187759399414
tp222
a(I1
g3
(g5
S'@\xb4\xc8v\xbe\xcfO@'
tRp223
F0.18781900405883789
tp224
a(I1
g3
(g5
S'xh\x91\xed|?Q@'
tRp225
F0.1848759651184082
tp226
a(I1
g3
(g5
S'\x18/\xdd$\x06\xd1V@'
tRp227
F4.6672189235687256
tp228
a(I1
g3
(g5
S'\x18/\xdd$\x06\xd1V@'
tRp229
F0.027055025100708008
tp230
a(I1
g3
(g5
S'\x18/\xdd$\x06\xd1V@'
tRp231
F0.027601003646850586
tp232
a(I1
g3
(g5
S'\x18/\xdd$\x06\xd1V@'
tRp233
F0.027883052825927734
tp234
a(I1
g3
(g5
S'\x18/\xdd$\x06\xd1V@'
tRp235
F0.028336048126220703
tp236
a(I1
g3
(g5
S'\xa8\xc6K7\x89\x91Y@'
tRp237
F5.203826904296875
tp238
a(I1
g3
(g5
S'H\xb6\xf3\xfd\xd4x]@'
tRp239
F0.21535897254943848
tp240
a(I1
g3
(g5
S'xh\x91\xed|?Q@'
tRp241
F0.36797404289245605
tp242
a(I1
g3
(g5
S'xh\x91\xed|?Q@'
tRp243
F1.2581400871276855
tp244
a(I1
g3
(g5
S'\xf0\xfb\xa9\xf1\xd2\x8dM@'
tRp245
F0.82948398590087891
tp246
a(I1
g3
(g5
S'\xd4\xbc\xe3\x14\x1d\xe9`@'
tRp247
F6.5269021987915039
tp248
a(I1
g3
(g5
S'(\x06\x81\x95C\x9bS@'
tRp249
F0.036764144897460938
tp250
a(I1
g3
(g5
S'(\x06\x81\x95C\x9bS@'
tRp251
F0.036082983016967773
tp252
a(I1
g3
(g5
S'(\x06\x81\x95C\x9bS@'
tRp253
F0.036410808563232422
tp254
a(I1
g3
(g5
S'(\x06\x81\x95C\x9bS@'
tRp255
F0.036569833755493164
tp256
a(I1
g3
(g5
S'(\x06\x81\x95C\x9bS@'
tRp257
F5.081326961517334
tp258
a(I1
g3
(g5
S'(\x06\x81\x95C\x9bS@'
tRp259
F0.035882949829101562
tp260
a(I1
g3
(g5
S'(\x06\x81\x95C\x9bS@'
tRp261
F0.036211967468261719
tp262
a(I1
g3
(g5
S'(\x06\x81\x95C\x9bS@'
tRp263
F0.036659955978393555
tp264
a(I1
g3
(g5
S'(\x06\x81\x95C\x9bS@'
tRp265
F0.036920070648193359
tp266
a(I1
g3
(g5
S'(\x06\x81\x95C\x9bS@'
tRp267
F4.577470064163208
tp268
a(I1
g3
(g5
S'(\x06\x81\x95C\x9bS@'
tRp269
F0.070815801620483398
tp270
a(I1
g3
(g5
S'(\x06\x81\x95C\x9bS@'
tRp271
F0.069658994674682617
tp272
a(I1
g3
(g5
S'(\x06\x81\x95C\x9bS@'
tRp273
F0.067705869674682617
tp274
a(I1
g3
(g5
S'(\x06\x81\x95C\x9bS@'
tRp275
F0.071592807769775391
tp276
a(I1
g3
(g5
S'(\x06\x81\x95C\x9bS@'
tRp277
F5.0291070938110352
tp278
a(I1
g3
(g5
S'(\x06\x81\x95C\x9bS@'
tRp279
F0.049829959869384766
tp280
a(I1
g3
(g5
S'(\x06\x81\x95C\x9bS@'
tRp281
F0.048043012619018555
tp282
a(I1
g3
(g5
S'(\x06\x81\x95C\x9bS@'
tRp283
F0.048150062561035156
tp284
a(I1
g3
(g5
S'(\x06\x81\x95C\x9bS@'
tRp285
F0.048442840576171875
tp286
a(I1
g3
(g5
S'(\x06\x81\x95C\x9bS@'
tRp287
F5.0564138889312744
tp288
a(I1
g3
(g5
S'(\x06\x81\x95C\x9bS@'
tRp289
F0.042702913284301758
tp290
a(I1
g3
(g5
S'(\x06\x81\x95C\x9bS@'
tRp291
F0.043036222457885742
tp292
a(I1
g3
(g5
S'(\x06\x81\x95C\x9bS@'
tRp293
F0.043242216110229492
tp294
a(I1
g3
(g5
S'(\x06\x81\x95C\x9bS@'
tRp295
F0.043859004974365234
tp296
a(I1
g3
(g5
S'(\x06\x81\x95C\x9bS@'
tRp297
F5.181793212890625
tp298
a(I1
g3
(g5
S'(\x06\x81\x95C\x9bS@'
tRp299
F0.043015003204345703
tp300
a(I1
g3
(g5
S'(\x06\x81\x95C\x9bS@'
tRp301
F0.04327082633972168
tp302
a(I1
g3
(g5
S'(\x06\x81\x95C\x9bS@'
tRp303
F0.04354095458984375
tp304
a(I1
g3
(g5
S'(\x06\x81\x95C\x9bS@'
tRp305
F0.04395294189453125
tp306
a(I1
g3
(g5
S'(\x06\x81\x95C\x9bS@'
tRp307
F5.4844110012054443
tp308
a(I1
g3
(g5
S'(\x06\x81\x95C\x9bS@'
tRp309
F0.047376871109008789
tp310
a(I1
g3
(g5
S'(\x06\x81\x95C\x9bS@'
tRp311
F0.047708988189697266
tp312
a(I1
g3
(g5
S'(\x06\x81\x95C\x9bS@'
tRp313
F0.048030853271484375
tp314
a(I1
g3
(g5
S'(\x06\x81\x95C\x9bS@'
tRp315
F0.048328876495361328
tp316
a(I1
g3
(g5
S'(\x06\x81\x95C\x9bS@'
tRp317
F5.6383979320526123
tp318
a(I1
g3
(g5
S'(\x06\x81\x95C\x9bS@'
tRp319
F0.049216032028198242
tp320
a(I1
g3
(g5
S'(\x06\x81\x95C\x9bS@'
tRp321
F0.049501895904541016
tp322
a(I1
g3
(g5
S'(\x06\x81\x95C\x9bS@'
tRp323
F0.049729824066162109
tp324
a(I1
g3
(g5
S'(\x06\x81\x95C\x9bS@'
tRp325
F0.050128936767578125
tp326
a(I1
g3
(g5
S'(\x06\x81\x95C\x9bS@'
tRp327
F6.0615100860595703
tp328
a(I1
g3
(g5
S'(\x06\x81\x95C\x9bS@'
tRp329
F0.051040887832641602
tp330
a(I1
g3
(g5
S'(\x06\x81\x95C\x9bS@'
tRp331
F0.051411151885986328
tp332
a(I1
g3
(g5
S'(\x06\x81\x95C\x9bS@'
tRp333
F0.051733016967773438
tp334
a(I1
g3
(g5
S'(\x06\x81\x95C\x9bS@'
tRp335
F0.051845073699951172
tp336
a(I1
g3
(g5
S'(\x06\x81\x95C\x9bS@'
tRp337
F6.1147189140319824
tp338
a(I1
g3
(g5
S'(\x06\x81\x95C\x9bS@'
tRp339
F0.052489042282104492
tp340
a(I1
g3
(g5
S'(\x06\x81\x95C\x9bS@'
tRp341
F0.056025028228759766
tp342
a(I1
g3
(g5
S'(\x06\x81\x95C\x9bS@'
tRp343
F0.053587913513183594
tp344
a(I1
g3
(g5
S'(\x06\x81\x95C\x9bS@'
tRp345
F0.053616046905517578
tp346
a(I1
g3
(g5
S'(\x06\x81\x95C\x9bS@'
tRp347
F6.3521091938018799
tp348
a(I1
g3
(g5
S'(\x06\x81\x95C\x9bS@'
tRp349
F0.054651975631713867
tp350
a(I1
g3
(g5
S'(\x06\x81\x95C\x9bS@'
tRp351
F0.054667949676513672
tp352
a(I1
g3
(g5
S'(\x06\x81\x95C\x9bS@'
tRp353
F0.055318832397460938
tp354
a(I1
g3
(g5
S'(\x06\x81\x95C\x9bS@'
tRp355
F0.055552005767822266
tp356
a(I1
g3
(g5
S'(\x06\x81\x95C\x9bS@'
tRp357
F6.5479438304901123
tp358
a(I1
g3
(g5
S'(\x06\x81\x95C\x9bS@'
tRp359
F0.061864137649536133
tp360
a(I1
g3
(g5
S'(\x06\x81\x95C\x9bS@'
tRp361
F0.062280893325805664
tp362
a(I1
g3
(g5
S'(\x06\x81\x95C\x9bS@'
tRp363
F0.062787055969238281
tp364
a(I1
g3
(g5
S'(\x06\x81\x95C\x9bS@'
tRp365
F0.062846899032592773
tp366
a(I1
g3
(g5
S'\xc8):\x92\xcb\x9di@'
tRp367
F6.7067899703979492
tp368
a(I1
g3
(g5
S'\xc8):\x92\xcb\x9di@'
tRp369
F0.050438880920410156
tp370
a(I1
g3
(g5
S'\xc8):\x92\xcb\x9di@'
tRp371
F0.051047086715698242
tp372
a(I1
g3
(g5
S'\xc8):\x92\xcb\x9di@'
tRp373
F0.051034927368164062
tp374
a(I1
g3
(g5
S'\xc8):\x92\xcb\x9di@'
tRp375
F0.05175018310546875
tp376
a(I1
g3
(g5
S'(\x06\x81\x95C\x9bS@'
tRp377
F7.1816871166229248
tp378
a(I1
g3
(g5
S'(\x06\x81\x95C\x9bS@'
tRp379
F0.068899869918823242
tp380
a(I1
g3
(g5
S'(\x06\x81\x95C\x9bS@'
tRp381
F0.068808078765869141
tp382
a(I1
g3
(g5
S'(\x06\x81\x95C\x9bS@'
tRp383
F0.069386959075927734
tp384
a(I1
g3
(g5
S'(\x06\x81\x95C\x9bS@'
tRp385
F0.069601058959960938
tp386
a(I1
g3
(g5
S'(\x06\x81\x95C\x9bS@'
tRp387
F7.1804111003875732
tp388
a(I1
g3
(g5
S'(\x06\x81\x95C\x9bS@'
tRp389
F0.060673952102661133
tp390
a(I1
g3
(g5
S'(\x06\x81\x95C\x9bS@'
tRp391
F0.061029911041259766
tp392
a(I1
g3
(g5
S'(\x06\x81\x95C\x9bS@'
tRp393
F0.061259984970092773
tp394
a(I1
g3
(g5
S'(\x06\x81\x95C\x9bS@'
tRp395
F0.061923027038574219
tp396
a(I1
g3
(g5
S'(\x06\x81\x95C\x9bS@'
tRp397
F7.4566380977630615
tp398
a(I1
g3
(g5
S'(\x06\x81\x95C\x9bS@'
tRp399
F0.065119028091430664
tp400
a(I1
g3
(g5
S'(\x06\x81\x95C\x9bS@'
tRp401
F0.065349102020263672
tp402
a(I1
g3
(g5
S'(\x06\x81\x95C\x9bS@'
tRp403
F0.067891836166381836
tp404
a(I1
g3
(g5
S'(\x06\x81\x95C\x9bS@'
tRp405
F0.06617283821105957
tp406
aa(lp407
(I1
g3
(g5
S'\\\x868\xd6\xc5\xa5]@'
tRp408
F0.022561073303222656
tp409
a(I1
g3
(g5
S'\xb8\xf3\xfd\xd4x\xc9U@'
tRp410
F0.044842958450317383
tp411
a(I1
g3
(g5
S'\x18\xd9\xce\xf7S\x0bR@'
tRp412
F0.048431158065795898
tp413
a(I1
g3
(g5
S'\xd8\xa3p=\n\xffZ@'
tRp414
F0.038991928100585938
tp415
a(I1
g3
(g5
S'0\xdd$\x06\x81UT@'
tRp416
F0.097125053405761719
tp417
a(I1
g3
(g5
S'\xc0\xca\xa1E\xb63M@'
tRp418
F3.4030990600585938
tp419
a(I1
g3
(g5
S'\xc0\xca\xa1E\xb63M@'
tRp420
F0.11548805236816406
tp421
a(I1
g3
(g5
S'\xc0\xca\xa1E\xb63M@'
tRp422
F0.18631100654602051
tp423
a(I1
g3
(g5
S'0\xdd$\x06\x81UT@'
tRp424
F0.13739800453186035
tp425
a(I1
g3
(g5
S'\xb0\xf3\xfd\xd4x\xe9?@'
tRp426
F0.17623019218444824
tp427
a(I1
g3
(g5
S'\xb0\xf3\xfd\xd4x\xe9?@'
tRp428
F4.2914998531341553
tp429
a(I1
g3
(g5
S' \x85\xebQ\xb8~1@'
tRp430
F0.088620901107788086
tp431
a(I1
g3
(g5
S' \x85\xebQ\xb8~1@'
tRp432
F0.082038164138793945
tp433
a(I1
g3
(g5
S' \x85\xebQ\xb8~1@'
tRp434
F0.11301207542419434
tp435
a(I1
g3
(g5
S'\x90\x18\x04V\x0e\r8@'
tRp436
F0.12880492210388184
tp437
a(I1
g3
(g5
S'\x90\x18\x04V\x0e\r8@'
tRp438
F5.4763228893280029
tp439
a(I1
g3
(g5
S'\xa0rh\x91\xed<7@'
tRp440
F0.13520216941833496
tp441
a(I1
g3
(g5
S'\xa0rh\x91\xed<7@'
tRp442
F0.15436387062072754
tp443
a(I1
g3
(g5
S'\x80Mb\x10X9\x1a@'
tRp444
F0.12235307693481445
tp445
a(I1
g3
(g5
S'\x80Mb\x10X9\x1a@'
tRp446
F0.11407089233398438
tp447
a(I1
g3
(g5
S'\x80Mb\x10X9\x1a@'
tRp448
F7.3869950771331787
tp449
a(I1
g3
(g5
S'\x80Mb\x10X9\x1a@'
tRp450
F0.16783714294433594
tp451
a(I1
g3
(g5
S'\x80Mb\x10X9\x1a@'
tRp452
F0.20874714851379395
tp453
a(I1
g3
(g5
S'\x80Mb\x10X9\x1a@'
tRp454
F0.27585601806640625
tp455
a(I1
g3
(g5
S'\x80Mb\x10X9\x1a@'
tRp456
F0.21374797821044922
tp457
a(I1
g3
(g5
S'\x80Mb\x10X9\x1a@'
tRp458
F8.286674976348877
tp459
a(I1
g3
(g5
S'\x80Mb\x10X9\x1a@'
tRp460
F0.5868070125579834
tp461
a(I1
g3
(g5
S'\x80Mb\x10X9\x1a@'
tRp462
F0.24106216430664062
tp463
a(I1
g3
(g5
S'\x80Mb\x10X9\x1a@'
tRp464
F0.25792598724365234
tp465
a(I1
g3
(g5
S'\x80Mb\x10X9\x1a@'
tRp466
F0.21602416038513184
tp467
a(I1
g3
(g5
S'\x00\xbct\x93\x18\x04\xea?'
tRp468
F8.2110409736633301
tp469
a(I1
g3
(g5
S'\x00\xbct\x93\x18\x04\xea?'
tRp470
F0.2120521068572998
tp471
a(I1
g3
(g5
S'\x00\xbct\x93\x18\x04\xea?'
tRp472
F0.10550904273986816
tp473
a(I1
g3
(g5
S'\x00\xbct\x93\x18\x04\xea?'
tRp474
F0.12423610687255859
tp475
a(I1
g3
(g5
S'\x00\xbct\x93\x18\x04\xea?'
tRp476
F0.17113614082336426
tp477
a(I1
g3
(g5
S'\x00\xbct\x93\x18\x04\xea?'
tRp478
F8.0834589004516602
tp479
a(I1
g3
(g5
S'\x00\xbct\x93\x18\x04\xea?'
tRp480
F0.2099449634552002
tp481
a(I1
g3
(g5
S'\x00\xbct\x93\x18\x04\xea?'
tRp482
F0.23744082450866699
tp483
a(I1
g3
(g5
S'\x00\x00\x00\x00\x00\x00\x00\x00'
tRp484
F0.17133092880249023
tp485
aa(lp486
(I1
g3
(g5
S'\x14\xaeG\xe1z\xc0[@'
tRp487
F0.022011041641235352
tp488
a(I1
g3
(g5
S"\x98\xef\xa7\xc6K'H@"
tRp489
F0.043687105178833008
tp490
a(I1
g3
(g5
S'P\x8d\x97n\x12\xc3F@'
tRp491
F0.05196690559387207
tp492
a(I1
g3
(g5
S'P\x8d\x97n\x12\xbbS@'
tRp493
F0.044580936431884766
tp494
a(I1
g3
(g5
S'\xb8\x1e\x85\xebQHQ@'
tRp495
F0.092650890350341797
tp496
a(I1
g3
(g5
S'\xf0\xa7\xc6K7\xd9H@'
tRp497
F3.4429600238800049
tp498
a(I1
g3
(g5
S'\xf4S\xe3\xa5\x9b\xd4T@'
tRp499
F0.090499162673950195
tp500
a(I1
g3
(g5
S'Hb\x10X9dI@'
tRp501
F0.16879415512084961
tp502
a(I1
g3
(g5
S'Hb\x10X9dI@'
tRp503
F0.22209286689758301
tp504
a(I1
g3
(g5
S'\xf0\xd2Mb\x10\xd0Q@'
tRp505
F0.17470908164978027
tp506
a(I1
g3
(g5
S'X\x0e-\xb2\x9d?M@'
tRp507
F4.6458718776702881
tp508
a(I1
g3
(g5
S'\xfc\xa9\xf1\xd2M\xc2V@'
tRp509
F0.24685907363891602
tp510
a(I1
g3
(g5
S'\xe8\xa5\x9b\xc4 0L@'
tRp511
F0.27988505363464355
tp512
a(I1
g3
(g5
S'\x9c\xc4 \xb0r\xc0R@'
tRp513
F0.48848700523376465
tp514
a(I1
g3
(g5
S'h\x10X9\xb4xB@'
tRp515
F0.99767112731933594
tp516
a(I1
g3
(g5
S'\xe8\xa5\x9b\xc4 0L@'
tRp517
F6.3119509220123291
tp518
a(I1
g3
(g5
S'\x9c\xc4 \xb0r\xc0R@'
tRp519
F1.5969240665435791
tp520
a(I1
g3
(g5
S"\x98\xef\xa7\xc6K'H@"
tRp521
F5.5805549621582031
tp522
a(I1
g3
(g5
S'p\x93\x18\x04V.K@'
tRp523
F4.3057899475097656
tp524
a(I1
g3
(g5
S'p\x93\x18\x04V.K@'
tRp525
F7.1693458557128906
tp526
a(I1
g3
(g5
S'\xe8\xa5\x9b\xc4 0L@'
tRp527
F11.624451160430908
tp528
a(I1
g3
(g5
S' \xb0rh\x91\xddA@'
tRp529
F2.1115329265594482
tp530
a(I1
g3
(g5
S'\xe8\xa5\x9b\xc4 0L@'
tRp531
F6.2471089363098145
tp532
a(I1
g3
(g5
S' \xb0rh\x91\xddA@'
tRp533
F5.309107780456543
tp534
a(I1
g3
(g5
S'\x88A`\xe5\xd0\xe2L@'
tRp535
F3.9622750282287598
tp536
a(I1
g3
(g5
S'\x98\xed|?5^G@'
tRp537
F12.111891984939575
tp538
a(I1
g3
(g5
S'\x90n\x12\x83\xc0J?@'
tRp539
F7.4373219013214111
tp540
a(I1
g3
(g5
S'p\x14\xaeG\xe1\x8aD@'
tRp541
F12.669259786605835
tp542
a(I1
g3
(g5
S'p\x14\xaeG\xe1\x8aD@'
tRp543
F2.0488200187683105
tp544
a(I1
g3
(g5
S'\xa0\xef\xa7\xc6K\x17:@'
tRp545
F3.9959909915924072
tp546
a(I1
g3
(g5
S'@5^\xbaIL0@'
tRp547
F10.357023000717163
tp548
a(I1
g3
(g5
S'\x00\x00\x00\x00\x00\x00\x00\x00'
tRp549
F0.28207802772521973
tp550
aa(lp551
(I1
g3
(g5
S'\x95\xd4\th"\x88j@'
tRp552
F0.022185087203979492
tp553
a(I1
g3
(g5
S'6\x89A`\xe5\xdcc@'
tRp554
F0.044719934463500977
tp555
a(I1
g3
(g5
S'f\xf7\xe4a\xa1:a@'
tRp556
F0.080435991287231445
tp557
a(I1
g3
(g5
S'\xc0\x17&S\x05C_@'
tRp558
F0.028653860092163086
tp559
a(I1
g3
(g5
S'\xe8\x1d\xa7\xe8H6U@'
tRp560
F0.077646017074584961
tp561
a(I1
g3
(g5
S'\x00\x00\x00\x00\x00\x00\x00\x00'
tRp562
F3.3226809501647949
tp563
aa(lp564
(I1
g3
(g5
S'\x08\xd7\xa3p=\x1aR@'
tRp565
F0.021790981292724609
tp566
a(I1
g3
(g5
S"\x00-\xb2\x9d\xefg'@"
tRp567
F0.045233011245727539
tp568
a(I1
g3
(g5
S'`\x14\xaeG\xe1\xba.@'
tRp569
F0.095607995986938477
tp570
a(I1
g3
(g5
S'`;\xdfO\x8dW;@'
tRp571
F0.067605018615722656
tp572
a(I1
g3
(g5
S'\xb0G\xe1z\x14\xae7@'
tRp573
F0.10556697845458984
tp574
a(I1
g3
(g5
S'\x00\x00\x00\x00\x00 F@'
tRp575
F3.3776249885559082
tp576
a(I1
g3
(g5
S'\x00\x00\x00\x00\x00 F@'
tRp577
F0.051573991775512695
tp578
a(I1
g3
(g5
S'03333\xf3D@'
tRp579
F0.058348178863525391
tp580
a(I1
g3
(g5
S'03333\xf3D@'
tRp581
F0.071836948394775391
tp582
a(I1
g3
(g5
S'\xc0t\x93\x18\x04F@@'
tRp583
F0.14808416366577148
tp584
a(I1
g3
(g5
S'\xc0t\x93\x18\x04F@@'
tRp585
F4.5312750339508057
tp586
a(I1
g3
(g5
S'\xd0x\xe9&1xA@'
tRp587
F0.26516485214233398
tp588
a(I1
g3
(g5
S'\xc0t\x93\x18\x04F@@'
tRp589
F0.59638404846191406
tp590
a(I1
g3
(g5
S'\xc0t\x93\x18\x04F@@'
tRp591
F0.39526510238647461
tp592
a(I1
g3
(g5
S'P\xb8\x1e\x85\xeb\x914@'
tRp593
F0.87579107284545898
tp594
a(I1
g3
(g5
S'P\xb8\x1e\x85\xeb\x914@'
tRp595
F5.7074358463287354
tp596
a(I1
g3
(g5
S'P\xb8\x1e\x85\xeb\x914@'
tRp597
F0.029013156890869141
tp598
a(I1
g3
(g5
S'P\xb8\x1e\x85\xeb\x914@'
tRp599
F0.029077053070068359
tp600
a(I1
g3
(g5
S'P\xb8\x1e\x85\xeb\x914@'
tRp601
F0.029411077499389648
tp602
a(I1
g3
(g5
S'P\xb8\x1e\x85\xeb\x914@'
tRp603
F0.029660940170288086
tp604
a(I1
g3
(g5
S'\x80\xc0\xca\xa1E\xf66@'
tRp605
F7.2176699638366699
tp606
a(I1
g3
(g5
S'\x80\xc0\xca\xa1E\xf66@'
tRp607
F0.94642806053161621
tp608
a(I1
g3
(g5
S'\x80\xc0\xca\xa1E\xf66@'
tRp609
F0.85862207412719727
tp610
a(I1
g3
(g5
S'\x80\xc0\xca\xa1E\xf66@'
tRp611
F1.4194951057434082
tp612
a(I1
g3
(g5
S'\x80\xc0\xca\xa1E\xf66@'
tRp613
F8.3452129364013672
tp614
a(I1
g3
(g5
S'\x00\x00\x00\x00\x00\x00\x00\x00'
tRp615
F8.84893798828125
tp616
aa(lp617
(I1
g3
(g5
S'i\x91\xed|?Ce@'
tRp618
F0.021976947784423828
tp619
a(I1
g3
(g5
S'\xc0\xca\xa1E\xb6\x93W@'
tRp620
F0.04507899284362793
tp621
a(I1
g3
(g5
S'T\xb8\x1e\x85\xebQQ@'
tRp622
F0.057185173034667969
tp623
a(I1
g3
(g5
S'\xe0\xa5\x9b\xc4 \x10A@'
tRp624
F0.032151937484741211
tp625
a(I1
g3
(g5
S'\x80\xe9&1\x08\xac\n@'
tRp626
F0.066673994064331055
tp627
a(I1
g3
(g5
S'\xe8?\xa4\xdf\xbe\x0eW@'
tRp628
F3.5757520198822021
tp629
a(I1
g3
(g5
S'\xe8?\xa4\xdf\xbe\x0eW@'
tRp630
F0.099293947219848633
tp631
a(I1
g3
(g5
S'\xd0\xcc\xcc\xcc\xcc\x1cD@'
tRp632
F0.10614395141601562
tp633
a(I1
g3
(g5
S'\x80\xe9&1\x08\xac\n@'
tRp634
F0.17496609687805176
tp635
a(I1
g3
(g5
S' \x02+\x87\x16\x19 @'
tRp636
F0.20090389251708984
tp637
a(I1
g3
(g5
S'\x00\xd5x\xe9&\xe1O@'
tRp638
F5.19753098487854
tp639
a(I1
g3
(g5
S'\xd8x\xe9&18D@'
tRp640
F0.37166500091552734
tp641
a(I1
g3
(g5
S'\x00\xd5x\xe9&\x11H@'
tRp642
F0.38473105430603027
tp643
a(I1
g3
(g5
S'\x80j\xbct\x938T@'
tRp644
F0.62435388565063477
tp645
a(I1
g3
(g5
S'\xe8&1\x08\xaclJ@'
tRp646
F0.89645719528198242
tp647
a(I1
g3
(g5
S'\xe8&1\x08\xac\xdcA@'
tRp648
F6.254986047744751
tp649
a(I1
g3
(g5
S'\xe8&1\x08\xac\xdcA@'
tRp650
F0.74860405921936035
tp651
a(I1
g3
(g5
S'\x00\xd5x\xe9&\x11H@'
tRp652
F0.4285888671875
tp653
a(I1
g3
(g5
S'\xe8&1\x08\xaclJ@'
tRp654
F1.6352949142456055
tp655
a(I1
g3
(g5
S'\x00\xd5x\xe9&\x11H@'
tRp656
F0.85376310348510742
tp657
a(I1
g3
(g5
S'\xc0rh\x91\xed|/@'
tRp658
F9.4550280570983887
tp659
a(I1
g3
(g5
S'\x00\xd5x\xe9&\x11H@'
tRp660
F1.4218380451202393
tp661
a(I1
g3
(g5
S'0\xdd$\x06\x81u4@'
tRp662
F3.5144050121307373
tp663
a(I1
g3
(g5
S'0\xdd$\x06\x81u4@'
tRp664
F9.7307507991790771
tp665
a(I1
g3
(g5
S'0\xdd$\x06\x81u4@'
tRp666
F7.020359992980957
tp667
a(I1
g3
(g5
S'0\xdd$\x06\x81u4@'
tRp668
F16.562262058258057
tp669
a(I1
g3
(g5
S'0\xdd$\x06\x81u4@'
tRp670
F2.2468860149383545
tp671
a(I1
g3
(g5
S'8\xb4\xc8v\xbe\xffA@'
tRp672
F18.424453020095825
tp673
a(I1
g3
(g5
S'8\xb4\xc8v\xbe\xffA@'
tRp674
F3.9777991771697998
tp675
a(I1
g3
(g5
S'P\x0c\x02+\x87\x967@'
tRp676
F3.7444748878479004
tp677
a(I1
g3
(g5
S' /\xdd$\x06A4@'
tRp678
F12.959303855895996
tp679
a(I1
g3
(g5
S' \x02+\x87\x16\x19 @'
tRp680
F7.3067240715026855
tp681
a(I1
g3
(g5
S'\x00\x00\x00\x00\x00\x00\x00\x00'
tRp682
F2.7851040363311768
tp683
aa(lp684
(I1
g3
(g5
S'\x80\x8c\xb9k\t\x17d@'
tRp685
F0.022011041641235352
tp686
a(I1
g3
(g5
S'\x80\xe9&1\x08LK@'
tRp687
F0.059236049652099609
tp688
a(I1
g3
(g5
S'x\xbe\x9f\x1a/\xc5Y@'
tRp689
F0.073987007141113281
tp690
a(I1
g3
(g5
S'<\x89A`\xe5HS@'
tRp691
F0.040459871292114258
tp692
a(I1
g3
(g5
S'hffff~U@'
tRp693
F0.031610965728759766
tp694
a(I1
g3
(g5
S'<\x89A`\xe5HS@'
tRp695
F3.1984140872955322
tp696
a(I1
g3
(g5
S'\xf8\xfd\xd4x\xe9\x9eQ@'
tRp697
F0.025213003158569336
tp698
a(I1
g3
(g5
S'\xf8\xfd\xd4x\xe9\x9eQ@'
tRp699
F0.025490045547485352
tp700
a(I1
g3
(g5
S'\x18\xd9\xce\xf7S\x83B@'
tRp701
F0.031173944473266602
tp702
a(I1
g3
(g5
S'N\x84\rO\xafvk@'
tRp703
F0.096480846405029297
tp704
a(I1
g3
(g5
S'P7\x89A`UN@'
tRp705
F3.9648089408874512
tp706
a(I1
g3
(g5
S'P7\x89A`UN@'
tRp707
F0.032243013381958008
tp708
a(I1
g3
(g5
S'h;\xdfO\x8d\x87M@'
tRp709
F0.031217098236083984
tp710
a(I1
g3
(g5
S'\x18\xaeG\xe1zDH@'
tRp711
F0.031308889389038086
tp712
a(I1
g3
(g5
S'\x14\x83\xc0\xca\xa1\xd5U@'
tRp713
F0.031953811645507812
tp714
a(I1
g3
(g5
S'\x98C\x8bl\xe7+[@'
tRp715
F3.9495220184326172
tp716
a(I1
g3
(g5
S'\xe0\xce\xf7S\xe3e;@'
tRp717
F0.036765813827514648
tp718
a(I1
g3
(g5
S'\xe0\xce\xf7S\xe3e;@'
tRp719
F0.033597230911254883
tp720
a(I1
g3
(g5
S'\xe0\xce\xf7S\xe3e;@'
tRp721
F0.032464981079101562
tp722
a(I1
g3
(g5
S'\xe0\xce\xf7S\xe3e;@'
tRp723
F0.032820940017700195
tp724
a(I1
g3
(g5
S'P7\x89A`UN@'
tRp725
F3.9173498153686523
tp726
a(I1
g3
(g5
S'P7\x89A`UN@'
tRp727
F0.036720991134643555
tp728
a(I1
g3
(g5
S'P7\x89A`UN@'
tRp729
F0.036984920501708984
tp730
a(I1
g3
(g5
S'P7\x89A`UN@'
tRp731
F0.037492990493774414
tp732
a(I1
g3
(g5
S'P7\x89A`UN@'
tRp733
F0.037846088409423828
tp734
a(I1
g3
(g5
S'P7\x89A`UN@'
tRp735
F4.1761090755462646
tp736
a(I1
g3
(g5
S'P7\x89A`UN@'
tRp737
F0.040764093399047852
tp738
a(I1
g3
(g5
S'P7\x89A`UN@'
tRp739
F0.038988113403320312
tp740
a(I1
g3
(g5
S'P7\x89A`UN@'
tRp741
F0.039227962493896484
tp742
a(I1
g3
(g5
S'P7\x89A`UN@'
tRp743
F0.039525985717773438
tp744
a(I1
g3
(g5
S'\xe0\xce\xf7S\xe3e;@'
tRp745
F4.3177862167358398
tp746
a(I1
g3
(g5
S'\xe0\xce\xf7S\xe3e;@'
tRp747
F0.038531064987182617
tp748
a(I1
g3
(g5
S'\xe0\xce\xf7S\xe3e;@'
tRp749
F0.038835048675537109
tp750
a(I1
g3
(g5
S'\xe0\xce\xf7S\xe3e;@'
tRp751
F0.039073944091796875
tp752
a(I1
g3
(g5
S'\xe0\xce\xf7S\xe3e;@'
tRp753
F0.039431095123291016
tp754
a(I1
g3
(g5
S'P7\x89A`UN@'
tRp755
F4.5752220153808594
tp756
a(I1
g3
(g5
S'P7\x89A`UN@'
tRp757
F0.04073786735534668
tp758
a(I1
g3
(g5
S'P7\x89A`UN@'
tRp759
F0.041047096252441406
tp760
a(I1
g3
(g5
S'P7\x89A`UN@'
tRp761
F0.042358160018920898
tp762
a(I1
g3
(g5
S'P7\x89A`UN@'
tRp763
F0.043721914291381836
tp764
a(I1
g3
(g5
S'\xe0\xce\xf7S\xe3e;@'
tRp765
F4.7481338977813721
tp766
a(I1
g3
(g5
S'\xe0\xce\xf7S\xe3e;@'
tRp767
F0.042881011962890625
tp768
a(I1
g3
(g5
S'\xe0\xce\xf7S\xe3e;@'
tRp769
F0.043313026428222656
tp770
a(I1
g3
(g5
S'\xe0\xce\xf7S\xe3e;@'
tRp771
F0.043475866317749023
tp772
a(I1
g3
(g5
S'\xe0\xce\xf7S\xe3e;@'
tRp773
F0.043797016143798828
tp774
a(I1
g3
(g5
S'\xe0\xce\xf7S\xe3e;@'
tRp775
F5.0235600471496582
tp776
a(I1
g3
(g5
S'\xe0\xce\xf7S\xe3e;@'
tRp777
F0.041548967361450195
tp778
a(I1
g3
(g5
S'\xe0\xce\xf7S\xe3e;@'
tRp779
F0.041810035705566406
tp780
a(I1
g3
(g5
S'\xe0\xce\xf7S\xe3e;@'
tRp781
F0.042189836502075195
tp782
a(I1
g3
(g5
S'\xe0\xce\xf7S\xe3e;@'
tRp783
F0.04242706298828125
tp784
a(I1
g3
(g5
S'N\x84\rO\xafvk@'
tRp785
F5.2120819091796875
tp786
a(I1
g3
(g5
S'N\x84\rO\xafvk@'
tRp787
F0.039333105087280273
tp788
a(I1
g3
(g5
S'N\x84\rO\xafvk@'
tRp789
F0.039732933044433594
tp790
a(I1
g3
(g5
S'N\x84\rO\xafvk@'
tRp791
F0.040019989013671875
tp792
a(I1
g3
(g5
S'N\x84\rO\xafvk@'
tRp793
F0.04031682014465332
tp794
a(I1
g3
(g5
S'\xe0\xce\xf7S\xe3e;@'
tRp795
F5.4242761135101318
tp796
a(I1
g3
(g5
S'\xe0\xce\xf7S\xe3e;@'
tRp797
F0.045691013336181641
tp798
a(I1
g3
(g5
S'\xe0\xce\xf7S\xe3e;@'
tRp799
F0.045948028564453125
tp800
a(I1
g3
(g5
S'\xe0\xce\xf7S\xe3e;@'
tRp801
F0.046423196792602539
tp802
a(I1
g3
(g5
S'\xe0\xce\xf7S\xe3e;@'
tRp803
F0.046795845031738281
tp804
a(I1
g3
(g5
S'\xe0\xce\xf7S\xe3e;@'
tRp805
F5.6582047939300537
tp806
a(I1
g3
(g5
S'\xe0\xce\xf7S\xe3e;@'
tRp807
F0.046578884124755859
tp808
a(I1
g3
(g5
S'\xe0\xce\xf7S\xe3e;@'
tRp809
F0.047112941741943359
tp810
a(I1
g3
(g5
S'\xe0\xce\xf7S\xe3e;@'
tRp811
F0.047397851943969727
tp812
a(I1
g3
(g5
S'\xe0\xce\xf7S\xe3e;@'
tRp813
F0.047942876815795898
tp814
a(I1
g3
(g5
S'\xe0\xce\xf7S\xe3e;@'
tRp815
F6.0580770969390869
tp816
a(I1
g3
(g5
S'\xe0\xce\xf7S\xe3e;@'
tRp817
F0.049900054931640625
tp818
a(I1
g3
(g5
S'\xe0\xce\xf7S\xe3e;@'
tRp819
F0.050056934356689453
tp820
a(I1
g3
(g5
S'\xe0\xce\xf7S\xe3e;@'
tRp821
F0.050457000732421875
tp822
a(I1
g3
(g5
S'\xe0\xce\xf7S\xe3e;@'
tRp823
F0.050927877426147461
tp824
a(I1
g3
(g5
S'\xe0\xce\xf7S\xe3e;@'
tRp825
F6.128087043762207
tp826
a(I1
g3
(g5
S'\xe0\xce\xf7S\xe3e;@'
tRp827
F0.053307056427001953
tp828
a(I1
g3
(g5
S'\xe0\xce\xf7S\xe3e;@'
tRp829
F0.055605173110961914
tp830
a(I1
g3
(g5
S'\xe0\xce\xf7S\xe3e;@'
tRp831
F0.054134845733642578
tp832
a(I1
g3
(g5
S'\xe0\xce\xf7S\xe3e;@'
tRp833
F0.054259061813354492
tp834
a(I1
g3
(g5
S'N\x84\rO\xafvk@'
tRp835
F6.3700699806213379
tp836
a(I1
g3
(g5
S'N\x84\rO\xafvk@'
tRp837
F0.048389911651611328
tp838
a(I1
g3
(g5
S'N\x84\rO\xafvk@'
tRp839
F0.04887700080871582
tp840
a(I1
g3
(g5
S'N\x84\rO\xafvk@'
tRp841
F0.049042940139770508
tp842
a(I1
g3
(g5
S'N\x84\rO\xafvk@'
tRp843
F0.050601005554199219
tp844
a(I1
g3
(g5
S'\xe0\xce\xf7S\xe3e;@'
tRp845
F6.5034711360931396
tp846
a(I1
g3
(g5
S'\xe0\xce\xf7S\xe3e;@'
tRp847
F0.055306911468505859
tp848
a(I1
g3
(g5
S'\xe0\xce\xf7S\xe3e;@'
tRp849
F0.055481910705566406
tp850
a(I1
g3
(g5
S'\xe0\xce\xf7S\xe3e;@'
tRp851
F0.056176900863647461
tp852
a(I1
g3
(g5
S'\xe0\xce\xf7S\xe3e;@'
tRp853
F0.056438922882080078
tp854
a(I1
g3
(g5
S'\xe0\xce\xf7S\xe3e;@'
tRp855
F6.7305209636688232
tp856
a(I1
g3
(g5
S'\xe0\xce\xf7S\xe3e;@'
tRp857
F0.05849909782409668
tp858
a(I1
g3
(g5
S'\xe0\xce\xf7S\xe3e;@'
tRp859
F0.057576179504394531
tp860
a(I1
g3
(g5
S'\xe0\xce\xf7S\xe3e;@'
tRp861
F0.05748295783996582
tp862
a(I1
g3
(g5
S'\xe0\xce\xf7S\xe3e;@'
tRp863
F0.058021068572998047
tp864
a(I1
g3
(g5
S'\xe0\xce\xf7S\xe3e;@'
tRp865
F6.9378628730773926
tp866
a(I1
g3
(g5
S'\xe0\xce\xf7S\xe3e;@'
tRp867
F0.058552026748657227
tp868
a(I1
g3
(g5
S'\xe0\xce\xf7S\xe3e;@'
tRp869
F0.058815956115722656
tp870
a(I1
g3
(g5
S'\xe0\xce\xf7S\xe3e;@'
tRp871
F0.059463024139404297
tp872
a(I1
g3
(g5
S'\xe0\xce\xf7S\xe3e;@'
tRp873
F0.060079813003540039
tp874
a(I1
g3
(g5
S'\xe0\xce\xf7S\xe3e;@'
tRp875
F7.1765501499176025
tp876
a(I1
g3
(g5
S'\xe0\xce\xf7S\xe3e;@'
tRp877
F0.061996936798095703
tp878
a(I1
g3
(g5
S'\xe0\xce\xf7S\xe3e;@'
tRp879
F0.061090946197509766
tp880
a(I1
g3
(g5
S'\xe0\xce\xf7S\xe3e;@'
tRp881
F0.062523126602172852
tp882
a(I1
g3
(g5
S'\xe0\xce\xf7S\xe3e;@'
tRp883
F0.062662839889526367
tp884
aa(lp885
(I1
g3
(g5
S'\xb8\xf3\xfd\xd4x\xdda@'
tRp886
F0.022009134292602539
tp887
a(I1
g3
(g5
S'\xc2\xca\xa1E\xb6#b@'
tRp888
F0.041944980621337891
tp889
a(I1
g3
(g5
S'd\x10X9\xb4\x0cb@'
tRp890
F0.08314204216003418
tp891
a(I1
g3
(g5
S'<\xb4\xc8v\xbe\xe7Y@'
tRp892
F0.028866052627563477
tp893
a(I1
g3
(g5
S'H\xb6\xf3\xfd\xd4\x00R@'
tRp894
F0.067022085189819336
tp895
a(I1
g3
(g5
S' \x04V\x0e-bN@'
tRp896
F3.366854190826416
tp897
a(I1
g3
(g5
S'\xb0\x1cZd;o@@'
tRp898
F0.026340007781982422
tp899
a(I1
g3
(g5
S' \x04V\x0e-bN@'
tRp900
F0.025413990020751953
tp901
a(I1
g3
(g5
S' \x04V\x0e-bN@'
tRp902
F0.063781976699829102
tp903
a(I1
g3
(g5
S' \x04V\x0e-bN@'
tRp904
F0.040627002716064453
tp905
a(I1
g3
(g5
S'\xa8\x9b\xc4 \xb0bF@'
tRp906
F3.4684219360351562
tp907
a(I1
g3
(g5
S'\xa8\x9b\xc4 \xb0bF@'
tRp908
F0.078593015670776367
tp909
a(I1
g3
(g5
S'\xa8\x9b\xc4 \xb0bF@'
tRp910
F0.10504698753356934
tp911
a(I1
g3
(g5
S'H\x0c\x02+\x87vN@'
tRp912
F0.093147039413452148
tp913
a(I1
g3
(g5
S'ph\x91\xed|\xdf0@'
tRp914
F0.10646605491638184
tp915
a(I1
g3
(g5
S'ph\x91\xed|\xdf0@'
tRp916
F4.2760779857635498
tp917
a(I1
g3
(g5
S'ph\x91\xed|\xdf0@'
tRp918
F0.49369502067565918
tp919
a(I1
g3
(g5
S'ph\x91\xed|\xdf0@'
tRp920
F0.5906989574432373
tp921
a(I1
g3
(g5
S'ph\x91\xed|\xdf0@'
tRp922
F0.40520191192626953
tp923
a(I1
g3
(g5
S'ph\x91\xed|\xdf0@'
tRp924
F1.3366029262542725
tp925
a(I1
g3
(g5
S'ph\x91\xed|\xdf0@'
tRp926
F6.3185780048370361
tp927
a(I1
g3
(g5
S'ph\x91\xed|\xdf0@'
tRp928
F0.035995960235595703
tp929
a(I1
g3
(g5
S'ph\x91\xed|\xdf0@'
tRp930
F0.036260843276977539
tp931
a(I1
g3
(g5
S'ph\x91\xed|\xdf0@'
tRp932
F0.036597967147827148
tp933
a(I1
g3
(g5
S'ph\x91\xed|\xdf0@'
tRp934
F0.036844968795776367
tp935
a(I1
g3
(g5
S'ph\x91\xed|\xdf0@'
tRp936
F4.8637919425964355
tp937
a(I1
g3
(g5
S'ph\x91\xed|\xdf0@'
tRp938
F0.035008907318115234
tp939
a(I1
g3
(g5
S'ph\x91\xed|\xdf0@'
tRp940
F0.035427093505859375
tp941
a(I1
g3
(g5
S'ph\x91\xed|\xdf0@'
tRp942
F0.035633087158203125
tp943
a(I1
g3
(g5
S'ph\x91\xed|\xdf0@'
tRp944
F0.036120891571044922
tp945
a(I1
g3
(g5
S'ph\x91\xed|\xdf0@'
tRp946
F4.4454638957977295
tp947
a(I1
g3
(g5
S'ph\x91\xed|\xdf0@'
tRp948
F0.039534807205200195
tp949
a(I1
g3
(g5
S'ph\x91\xed|\xdf0@'
tRp950
F0.039901018142700195
tp951
a(I1
g3
(g5
S'ph\x91\xed|\xdf0@'
tRp952
F0.0402069091796875
tp953
a(I1
g3
(g5
S'ph\x91\xed|\xdf0@'
tRp954
F0.040688991546630859
tp955
a(I1
g3
(g5
S'ph\x91\xed|\xdf0@'
tRp956
F4.6222741603851318
tp957
a(I1
g3
(g5
S'ph\x91\xed|\xdf0@'
tRp958
F0.038780927658081055
tp959
a(I1
g3
(g5
S'ph\x91\xed|\xdf0@'
tRp960
F0.039093017578125
tp961
a(I1
g3
(g5
S'ph\x91\xed|\xdf0@'
tRp962
F0.039537906646728516
tp963
a(I1
g3
(g5
S'ph\x91\xed|\xdf0@'
tRp964
F0.039696931838989258
tp965
a(I1
g3
(g5
S'ph\x91\xed|\xdf0@'
tRp966
F4.8663179874420166
tp967
a(I1
g3
(g5
S'ph\x91\xed|\xdf0@'
tRp968
F0.040303945541381836
tp969
a(I1
g3
(g5
S'ph\x91\xed|\xdf0@'
tRp970
F0.040586948394775391
tp971
a(I1
g3
(g5
S'ph\x91\xed|\xdf0@'
tRp972
F0.040760040283203125
tp973
a(I1
g3
(g5
S'ph\x91\xed|\xdf0@'
tRp974
F0.041332006454467773
tp975
a(I1
g3
(g5
S'ph\x91\xed|\xdf0@'
tRp976
F5.0297539234161377
tp977
a(I1
g3
(g5
S'ph\x91\xed|\xdf0@'
tRp978
F0.042877912521362305
tp979
a(I1
g3
(g5
S'ph\x91\xed|\xdf0@'
tRp980
F0.043079853057861328
tp981
a(I1
g3
(g5
S'ph\x91\xed|\xdf0@'
tRp982
F0.043498039245605469
tp983
a(I1
g3
(g5
S'ph\x91\xed|\xdf0@'
tRp984
F0.043713092803955078
tp985
a(I1
g3
(g5
S'ph\x91\xed|\xdf0@'
tRp986
F5.2290749549865723
tp987
a(I1
g3
(g5
S'ph\x91\xed|\xdf0@'
tRp988
F0.044651031494140625
tp989
a(I1
g3
(g5
S'ph\x91\xed|\xdf0@'
tRp990
F0.045128107070922852
tp991
a(I1
g3
(g5
S'ph\x91\xed|\xdf0@'
tRp992
F0.04714202880859375
tp993
a(I1
g3
(g5
S'ph\x91\xed|\xdf0@'
tRp994
F0.045709133148193359
tp995
a(I1
g3
(g5
S'ph\x91\xed|\xdf0@'
tRp996
F5.4734880924224854
tp997
a(I1
g3
(g5
S'ph\x91\xed|\xdf0@'
tRp998
F0.046241998672485352
tp999
a(I1
g3
(g5
S'ph\x91\xed|\xdf0@'
tRp1000
F0.046576023101806641
tp1001
a(I1
g3
(g5
S'ph\x91\xed|\xdf0@'
tRp1002
F0.047192096710205078
tp1003
a(I1
g3
(g5
S'ph\x91\xed|\xdf0@'
tRp1004
F0.047001123428344727
tp1005
a(I1
g3
(g5
S'ph\x91\xed|\xdf0@'
tRp1006
F5.6840329170227051
tp1007
a(I1
g3
(g5
S'ph\x91\xed|\xdf0@'
tRp1008
F0.049431800842285156
tp1009
a(I1
g3
(g5
S'ph\x91\xed|\xdf0@'
tRp1010
F0.047994852066040039
tp1011
a(I1
g3
(g5
S'ph\x91\xed|\xdf0@'
tRp1012
F0.048382997512817383
tp1013
a(I1
g3
(g5
S'ph\x91\xed|\xdf0@'
tRp1014
F0.048523902893066406
tp1015
a(I1
g3
(g5
S'\xf4\xfd\xd4x\xe9\x82g@'
tRp1016
F5.8742489814758301
tp1017
a(I1
g3
(g5
S'\xf4\xfd\xd4x\xe9\x82g@'
tRp1018
F0.044885873794555664
tp1019
a(I1
g3
(g5
S'\xf4\xfd\xd4x\xe9\x82g@'
tRp1020
F0.045315027236938477
tp1021
a(I1
g3
(g5
S'\xf4\xfd\xd4x\xe9\x82g@'
tRp1022
F0.045569181442260742
tp1023
a(I1
g3
(g5
S'\xf4\xfd\xd4x\xe9\x82g@'
tRp1024
F0.045879125595092773
tp1025
a(I1
g3
(g5
S'\xf4\xfd\xd4x\xe9\x82g@'
tRp1026
F6.3195269107818604
tp1027
a(I1
g3
(g5
S'\xf4\xfd\xd4x\xe9\x82g@'
tRp1028
F0.046618938446044922
tp1029
a(I1
g3
(g5
S'\xf4\xfd\xd4x\xe9\x82g@'
tRp1030
F0.047064065933227539
tp1031
a(I1
g3
(g5
S'\xf4\xfd\xd4x\xe9\x82g@'
tRp1032
F0.049184799194335938
tp1033
a(I1
g3
(g5
S'\xf4\xfd\xd4x\xe9\x82g@'
tRp1034
F0.04784393310546875
tp1035
a(I1
g3
(g5
S'\xf4\xfd\xd4x\xe9\x82g@'
tRp1036
F6.3485829830169678
tp1037
a(I1
g3
(g5
S'\xf4\xfd\xd4x\xe9\x82g@'
tRp1038
F0.048550128936767578
tp1039
a(I1
g3
(g5
S'\xf4\xfd\xd4x\xe9\x82g@'
tRp1040
F0.050648927688598633
tp1041
a(I1
g3
(g5
S'\xf4\xfd\xd4x\xe9\x82g@'
tRp1042
F0.048985004425048828
tp1043
a(I1
g3
(g5
S'\xf4\xfd\xd4x\xe9\x82g@'
tRp1044
F0.050405025482177734
tp1045
a(I1
g3
(g5
S'\xf4\xfd\xd4x\xe9\x82g@'
tRp1046
F6.5738110542297363
tp1047
a(I1
g3
(g5
S'\xf4\xfd\xd4x\xe9\x82g@'
tRp1048
F0.050324916839599609
tp1049
a(I1
g3
(g5
S'\xf4\xfd\xd4x\xe9\x82g@'
tRp1050
F0.050261020660400391
tp1051
a(I1
g3
(g5
S'\xf4\xfd\xd4x\xe9\x82g@'
tRp1052
F0.050778865814208984
tp1053
a(I1
g3
(g5
S'\xf4\xfd\xd4x\xe9\x82g@'
tRp1054
F0.050956010818481445
tp1055
a(I1
g3
(g5
S'\xf4\xfd\xd4x\xe9\x82g@'
tRp1056
F6.7653110027313232
tp1057
a(I1
g3
(g5
S'\xf4\xfd\xd4x\xe9\x82g@'
tRp1058
F0.053557157516479492
tp1059
a(I1
g3
(g5
S'\xf4\xfd\xd4x\xe9\x82g@'
tRp1060
F0.052266120910644531
tp1061
a(I1
g3
(g5
S'\xf4\xfd\xd4x\xe9\x82g@'
tRp1062
F0.05265498161315918
tp1063
a(I1
g3
(g5
S'\xf4\xfd\xd4x\xe9\x82g@'
tRp1064
F0.05260014533996582
tp1065
a(I1
g3
(g5
S'\xf4\xfd\xd4x\xe9\x82g@'
tRp1066
F6.9488627910614014
tp1067
a(I1
g3
(g5
S'\xf4\xfd\xd4x\xe9\x82g@'
tRp1068
F0.055387020111083984
tp1069
a(I1
g3
(g5
S'\xf4\xfd\xd4x\xe9\x82g@'
tRp1070
F0.053972005844116211
tp1071
a(I1
g3
(g5
S'\xf4\xfd\xd4x\xe9\x82g@'
tRp1072
F0.054525136947631836
tp1073
a(I1
g3
(g5
S'\xf4\xfd\xd4x\xe9\x82g@'
tRp1074
F0.056019067764282227
tp1075
a(I1
g3
(g5
S'\xf4\xfd\xd4x\xe9\x82g@'
tRp1076
F7.2737348079681396
tp1077
a(I1
g3
(g5
S'\xf4\xfd\xd4x\xe9\x82g@'
tRp1078
F0.05495905876159668
tp1079
a(I1
g3
(g5
S'\xf4\xfd\xd4x\xe9\x82g@'
tRp1080
F0.056331872940063477
tp1081
a(I1
g3
(g5
S'\xf4\xfd\xd4x\xe9\x82g@'
tRp1082
F0.056272983551025391
tp1083
a(I1
g3
(g5
S'\xf4\xfd\xd4x\xe9\x82g@'
tRp1084
F0.057532072067260742
tp1085
aa(lp1086
(I1
g3
(g5
S'\x8aA`\xe5\xd0\x8aj@'
tRp1087
F0.021826982498168945
tp1088
a(I1
g3
(g5
S'^\x8f\xc2\xf5(\xf8a@'
tRp1089
F0.052656888961791992
tp1090
a(I1
g3
(g5
S'\x14\x83\xc0\xca\xa1\xbd\\@'
tRp1091
F0.059141159057617188
tp1092
a(I1
g3
(g5
S'\xe8\xd0"\xdb\xf9NN@'
tRp1093
F0.031646013259887695
tp1094
a(I1
g3
(g5
S'\xa8\xc4 \xb0r8D@'
tRp1095
F0.069211006164550781
tp1096
a(I1
g3
(g5
S'\xa8\xc4 \xb0r8D@'
tRp1097
F3.5569639205932617
tp1098
a(I1
g3
(g5
S'\xccv\xbe\x9f\x1a\xf7_@'
tRp1099
F0.088490009307861328
tp1100
a(I1
g3
(g5
S'\xa8\xc4 \xb0r8D@'
tRp1101
F0.098042964935302734
tp1102
a(I1
g3
(g5
S'\xa8\xc4 \xb0r8D@'
tRp1103
F0.049956083297729492
tp1104
a(I1
g3
(g5
S'\xd4\xf7S\xe3\xa5kS@'
tRp1105
F0.064883947372436523
tp1106
a(I1
g3
(g5
S'\x08\xac\x1cZd\x0bC@'
tRp1107
F3.5209939479827881
tp1108
a(I1
g3
(g5
S'\x00B`\xe5\xd0"\xeb?'
tRp1109
F0.081382036209106445
tp1110
a(I1
g3
(g5
S'\x00B`\xe5\xd0"\xeb?'
tRp1111
F0.082079887390136719
tp1112
a(I1
g3
(g5
S'\x00B`\xe5\xd0"\xeb?'
tRp1113
F0.087924957275390625
tp1114
a(I1
g3
(g5
S'\x00B`\xe5\xd0"\xeb?'
tRp1115
F0.093224048614501953
tp1116
a(I1
g3
(g5
S'\x00B`\xe5\xd0"\xeb?'
tRp1117
F4.242685079574585
tp1118
a(I1
g3
(g5
S'\x00B`\xe5\xd0"\xeb?'
tRp1119
F0.089901208877563477
tp1120
a(I1
g3
(g5
S'\x00B`\xe5\xd0"\xeb?'
tRp1121
F0.22878909111022949
tp1122
a(I1
g3
(g5
S'\x00B`\xe5\xd0"\xeb?'
tRp1123
F0.25118112564086914
tp1124
a(I1
g3
(g5
S'\x00B`\xe5\xd0"\xeb?'
tRp1125
F0.20532989501953125
tp1126
a(I1
g3
(g5
S'\xe4\xa5\x9b\xc4 \xf8R@'
tRp1127
F6.1629250049591064
tp1128
a(I1
g3
(g5
S'\x00B`\xe5\xd0"\xeb?'
tRp1129
F0.11848807334899902
tp1130
a(I1
g3
(g5
S'\x00B`\xe5\xd0"\xeb?'
tRp1131
F0.11579394340515137
tp1132
a(I1
g3
(g5
S'\xc0rh\x91\xed\xfc\x13@'
tRp1133
F0.11076188087463379
tp1134
a(I1
g3
(g5
S'\xc0rh\x91\xed\xfc\x13@'
tRp1135
F0.088241100311279297
tp1136
a(I1
g3
(g5
S'\x00B`\xe5\xd0"\xeb?'
tRp1137
F7.2773189544677734
tp1138
a(I1
g3
(g5
S'\xc0rh\x91\xed\xfc\x13@'
tRp1139
F0.1493217945098877
tp1140
a(I1
g3
(g5
S'\xc0rh\x91\xed\xfc\x13@'
tRp1141
F0.30507421493530273
tp1142
a(I1
g3
(g5
S'\xc0rh\x91\xed\xfc\x13@'
tRp1143
F0.20741891860961914
tp1144
a(I1
g3
(g5
S'\xc0rh\x91\xed\xfc\x13@'
tRp1145
F0.27710700035095215
tp1146
a(I1
g3
(g5
S'\x00B`\xe5\xd0"\xeb?'
tRp1147
F7.8592119216918945
tp1148
a(I1
g3
(g5
S'\x00B`\xe5\xd0"\xeb?'
tRp1149
F0.38836002349853516
tp1150
a(I1
g3
(g5
S'\xc0rh\x91\xed\xfc\x13@'
tRp1151
F0.13642287254333496
tp1152
a(I1
g3
(g5
S'\xc0rh\x91\xed\xfc\x13@'
tRp1153
F0.17507100105285645
tp1154
a(I1
g3
(g5
S'@\x9e\xef\xa7\xc6\xcb\x13@'
tRp1155
F0.14522290229797363
tp1156
a(I1
g3
(g5
S'@\x9e\xef\xa7\xc6\xcb\x13@'
tRp1157
F8.0971589088439941
tp1158
a(I1
g3
(g5
S'@\x9e\xef\xa7\xc6\xcb\x13@'
tRp1159
F0.18211007118225098
tp1160
a(I1
g3
(g5
S'@\x9e\xef\xa7\xc6\xcb\x13@'
tRp1161
F0.25718998908996582
tp1162
a(I1
g3
(g5
S'@\x9e\xef\xa7\xc6\xcb\x13@'
tRp1163
F1.1465208530426025
tp1164
a(I1
g3
(g5
S'\x00B`\xe5\xd0"\xeb?'
tRp1165
F1.1421918869018555
tp1166
a(I1
g3
(g5
S'\x00B`\xe5\xd0"\xeb?'
tRp1167
F8.3468899726867676
tp1168
a(I1
g3
(g5
S'\x00B`\xe5\xd0"\xeb?'
tRp1169
F0.15842199325561523
tp1170
a(I1
g3
(g5
S'\x00B`\xe5\xd0"\xeb?'
tRp1171
F0.15397810935974121
tp1172
a(I1
g3
(g5
S'\x00B`\xe5\xd0"\xeb?'
tRp1173
F0.17072606086730957
tp1174
a(I1
g3
(g5
S'\x00B`\xe5\xd0"\xeb?'
tRp1175
F0.18264293670654297
tp1176
a(I1
g3
(g5
S'\x00B`\xe5\xd0"\xeb?'
tRp1177
F8.0010590553283691
tp1178
a(I1
g3
(g5
S'\x00\x00\x00\x00\x00\x00\x00\x00'
tRp1179
F0.11313581466674805
tp1180
aa(lp1181
(I1
g3
(g5
S'\x82\x95C\x8blkd@'
tRp1182
F0.022188901901245117
tp1183
a(I1
g3
(g5
S'e;\xdfO\x8d\xa3d@'
tRp1184
F0.045847892761230469
tp1185
a(I1
g3
(g5
S'\xbet\x93\x18\x046Y@'
tRp1186
F0.055847883224487305
tp1187
a(I1
g3
(g5
S'\x8el\xe7\xfb\xa9\xe9U@'
tRp1188
F0.03242802619934082
tp1189
a(I1
g3
(g5
S'03333#O@'
tRp1190
F0.068047046661376953
tp1191
a(I1
g3
(g5
S'\xaa\xf1\xd2Mb\x18U@'
tRp1192
F3.5847630500793457
tp1193
a(I1
g3
(g5
S'\xaa\xf1\xd2Mb\x18U@'
tRp1194
F0.10159707069396973
tp1195
a(I1
g3
(g5
S'(\\\x8f\xc2\xf5PS@'
tRp1196
F0.11401009559631348
tp1197
a(I1
g3
(g5
S'03333#O@'
tRp1198
F0.17755007743835449
tp1199
a(I1
g3
(g5
S'(\\\x8f\xc2\xf5PS@'
tRp1200
F0.20698308944702148
tp1201
a(I1
g3
(g5
S'0\xb2\x9d\xef\xa7\x16O@'
tRp1202
F4.7823290824890137
tp1203
a(I1
g3
(g5
S'0\xb2\x9d\xef\xa7\x16O@'
tRp1204
F0.25305509567260742
tp1205
a(I1
g3
(g5
S'b\xe5\xd0"\xdb\xe9X@'
tRp1206
F0.21646595001220703
tp1207
a(I1
g3
(g5
S'b\xe5\xd0"\xdb\xe9X@'
tRp1208
F0.08510589599609375
tp1209
a(I1
g3
(g5
S'b\xe5\xd0"\xdb\xe9X@'
tRp1210
F0.089730024337768555
tp1211
a(I1
g3
(g5
S'b\xe5\xd0"\xdb\xe9X@'
tRp1212
F6.5753819942474365
tp1213
a(I1
g3
(g5
S'b\xe5\xd0"\xdb\xe9X@'
tRp1214
F0.11349201202392578
tp1215
a(I1
g3
(g5
S'b\xe5\xd0"\xdb\xe9X@'
tRp1216
F0.11182498931884766
tp1217
a(I1
g3
(g5
S'b\xe5\xd0"\xdb\xe9X@'
tRp1218
F0.13497090339660645
tp1219
a(I1
g3
(g5
S'b\xe5\xd0"\xdb\xe9X@'
tRp1220
F0.094508886337280273
tp1221
a(I1
g3
(g5
S'b\xe5\xd0"\xdb\xe9X@'
tRp1222
F6.482029914855957
tp1223
a(I1
g3
(g5
S'b\xe5\xd0"\xdb\xe9X@'
tRp1224
F0.10140299797058105
tp1225
a(I1
g3
(g5
S'b\xe5\xd0"\xdb\xe9X@'
tRp1226
F0.10985708236694336
tp1227
a(I1
g3
(g5
S'b\xe5\xd0"\xdb\xe9X@'
tRp1228
F0.089463949203491211
tp1229
a(I1
g3
(g5
S'b\xe5\xd0"\xdb\xe9X@'
tRp1230
F0.086924076080322266
tp1231
a(I1
g3
(g5
S'\x00\x7fj\xbctcL@'
tRp1232
F6.5993721485137939
tp1233
a(I1
g3
(g5
S'\x00\x7fj\xbctcL@'
tRp1234
F0.14354991912841797
tp1235
a(I1
g3
(g5
S'\x00\x7fj\xbctcL@'
tRp1236
F0.13324403762817383
tp1237
a(I1
g3
(g5
S'\x00\x7fj\xbctcL@'
tRp1238
F0.10273599624633789
tp1239
a(I1
g3
(g5
S'\xbcI\x0c\x02+\x1fP@'
tRp1240
F0.1214439868927002
tp1241
a(I1
g3
(g5
S'\xbcI\x0c\x02+\x1fP@'
tRp1242
F7.3265080451965332
tp1243
a(I1
g3
(g5
S'\xbcI\x0c\x02+\x1fP@'
tRp1244
F0.093724966049194336
tp1245
a(I1
g3
(g5
S'\xbcI\x0c\x02+\x1fP@'
tRp1246
F0.09997105598449707
tp1247
a(I1
g3
(g5
S'\xbcI\x0c\x02+\x1fP@'
tRp1248
F0.1523749828338623
tp1249
a(I1
g3
(g5
S'\xbcI\x0c\x02+\x1fP@'
tRp1250
F0.1396172046661377
tp1251
a(I1
g3
(g5
S'\x00\x7fj\xbctcL@'
tRp1252
F7.6588020324707031
tp1253
a(I1
g3
(g5
S'\x00\x7fj\xbctcL@'
tRp1254
F0.25577998161315918
tp1255
a(I1
g3
(g5
S'\x00\x7fj\xbctcL@'
tRp1256
F0.22355794906616211
tp1257
a(I1
g3
(g5
S'\x00\x7fj\xbctcL@'
tRp1258
F0.22044801712036133
tp1259
a(I1
g3
(g5
S'\x00\x7fj\xbctcL@'
tRp1260
F0.15345382690429688
tp1261
a(I1
g3
(g5
S'\x00\x7fj\xbctcL@'
tRp1262
F6.554286003112793
tp1263
a(I1
g3
(g5
S'\x00\x7fj\xbctcL@'
tRp1264
F0.14968490600585938
tp1265
a(I1
g3
(g5
S'\x00\x7fj\xbctcL@'
tRp1266
F0.14153718948364258
tp1267
a(I1
g3
(g5
S'\x00\x7fj\xbctcL@'
tRp1268
F0.13339495658874512
tp1269
a(I1
g3
(g5
S'\x00\x7fj\xbctcL@'
tRp1270
F0.13910102844238281
tp1271
a(I1
g3
(g5
S'0\xb2\x9d\xef\xa7\x16O@'
tRp1272
F7.0508019924163818
tp1273
a(I1
g3
(g5
S'0\xb2\x9d\xef\xa7\x16O@'
tRp1274
F0.2111210823059082
tp1275
a(I1
g3
(g5
S'0\xb2\x9d\xef\xa7\x16O@'
tRp1276
F0.21013689041137695
tp1277
a(I1
g3
(g5
S'0\xb2\x9d\xef\xa7\x16O@'
tRp1278
F0.21254396438598633
tp1279
a(I1
g3
(g5
S'0\xb2\x9d\xef\xa7\x16O@'
tRp1280
F0.2039639949798584
tp1281
a(I1
g3
(g5
S'0\xb2\x9d\xef\xa7\x16O@'
tRp1282
F7.2512261867523193
tp1283
a(I1
g3
(g5
S'0\xb2\x9d\xef\xa7\x16O@'
tRp1284
F0.2200629711151123
tp1285
a(I1
g3
(g5
S'0\xb2\x9d\xef\xa7\x16O@'
tRp1286
F0.17823600769042969
tp1287
a(I1
g3
(g5
S'0\xb2\x9d\xef\xa7\x16O@'
tRp1288
F0.19657492637634277
tp1289
a(I1
g3
(g5
S'0\xb2\x9d\xef\xa7\x16O@'
tRp1290
F0.19956207275390625
tp1291
a(I1
g3
(g5
S'0\xb2\x9d\xef\xa7\x16O@'
tRp1292
F8.1141078472137451
tp1293
a(I1
g3
(g5
S'0\xb2\x9d\xef\xa7\x16O@'
tRp1294
F0.17395806312561035
tp1295
a(I1
g3
(g5
S'0\xb2\x9d\xef\xa7\x16O@'
tRp1296
F0.17571496963500977
tp1297
a(I1
g3
(g5
S'0\xb2\x9d\xef\xa7\x16O@'
tRp1298
F0.1768190860748291
tp1299
a(I1
g3
(g5
S'0\xb2\x9d\xef\xa7\x16O@'
tRp1300
F0.17489910125732422
tp1301
a(I1
g3
(g5
S'0\xb2\x9d\xef\xa7\x16O@'
tRp1302
F8.3443338871002197
tp1303
a(I1
g3
(g5
S'0\xb2\x9d\xef\xa7\x16O@'
tRp1304
F0.18753719329833984
tp1305
a(I1
g3
(g5
S'0\xb2\x9d\xef\xa7\x16O@'
tRp1306
F0.18860507011413574
tp1307
a(I1
g3
(g5
S'0\xb2\x9d\xef\xa7\x16O@'
tRp1308
F0.19289398193359375
tp1309
a(I1
g3
(g5
S'0\xb2\x9d\xef\xa7\x16O@'
tRp1310
F0.19618701934814453
tp1311
a(I1
g3
(g5
S'0\xb2\x9d\xef\xa7\x16O@'
tRp1312
F8.5585541725158691
tp1313
a(I1
g3
(g5
S'\x00\x7fj\xbctcL@'
tRp1314
F0.18544888496398926
tp1315
a(I1
g3
(g5
S'\x00\x7fj\xbctcL@'
tRp1316
F0.18525600433349609
tp1317
a(I1
g3
(g5
S'\x00\x7fj\xbctcL@'
tRp1318
F0.18104696273803711
tp1319
a(I1
g3
(g5
S'\x00\x7fj\xbctcL@'
tRp1320
F0.17727398872375488
tp1321
a(I1
g3
(g5
S'\x00\x7fj\xbctcL@'
tRp1322
F8.7427489757537842
tp1323
a(I1
g3
(g5
S'\x00\x7fj\xbctcL@'
tRp1324
F0.18246293067932129
tp1325
a(I1
g3
(g5
S'\x00\x7fj\xbctcL@'
tRp1326
F0.18362188339233398
tp1327
a(I1
g3
(g5
S'\x00\x7fj\xbctcL@'
tRp1328
F0.19173192977905273
tp1329
a(I1
g3
(g5
S'\x00\x7fj\xbctcL@'
tRp1330
F0.20355987548828125
tp1331
a(I1
g3
(g5
S'\x80\xc0\xca\xa1E\x16<@'
tRp1332
F8.9675209522247314
tp1333
a(I1
g3
(g5
S'\x80\xc0\xca\xa1E\x16<@'
tRp1334
F0.22159981727600098
tp1335
a(I1
g3
(g5
S'\x80\xc0\xca\xa1E\x16<@'
tRp1336
F0.22418022155761719
tp1337
a(I1
g3
(g5
S'\x80\xc0\xca\xa1E\x16<@'
tRp1338
F0.23140501976013184
tp1339
a(I1
g3
(g5
S'\x80\xc0\xca\xa1E\x16<@'
tRp1340
F0.22867584228515625
tp1341
a(I1
g3
(g5
S'\x10\x83\xc0\xca\xa1e>@'
tRp1342
F9.1856300830841064
tp1343
a(I1
g3
(g5
S'\x80\xc0\xca\xa1E\x16<@'
tRp1344
F0.19174003601074219
tp1345
a(I1
g3
(g5
S'\x80\xc0\xca\xa1E\x16<@'
tRp1346
F0.17514300346374512
tp1347
a(I1
g3
(g5
S'\x80\xc0\xca\xa1E\x16<@'
tRp1348
F0.17067098617553711
tp1349
a(I1
g3
(g5
S'\x80\xc0\xca\xa1E\x16<@'
tRp1350
F0.17900991439819336
tp1351
a(I1
g3
(g5
S' Zd;\xdf\xaf6@'
tRp1352
F9.6008460521697998
tp1353
a(I1
g3
(g5
S' Zd;\xdf\xaf6@'
tRp1354
F0.16292214393615723
tp1355
a(I1
g3
(g5
S' Zd;\xdf\xaf6@'
tRp1356
F0.17619895935058594
tp1357
a(I1
g3
(g5
S' Zd;\xdf\xaf6@'
tRp1358
F0.16040802001953125
tp1359
a(I1
g3
(g5
S' Zd;\xdf\xaf6@'
tRp1360
F0.17742109298706055
tp1361
a(I1
g3
(g5
S' Zd;\xdf\xaf6@'
tRp1362
F9.8472621440887451
tp1363
a(I1
g3
(g5
S' Zd;\xdf\xaf6@'
tRp1364
F0.17145109176635742
tp1365
a(I1
g3
(g5
S' Zd;\xdf\xaf6@'
tRp1366
F0.16001796722412109
tp1367
a(I1
g3
(g5
S' Zd;\xdf\xaf6@'
tRp1368
F0.16730093955993652
tp1369
a(I1
g3
(g5
S' Zd;\xdf\xaf6@'
tRp1370
F0.18443107604980469
tp1371
a(I1
g3
(g5
S'\x80\xc0\xca\xa1E\x16<@'
tRp1372
F9.9697539806365967
tp1373
a(I1
g3
(g5
S'\x80\xc0\xca\xa1E\x16<@'
tRp1374
F0.17566704750061035
tp1375
a(I1
g3
(g5
S'\x80\xc0\xca\xa1E\x16<@'
tRp1376
F0.17502117156982422
tp1377
a(I1
g3
(g5
S'\x80\xc0\xca\xa1E\x16<@'
tRp1378
F0.17757415771484375
tp1379
a(I1
g3
(g5
S'\x80\xc0\xca\xa1E\x16<@'
tRp1380
F0.17824506759643555
tp1381
aa(lp1382
(I1
g3
(g5
S'h\xe7\xfb\xa9\xf1\x9aV@'
tRp1383
F0.022134065628051758
tp1384
a(I1
g3
(g5
S'\xf4S\xe3\xa5\x9b\xc4X@'
tRp1385
F0.050320863723754883
tp1386
a(I1
g3
(g5
S'\xf0\xfd\xd4x\xe9\x1eV@'
tRp1387
F0.051679849624633789
tp1388
a(I1
g3
(g5
S'\xc0\xca\xa1E\xb6\x03D@'
tRp1389
F0.042236089706420898
tp1390
a(I1
g3
(g5
S'\x10\xd9\xce\xf7SSD@'
tRp1391
F0.091985940933227539
tp1392
a(I1
g3
(g5
S'\x10\xd9\xce\xf7SSD@'
tRp1393
F3.2078537940979004
tp1394
a(I1
g3
(g5
S'\x00\xd7\xa3p=\xaaG@'
tRp1395
F0.024484157562255859
tp1396
a(I1
g3
(g5
S'x\x95C\x8bl\x07E@'
tRp1397
F0.032116889953613281
tp1398
a(I1
g3
(g5
S'x\x95C\x8bl\x07E@'
tRp1399
F0.093883991241455078
tp1400
a(I1
g3
(g5
S'\xe8\xd2Mb\x10\x08A@'
tRp1401
F0.030569791793823242
tp1402
a(I1
g3
(g5
S'\xe8\xd2Mb\x10\x08A@'
tRp1403
F3.7805399894714355
tp1404
a(I1
g3
(g5
S'p\x14\xaeG\xe1\xaaC@'
tRp1405
F0.10239601135253906
tp1406
a(I1
g3
(g5
S'p\x14\xaeG\xe1\xaaC@'
tRp1407
F0.07415318489074707
tp1408
a(I1
g3
(g5
S'p\x14\xaeG\xe1\xaaC@'
tRp1409
F0.065592050552368164
tp1410
a(I1
g3
(g5
S'p\x14\xaeG\xe1\xaaC@'
tRp1411
F0.074902057647705078
tp1412
a(I1
g3
(g5
S'\xe8\xd2Mb\x10\x08A@'
tRp1413
F5.4001989364624023
tp1414
a(I1
g3
(g5
S'\xe8\xd2Mb\x10\x08A@'
tRp1415
F0.068751096725463867
tp1416
a(I1
g3
(g5
S'\xe8\xd2Mb\x10\x08A@'
tRp1417
F0.066833972930908203
tp1418
a(I1
g3
(g5
S'\xe8\xd2Mb\x10\x08A@'
tRp1419
F0.092070817947387695
tp1420
a(I1
g3
(g5
S'\xe8\xd2Mb\x10\x08A@'
tRp1421
F0.10221004486083984
tp1422
a(I1
g3
(g5
S'p\x14\xaeG\xe1\xaaC@'
tRp1423
F4.7943260669708252
tp1424
a(I1
g3
(g5
S'\x80\x16\xd9\xce\xf7S@@'
tRp1425
F0.073660135269165039
tp1426
a(I1
g3
(g5
S'p\x14\xaeG\xe1\xaaC@'
tRp1427
F0.45545482635498047
tp1428
a(I1
g3
(g5
S'\x00\x85\xebQ\xb8\x9e&@'
tRp1429
F0.19859194755554199
tp1430
a(I1
g3
(g5
S'\x00\x85\xebQ\xb8\x9e&@'
tRp1431
F0.23396015167236328
tp1432
a(I1
g3
(g5
S'`\xbe\x9f\x1a/\xfd1@'
tRp1433
F6.0656611919403076
tp1434
a(I1
g3
(g5
S'\x80\xef\xa7\xc6K\xb7\x1a@'
tRp1435
F0.15487194061279297
tp1436
a(I1
g3
(g5
S'\x00\x00\x00\x00\x00\x00\x00\x00'
tRp1437
F0.15208697319030762
tp1438
aa(lp1439
(I1
g3
(g5
S'\n\xd7\xa3p=\x90g@'
tRp1440
F0.022015810012817383
tp1441
a(I1
g3
(g5
S'\xe4\xd0"\xdb\xf9&U@'
tRp1442
F0.059073925018310547
tp1443
a(I1
g3
(g5
S'\x80?5^\xbaAU@'
tRp1444
F0.088181972503662109
tp1445
a(I1
g3
(g5
S'\xf8S\xe3\xa5\x9b\xc4\\@'
tRp1446
F0.031038999557495117
tp1447
a(I1
g3
(g5
S'h;\xdfO\x8d\xd7G@'
tRp1448
F0.064592123031616211
tp1449
a(I1
g3
(g5
S'\xe0$\x06\x81\x95\xa31@'
tRp1450
F3.4839029312133789
tp1451
a(I1
g3
(g5
S'\x88\xebQ\xb8\x1e\xd5O@'
tRp1452
F0.026190042495727539
tp1453
a(I1
g3
(g5
S'\x88\xebQ\xb8\x1e\xd5O@'
tRp1454
F0.024892807006835938
tp1455
a(I1
g3
(g5
S'\x88\xebQ\xb8\x1e\xd5O@'
tRp1456
F0.076519012451171875
tp1457
a(I1
g3
(g5
S'\x88\xebQ\xb8\x1e\xd5O@'
tRp1458
F0.031583070755004883
tp1459
a(I1
g3
(g5
S'\x98n\x12\x83\xc0:G@'
tRp1460
F3.7647058963775635
tp1461
a(I1
g3
(g5
S'\x98n\x12\x83\xc0:G@'
tRp1462
F0.055157184600830078
tp1463
a(I1
g3
(g5
S'\x98n\x12\x83\xc0:G@'
tRp1464
F0.072114944458007812
tp1465
a(I1
g3
(g5
S'\x98n\x12\x83\xc0:G@'
tRp1466
F0.056560039520263672
tp1467
a(I1
g3
(g5
S'\x98n\x12\x83\xc0:G@'
tRp1468
F0.074012041091918945
tp1469
a(I1
g3
(g5
S'\x98n\x12\x83\xc0:G@'
tRp1470
F3.7647109031677246
tp1471
a(I1
g3
(g5
S'\x98n\x12\x83\xc0:G@'
tRp1472
F0.063575029373168945
tp1473
a(I1
g3
(g5
S'\x98n\x12\x83\xc0:G@'
tRp1474
F0.066972970962524414
tp1475
a(I1
g3
(g5
S'\x98n\x12\x83\xc0:G@'
tRp1476
F0.055737018585205078
tp1477
a(I1
g3
(g5
S'\x98n\x12\x83\xc0:G@'
tRp1478
F0.05996394157409668
tp1479
a(I1
g3
(g5
S'\x98n\x12\x83\xc0:G@'
tRp1480
F4.1461331844329834
tp1481
a(I1
g3
(g5
S'\x98n\x12\x83\xc0:G@'
tRp1482
F0.033725976943969727
tp1483
a(I1
g3
(g5
S'\x98n\x12\x83\xc0:G@'
tRp1484
F0.034040927886962891
tp1485
a(I1
g3
(g5
S'\x98n\x12\x83\xc0:G@'
tRp1486
F0.034612894058227539
tp1487
a(I1
g3
(g5
S'\x00\x00\x00\x00\x00\x80I@'
tRp1488
F0.034857988357543945
tp1489
a(I1
g3
(g5
S'\x98n\x12\x83\xc0:G@'
tRp1490
F4.0836021900177002
tp1491
a(I1
g3
(g5
S'\x98n\x12\x83\xc0:G@'
tRp1492
F0.030977010726928711
tp1493
a(I1
g3
(g5
S'\x98n\x12\x83\xc0:G@'
tRp1494
F0.031209945678710938
tp1495
a(I1
g3
(g5
S'\x98n\x12\x83\xc0:G@'
tRp1496
F0.031554222106933594
tp1497
a(I1
g3
(g5
S'\x98n\x12\x83\xc0:G@'
tRp1498
F0.031913042068481445
tp1499
a(I1
g3
(g5
S'\x98n\x12\x83\xc0:G@'
tRp1500
F4.2920479774475098
tp1501
a(I1
g3
(g5
S'\x98n\x12\x83\xc0:G@'
tRp1502
F0.032743215560913086
tp1503
a(I1
g3
(g5
S'\x98n\x12\x83\xc0:G@'
tRp1504
F0.032926082611083984
tp1505
a(I1
g3
(g5
S'\x98n\x12\x83\xc0:G@'
tRp1506
F0.033039093017578125
tp1507
a(I1
g3
(g5
S'\x98n\x12\x83\xc0:G@'
tRp1508
F0.033473968505859375
tp1509
a(I1
g3
(g5
S'\x98n\x12\x83\xc0:G@'
tRp1510
F4.508814811706543
tp1511
a(I1
g3
(g5
S'\x98n\x12\x83\xc0:G@'
tRp1512
F0.034226179122924805
tp1513
a(I1
g3
(g5
S'\x98n\x12\x83\xc0:G@'
tRp1514
F0.034742116928100586
tp1515
a(I1
g3
(g5
S'\x98n\x12\x83\xc0:G@'
tRp1516
F0.034873008728027344
tp1517
a(I1
g3
(g5
S'\x98n\x12\x83\xc0:G@'
tRp1518
F0.035130977630615234
tp1519
a(I1
g3
(g5
S'\x98n\x12\x83\xc0:G@'
tRp1520
F4.6941969394683838
tp1521
a(I1
g3
(g5
S'\x98n\x12\x83\xc0:G@'
tRp1522
F0.035928964614868164
tp1523
a(I1
g3
(g5
S'\x98n\x12\x83\xc0:G@'
tRp1524
F0.036159992218017578
tp1525
a(I1
g3
(g5
S'\x98n\x12\x83\xc0:G@'
tRp1526
F0.036654233932495117
tp1527
a(I1
g3
(g5
S'\x98n\x12\x83\xc0:G@'
tRp1528
F0.036957979202270508
tp1529
a(I1
g3
(g5
S'\x98n\x12\x83\xc0:G@'
tRp1530
F4.8879091739654541
tp1531
a(I1
g3
(g5
S'\x98n\x12\x83\xc0:G@'
tRp1532
F0.040024995803833008
tp1533
a(I1
g3
(g5
S'\x98n\x12\x83\xc0:G@'
tRp1534
F0.038087844848632812
tp1535
a(I1
g3
(g5
S'\x98n\x12\x83\xc0:G@'
tRp1536
F0.038136005401611328
tp1537
a(I1
g3
(g5
S'\x98n\x12\x83\xc0:G@'
tRp1538
F0.038574934005737305
tp1539
a(I1
g3
(g5
S'\x98n\x12\x83\xc0:G@'
tRp1540
F5.1106429100036621
tp1541
a(I1
g3
(g5
S'\x98n\x12\x83\xc0:G@'
tRp1542
F0.039108991622924805
tp1543
a(I1
g3
(g5
S'\x98n\x12\x83\xc0:G@'
tRp1544
F0.039484977722167969
tp1545
a(I1
g3
(g5
S'\x98n\x12\x83\xc0:G@'
tRp1546
F0.039947032928466797
tp1547
a(I1
g3
(g5
S'\x98n\x12\x83\xc0:G@'
tRp1548
F0.039931058883666992
tp1549
a(I1
g3
(g5
S'\x98n\x12\x83\xc0:G@'
tRp1550
F5.3079628944396973
tp1551
a(I1
g3
(g5
S'\x98n\x12\x83\xc0:G@'
tRp1552
F0.041000127792358398
tp1553
a(I1
g3
(g5
S'\x98n\x12\x83\xc0:G@'
tRp1554
F0.041408061981201172
tp1555
a(I1
g3
(g5
S'\x98n\x12\x83\xc0:G@'
tRp1556
F0.04157710075378418
tp1557
a(I1
g3
(g5
S'\x98n\x12\x83\xc0:G@'
tRp1558
F0.041738986968994141
tp1559
a(I1
g3
(g5
S'\x98n\x12\x83\xc0:G@'
tRp1560
F5.5160319805145264
tp1561
a(I1
g3
(g5
S'\x98n\x12\x83\xc0:G@'
tRp1562
F0.042588949203491211
tp1563
a(I1
g3
(g5
S'\x98n\x12\x83\xc0:G@'
tRp1564
F0.042965888977050781
tp1565
a(I1
g3
(g5
S'\x98n\x12\x83\xc0:G@'
tRp1566
F0.043160915374755859
tp1567
a(I1
g3
(g5
S'\x98n\x12\x83\xc0:G@'
tRp1568
F0.043495893478393555
tp1569
a(I1
g3
(g5
S"\xc0v\xbe\x9f\x1a/'@"
tRp1570
F5.715008020401001
tp1571
a(I1
g3
(g5
S"\xc0v\xbe\x9f\x1a/'@"
tRp1572
F0.053133010864257812
tp1573
a(I1
g3
(g5
S"\xc0v\xbe\x9f\x1a/'@"
tRp1574
F0.051215887069702148
tp1575
a(I1
g3
(g5
S"\xc0v\xbe\x9f\x1a/'@"
tRp1576
F0.054029941558837891
tp1577
a(I1
g3
(g5
S"\xc0v\xbe\x9f\x1a/'@"
tRp1578
F0.05245208740234375
tp1579
a(I1
g3
(g5
S"\xc0v\xbe\x9f\x1a/'@"
tRp1580
F6.2430899143218994
tp1581
a(I1
g3
(g5
S"\xc0v\xbe\x9f\x1a/'@"
tRp1582
F0.053973913192749023
tp1583
a(I1
g3
(g5
S"\xc0v\xbe\x9f\x1a/'@"
tRp1584
F0.054028987884521484
tp1585
a(I1
g3
(g5
S"\xc0v\xbe\x9f\x1a/'@"
tRp1586
F0.054491043090820312
tp1587
a(I1
g3
(g5
S"\xc0v\xbe\x9f\x1a/'@"
tRp1588
F0.054931163787841797
tp1589
a(I1
g3
(g5
S"\xc0v\xbe\x9f\x1a/'@"
tRp1590
F6.2148330211639404
tp1591
a(I1
g3
(g5
S"\xc0v\xbe\x9f\x1a/'@"
tRp1592
F0.055804967880249023
tp1593
a(I1
g3
(g5
S"\xc0v\xbe\x9f\x1a/'@"
tRp1594
F0.056463003158569336
tp1595
a(I1
g3
(g5
S"\xc0v\xbe\x9f\x1a/'@"
tRp1596
F0.05638885498046875
tp1597
a(I1
g3
(g5
S"\xc0v\xbe\x9f\x1a/'@"
tRp1598
F0.059277057647705078
tp1599
a(I1
g3
(g5
S"\xc0v\xbe\x9f\x1a/'@"
tRp1600
F6.4285750389099121
tp1601
a(I1
g3
(g5
S"\xc0v\xbe\x9f\x1a/'@"
tRp1602
F0.057852029800415039
tp1603
a(I1
g3
(g5
S"\xc0v\xbe\x9f\x1a/'@"
tRp1604
F0.059971094131469727
tp1605
a(I1
g3
(g5
S"\xc0v\xbe\x9f\x1a/'@"
tRp1606
F0.058476924896240234
tp1607
a(I1
g3
(g5
S"\xc0v\xbe\x9f\x1a/'@"
tRp1608
F0.058851003646850586
tp1609
a(I1
g3
(g5
S"\xc0v\xbe\x9f\x1a/'@"
tRp1610
F6.6055419445037842
tp1611
a(I1
g3
(g5
S"\xc0v\xbe\x9f\x1a/'@"
tRp1612
F0.090744972229003906
tp1613
a(I1
g3
(g5
S"\xc0v\xbe\x9f\x1a/'@"
tRp1614
F0.091041088104248047
tp1615
a(I1
g3
(g5
S"\xc0v\xbe\x9f\x1a/'@"
tRp1616
F0.10056710243225098
tp1617
a(I1
g3
(g5
S"\xc0v\xbe\x9f\x1a/'@"
tRp1618
F0.097997903823852539
tp1619
a(I1
g3
(g5
S'\xc0 \xb0rhQ&@'
tRp1620
F7.7175858020782471
tp1621
a(I1
g3
(g5
S'\xc0 \xb0rhQ&@'
tRp1622
F0.10747098922729492
tp1623
a(I1
g3
(g5
S'\xc0 \xb0rhQ&@'
tRp1624
F0.1054840087890625
tp1625
a(I1
g3
(g5
S'\xc0 \xb0rhQ&@'
tRp1626
F0.11296701431274414
tp1627
a(I1
g3
(g5
S'\xc0 \xb0rhQ&@'
tRp1628
F0.10757088661193848
tp1629
a(I1
g3
(g5
S'\xc0 \xb0rhQ&@'
tRp1630
F8.1926100254058838
tp1631
a(I1
g3
(g5
S'\xc0 \xb0rhQ&@'
tRp1632
F0.11821222305297852
tp1633
a(I1
g3
(g5
S'\xc0 \xb0rhQ&@'
tRp1634
F0.11291694641113281
tp1635
a(I1
g3
(g5
S'\xc0 \xb0rhQ&@'
tRp1636
F0.11810493469238281
tp1637
a(I1
g3
(g5
S'\xc0 \xb0rhQ&@'
tRp1638
F0.12346100807189941
tp1639
aa(lp1640
(I1
g3
(g5
S'\x14\x83\xc0\xca\xa1\x81`@'
tRp1641
F0.022034883499145508
tp1642
a(I1
g3
(g5
S'\xc4\xf5(\\\x8fzV@'
tRp1643
F0.049936056137084961
tp1644
a(I1
g3
(g5
S'\xfc:p\xce\x88\xb2\\@'
tRp1645
F0.05619502067565918
tp1646
a(I1
g3
(g5
S'\xe4X\x17\xb7\xd1\x04c@'
tRp1647
F0.04971003532409668
tp1648
a(I1
g3
(g5
S'`\x8f\xc2\xf5(\xf4X@'
tRp1649
F0.094134092330932617
tp1650
a(I1
g3
(g5
S'`\x8f\xc2\xf5(\xf4X@'
tRp1651
F3.2176139354705811
tp1652
a(I1
g3
(g5
S'\xd0\xa1E\xb6\xf3\xedO@'
tRp1653
F0.024416923522949219
tp1654
a(I1
g3
(g5
S'\xd0\xa1E\xb6\xf3\xedO@'
tRp1655
F0.024705886840820312
tp1656
a(I1
g3
(g5
S'\xb8I\x0c\x02+\x97X@'
tRp1657
F0.026645183563232422
tp1658
a(I1
g3
(g5
S'\xa0\xef\xa7\xc6K\x1fR@'
tRp1659
F0.029845952987670898
tp1660
a(I1
g3
(g5
S'\xa0\xef\xa7\xc6K\x1fR@'
tRp1661
F3.4152748584747314
tp1662
a(I1
g3
(g5
S'`\x8f\xc2\xf5(T\\@'
tRp1663
F0.027134895324707031
tp1664
a(I1
g3
(g5
S'\xa0\xef\xa7\xc6K\x1fR@'
tRp1665
F0.12685108184814453
tp1666
a(I1
g3
(g5
S'\x88\x16\xd9\xce\xf7cY@'
tRp1667
F0.13476395606994629
tp1668
a(I1
g3
(g5
S'\x88\x16\xd9\xce\xf7cY@'
tRp1669
F0.078713893890380859
tp1670
a(I1
g3
(g5
S'\xa0\xef\xa7\xc6K\x1fR@'
tRp1671
F5.1307120323181152
tp1672
a(I1
g3
(g5
S'\xa0\xef\xa7\xc6K\x1fR@'
tRp1673
F0.028143167495727539
tp1674
a(I1
g3
(g5
S'\xa0\xef\xa7\xc6K\x1fR@'
tRp1675
F0.028369903564453125
tp1676
a(I1
g3
(g5
S'\xa0\xef\xa7\xc6K\x1fR@'
tRp1677
F0.028971195220947266
tp1678
a(I1
g3
(g5
S'\xa0\xef\xa7\xc6K\x1fR@'
tRp1679
F0.029069900512695312
tp1680
a(I1
g3
(g5
S'h;\xdfO\x8d\xe7_@'
tRp1681
F5.6567161083221436
tp1682
a(I1
g3
(g5
S'h;\xdfO\x8d\xe7_@'
tRp1683
F0.16127300262451172
tp1684
a(I1
g3
(g5
S'h;\xdfO\x8d\xe7_@'
tRp1685
F0.23414111137390137
tp1686
a(I1
g3
(g5
S'\x88\x16\xd9\xce\xf7cY@'
tRp1687
F0.18187999725341797
tp1688
a(I1
g3
(g5
S'@5^\xbaI|R@'
tRp1689
F0.15859389305114746
tp1690
a(I1
g3
(g5
S'@5^\xbaI|R@'
tRp1691
F6.8931088447570801
tp1692
a(I1
g3
(g5
S'@5^\xbaI|R@'
tRp1693
F0.11208796501159668
tp1694
a(I1
g3
(g5
S'@5^\xbaI|R@'
tRp1695
F0.13353896141052246
tp1696
a(I1
g3
(g5
S'\xa0\xef\xa7\xc6K\x1fR@'
tRp1697
F0.10609793663024902
tp1698
a(I1
g3
(g5
S'\xb0\xf1\xd2Mb@A@'
tRp1699
F0.10478305816650391
tp1700
a(I1
g3
(g5
S'\x80\x14\xaeG\xe1\xa2X@'
tRp1701
F7.2979798316955566
tp1702
a(I1
g3
(g5
S'\x80\x14\xaeG\xe1\xa2X@'
tRp1703
F0.10282683372497559
tp1704
a(I1
g3
(g5
S'\x80\x14\xaeG\xe1\xa2X@'
tRp1705
F0.11879992485046387
tp1706
a(I1
g3
(g5
S'\x80\x14\xaeG\xe1\xa2X@'
tRp1707
F0.11909914016723633
tp1708
a(I1
g3
(g5
S'\x80\x14\xaeG\xe1\xa2X@'
tRp1709
F0.13014984130859375
tp1710
a(I1
g3
(g5
S'\xf0|?5^\xfaA@'
tRp1711
F7.5672290325164795
tp1712
a(I1
g3
(g5
S'\x00\x00\x00\x00\x00\x00\x00\x00'
tRp1713
F0.14968609809875488
tp1714
aa(lp1715
(I1
g3
(g5
S'&1\x08\xac\x1c\xe6a@'
tRp1716
F0.021988868713378906
tp1717
a(I1
g3
(g5
S'\x80j\xbct\x93\xc8V@'
tRp1718
F0.044584989547729492
tp1719
a(I1
g3
(g5
S'\xf8S\xe3\xa5\x9bd@@'
tRp1720
F0.056012868881225586
tp1721
a(I1
g3
(g5
S'd;\xdfO\x8d_Q@'
tRp1722
F0.055028915405273438
tp1723
a(I1
g3
(g5
S'\x84\xc0\xca\xa1E6R@'
tRp1724
F0.096863985061645508
tp1725
a(I1
g3
(g5
S'\x84\xc0\xca\xa1E6R@'
tRp1726
F3.202578067779541
tp1727
a(I1
g3
(g5
S'H\x0c\x02+\x876X@'
tRp1728
F0.071583032608032227
tp1729
a(I1
g3
(g5
S'\x88\xebQ\xb8\x1e\xe5F@'
tRp1730
F0.078645944595336914
tp1731
a(I1
g3
(g5
S'\x88\xebQ\xb8\x1e\xe5F@'
tRp1732
F0.08829188346862793
tp1733
a(I1
g3
(g5
S'\xf0\xa7\xc6K7\tD@'
tRp1734
F0.031306028366088867
tp1735
a(I1
g3
(g5
S'\xf0\xa7\xc6K7\tD@'
tRp1736
F3.4972028732299805
tp1737
a(I1
g3
(g5
S'\xf0\xa7\xc6K7\tD@'
tRp1738
F0.033766031265258789
tp1739
a(I1
g3
(g5
S'\xf0\xa7\xc6K7\tD@'
tRp1740
F0.036312103271484375
tp1741
a(I1
g3
(g5
S'\xf0\xa7\xc6K7\tD@'
tRp1742
F0.034750938415527344
tp1743
a(I1
g3
(g5
S'\xf0\xa7\xc6K7\tD@'
tRp1744
F0.036085128784179688
tp1745
a(I1
g3
(g5
S'x\xe9&1\x08,A@'
tRp1746
F3.8465631008148193
tp1747
a(I1
g3
(g5
S'x\xe9&1\x08,A@'
tRp1748
F0.069557905197143555
tp1749
a(I1
g3
(g5
S'x\xe9&1\x08,A@'
tRp1750
F0.11465597152709961
tp1751
a(I1
g3
(g5
S'x\xe9&1\x08,A@'
tRp1752
F0.088243961334228516
tp1753
a(I1
g3
(g5
S'x\xe9&1\x08,A@'
tRp1754
F0.090543985366821289
tp1755
a(I1
g3
(g5
S'x\xe9&1\x08,A@'
tRp1756
F4.542363166809082
tp1757
a(I1
g3
(g5
S'x\xe9&1\x08,A@'
tRp1758
F0.11522388458251953
tp1759
a(I1
g3
(g5
S'x\xe9&1\x08,A@'
tRp1760
F0.11260986328125
tp1761
a(I1
g3
(g5
S'x\xe9&1\x08,A@'
tRp1762
F0.11651921272277832
tp1763
a(I1
g3
(g5
S'x\xe9&1\x08,A@'
tRp1764
F0.10098099708557129
tp1765
a(I1
g3
(g5
S'x\xe9&1\x08,A@'
tRp1766
F4.9976911544799805
tp1767
a(I1
g3
(g5
S'x\xe9&1\x08,A@'
tRp1768
F0.11068296432495117
tp1769
a(I1
g3
(g5
S'x\xe9&1\x08,A@'
tRp1770
F0.098536014556884766
tp1771
a(I1
g3
(g5
S'x\xe9&1\x08,A@'
tRp1772
F0.11970877647399902
tp1773
a(I1
g3
(g5
S'x\xe9&1\x08,A@'
tRp1774
F0.16314506530761719
tp1775
a(I1
g3
(g5
S'x\xe9&1\x08,A@'
tRp1776
F6.3974800109863281
tp1777
a(I1
g3
(g5
S'x\xe9&1\x08,A@'
tRp1778
F0.15227007865905762
tp1779
a(I1
g3
(g5
S'x\xe9&1\x08,A@'
tRp1780
F0.20494413375854492
tp1781
a(I1
g3
(g5
S'x\xe9&1\x08,A@'
tRp1782
F0.34123992919921875
tp1783
a(I1
g3
(g5
S'x\xe9&1\x08,A@'
tRp1784
F6.7502450942993164
tp1785
a(I1
g3
(g5
S'\x00\x00\x00\x00\x00\x00\x00\x00'
tRp1786
F7.2533779144287109
tp1787
aa(lp1788
(I1
g3
(g5
S'\xa6p=\n\xd7ke@'
tRp1789
F0.022307872772216797
tp1790
a(I1
g3
(g5
S'X\x0e-\xb2\x9d/V@'
tRp1791
F0.051800966262817383
tp1792
a(I1
g3
(g5
S'\xe0$\x06\x81\x95\x9b\\@'
tRp1793
F0.079627037048339844
tp1794
a(I1
g3
(g5
S'\x90l\xe7\xfb\xa9\xa9V@'
tRp1795
F0.038480997085571289
tp1796
a(I1
g3
(g5
S'\x88\xebQ\xb8\x1e\xad^@'
tRp1797
F0.031030893325805664
tp1798
a(I1
g3
(g5
S'hffff\xced@'
tRp1799
F3.187312126159668
tp1800
a(I1
g3
(g5
S'\x1cZd;\xdf\x8fY@'
tRp1801
F0.024649858474731445
tp1802
a(I1
g3
(g5
S'\x10\x83\xc0\xca\xa1\xc5=@'
tRp1803
F0.026479959487915039
tp1804
a(I1
g3
(g5
S'\x10\x83\xc0\xca\xa1\xc5=@'
tRp1805
F0.025326967239379883
tp1806
a(I1
g3
(g5
S'\x10\x83\xc0\xca\xa1\xc5=@'
tRp1807
F0.055720806121826172
tp1808
a(I1
g3
(g5
S'\x10\x83\xc0\xca\xa1\xc5=@'
tRp1809
F3.3799359798431396
tp1810
a(I1
g3
(g5
S'\xb0\xf1\xd2Mb0D@'
tRp1811
F0.026823043823242188
tp1812
a(I1
g3
(g5
S',\x87\x16\xd9\xceoU@'
tRp1813
F0.027004003524780273
tp1814
a(I1
g3
(g5
S'\x84\x95C\x8bl\xa7S@'
tRp1815
F0.028006076812744141
tp1816
a(I1
g3
(g5
S'd\x10X9\xb4\x10R@'
tRp1817
F0.028465986251831055
tp1818
a(I1
g3
(g5
S'\x00R\xb8\x1e\x85k\x19@'
tRp1819
F3.9059691429138184
tp1820
a(I1
g3
(g5
S'\x00R\xb8\x1e\x85k\x19@'
tRp1821
F0.087143898010253906
tp1822
a(I1
g3
(g5
S'\x00\x00\x00\x00\x00\x00\x00\x00'
tRp1823
F0.067743062973022461
tp1824
aa(lp1825
(I1
g3
(g5
S'\xe4\xa5\x9b\xc4 \xe0c@'
tRp1826
F0.021950960159301758
tp1827
a(I1
g3
(g5
S'\x92\xa9\x82QI+f@'
tRp1828
F0.044543981552124023
tp1829
a(I1
g3
(g5
S'*\x87\x16\xd9\xce\xbb`@'
tRp1830
F0.051698923110961914
tp1831
a(I1
g3
(g5
S'|?5^\xba\xa1d@'
tRp1832
F0.031699180603027344
tp1833
a(I1
g3
(g5
S'\xac\x1cZd;wj@'
tRp1834
F0.0507049560546875
tp1835
a(I1
g3
(g5
S'\xee\r\xbe0\x99bo@'
tRp1836
F3.3240768909454346
tp1837
a(I1
g3
(g5
S'H\xe1z\x14\xaeCa@'
tRp1838
F0.08974909782409668
tp1839
a(I1
g3
(g5
S'\xe6\xd0"\xdb\xf9Ra@'
tRp1840
F0.15420699119567871
tp1841
a(I1
g3
(g5
S'\x94C\x8bl\xe7\xb3S@'
tRp1842
F0.13126897811889648
tp1843
a(I1
g3
(g5
S'H\xe1z\x14\xaeCa@'
tRp1844
F0.1287229061126709
tp1845
a(I1
g3
(g5
S'\xd0"\xdb\xf9~\xd2U@'
tRp1846
F4.7136240005493164
tp1847
a(I1
g3
(g5
S'\xd0"\xdb\xf9~\xd2U@'
tRp1848
F1.049793004989624
tp1849
a(I1
g3
(g5
S'\xd0"\xdb\xf9~\xd2U@'
tRp1850
F0.71214580535888672
tp1851
a(I1
g3
(g5
S'\xd0"\xdb\xf9~\xd2U@'
tRp1852
F0.77600502967834473
tp1853
a(I1
g3
(g5
S'\xd0"\xdb\xf9~\xd2U@'
tRp1854
F0.41784381866455078
tp1855
a(I1
g3
(g5
S'\xe8\xd0"\xdb\xf9ND@'
tRp1856
F6.1549489498138428
tp1857
a(I1
g3
(g5
S'\xe8\xd0"\xdb\xf9ND@'
tRp1858
F0.078941106796264648
tp1859
a(I1
g3
(g5
S'&\x06\x81\x95C\xa7h@'
tRp1860
F0.07747197151184082
tp1861
a(I1
g3
(g5
S'&\x06\x81\x95C\xa7h@'
tRp1862
F0.07453608512878418
tp1863
a(I1
g3
(g5
S'&\x06\x81\x95C\xa7h@'
tRp1864
F0.062855958938598633
tp1865
a(I1
g3
(g5
S'`\x8f\xc2\xf5(\xfc;@'
tRp1866
F5.4859120845794678
tp1867
a(I1
g3
(g5
S'`\x8f\xc2\xf5(\xfc;@'
tRp1868
F0.091743230819702148
tp1869
a(I1
g3
(g5
S'`\x8f\xc2\xf5(\xfc;@'
tRp1870
F0.092077970504760742
tp1871
a(I1
g3
(g5
S'`\x8f\xc2\xf5(\xfc;@'
tRp1872
F0.086380958557128906
tp1873
a(I1
g3
(g5
S'`\x8f\xc2\xf5(\xfc;@'
tRp1874
F0.091817855834960938
tp1875
a(I1
g3
(g5
S'\x00\x00\x00\x00\x00\x00\x00\x00'
tRp1876
F6.5260789394378662
tp1877
aa(lp1878
(I1
g3
(g5
S'Zd;\xdfO\x91e@'
tRp1879
F0.021884918212890625
tp1880
a(I1
g3
(g5
S'\xe8\xfb\xa9\xf1\xd2Um@'
tRp1881
F0.049838066101074219
tp1882
a(I1
g3
(g5
S'\x0c\x02+\x87\x16)c@'
tRp1883
F0.093160152435302734
tp1884
a(I1
g3
(g5
S'@5^\xbaI\xf0b@'
tRp1885
F0.055739879608154297
tp1886
a(I1
g3
(g5
S'\xd0\xf7S\xe3\xa5\xd3Z@'
tRp1887
F0.10303306579589844
tp1888
a(I1
g3
(g5
S'\xd0\xf7S\xe3\xa5\xd3Z@'
tRp1889
F3.2403509616851807
tp1890
a(I1
g3
(g5
S'P\x8d\x97n\x12\x03W@'
tRp1891
F0.054564952850341797
tp1892
a(I1
g3
(g5
S'\xd0\xf7S\xe3\xa5\xd3Z@'
tRp1893
F0.027215003967285156
tp1894
a(I1
g3
(g5
S'P\x8d\x97n\x12\x03W@'
tRp1895
F0.027708053588867188
tp1896
a(I1
g3
(g5
S' \x85\xebQ\xb8\x9e\\@'
tRp1897
F0.029194831848144531
tp1898
a(I1
g3
(g5
S' \x85\xebQ\xb8\x9e\\@'
tRp1899
F3.5363140106201172
tp1900
a(I1
g3
(g5
S'\xc0\x9f\x1a/\xdd\x1cV@'
tRp1901
F0.091367006301879883
tp1902
a(I1
g3
(g5
S'\xc0\x9f\x1a/\xdd\x1cV@'
tRp1903
F0.047394990921020508
tp1904
a(I1
g3
(g5
S'\xc0\x9f\x1a/\xdd\x1cV@'
tRp1905
F0.051390171051025391
tp1906
a(I1
g3
(g5
S'\xc0\x9f\x1a/\xdd\x1cV@'
tRp1907
F0.051666021347045898
tp1908
a(I1
g3
(g5
S'\xb8\xf3\xfd\xd4xqZ@'
tRp1909
F4.0488588809967041
tp1910
a(I1
g3
(g5
S'\x04\x81\x95C\x8b4V@'
tRp1911
F0.03162384033203125
tp1912
a(I1
g3
(g5
S'4\x08\xac\x1cZ|P@'
tRp1913
F0.030436992645263672
tp1914
a(I1
g3
(g5
S'@\x8bl\xe7\xfb\xa9F@'
tRp1915
F0.030418157577514648
tp1916
a(I1
g3
(g5
S'@\x8bl\xe7\xfb\xa9F@'
tRp1917
F0.035490036010742188
tp1918
a(I1
g3
(g5
S'\x00\x00\x00\x00\x00\x00\x00\x00'
tRp1919
F4.0940120220184326
tp1920
aa(lp1921
(I1
g3
(g5
S'\xe4z\x14\xaeGy_@'
tRp1922
F0.021705865859985352
tp1923
a(I1
g3
(g5
S'\xe4z\x14\xaeGy_@'
tRp1924
F0.046153068542480469
tp1925
a(I1
g3
(g5
S'\x94\xed|?5\x86[@'
tRp1926
F0.047997951507568359
tp1927
a(I1
g3
(g5
S'\xe4\xa5\x9b\xc4 xZ@'
tRp1928
F0.053781986236572266
tp1929
a(I1
g3
(g5
S'\xe4z\x14\xaeGy_@'
tRp1930
F0.076786041259765625
tp1931
a(I1
g3
(g5
S'\xcc\xcc\xcc\xcc\xcc\xccT@'
tRp1932
F3.1613740921020508
tp1933
a(I1
g3
(g5
S'D\x8bl\xe7\xfb\x91S@'
tRp1934
F0.025749921798706055
tp1935
a(I1
g3
(g5
S'@3333\x930@'
tRp1936
F0.031352043151855469
tp1937
a(I1
g3
(g5
S'@3333\x930@'
tRp1938
F0.031987905502319336
tp1939
a(I1
g3
(g5
S'\x00\x00\x00\x00\x00\x00\x00\x00'
tRp1940
F0.033833026885986328
tp1941
aa(lp1942
(I1
g3
(g5
S'\xb8\xf3\xfd\xd4x\xd1_@'
tRp1943
F0.021615982055664062
tp1944
a(I1
g3
(g5
S'\x9c\xc4 \xb0r\xc8S@'
tRp1945
F0.049731969833374023
tp1946
a(I1
g3
(g5
S'T\xb8\x1e\x85\xeb\xe9_@'
tRp1947
F0.09038996696472168
tp1948
a(I1
g3
(g5
S'\x1c\x04V\x0e-\xe2^@'
tRp1949
F0.028572797775268555
tp1950
a(I1
g3
(g5
S'\xa8\xc6K7\x89\xa9Y@'
tRp1951
F0.061575889587402344
tp1952
a(I1
g3
(g5
S'\xa8\xc6K7\x89\xa9Y@'
tRp1953
F3.3508961200714111
tp1954
a(I1
g3
(g5
S'\xa8\xc6K7\x89\xa1V@'
tRp1955
F0.086986064910888672
tp1956
a(I1
g3
(g5
S'\xd0\xf7S\xe3\xa5\xfbV@'
tRp1957
F0.096570968627929688
tp1958
a(I1
g3
(g5
S'\x88\xebQ\xb8\x1e\xf5G@'
tRp1959
F0.17759799957275391
tp1960
a(I1
g3
(g5
S'\x88\xebQ\xb8\x1e\xf5G@'
tRp1961
F0.18904399871826172
tp1962
a(I1
g3
(g5
S'\x88\xebQ\xb8\x1e\xf5G@'
tRp1963
F4.2911379337310791
tp1964
a(I1
g3
(g5
S'\x88\xebQ\xb8\x1e\xf5G@'
tRp1965
F0.11584210395812988
tp1966
a(I1
g3
(g5
S'\xbcI\x0c\x02+\x03a@'
tRp1967
F0.027949094772338867
tp1968
a(I1
g3
(g5
S'\xbcI\x0c\x02+\x03a@'
tRp1969
F0.027017116546630859
tp1970
a(I1
g3
(g5
S'\xbcI\x0c\x02+\x03a@'
tRp1971
F0.027405977249145508
tp1972
a(I1
g3
(g5
S'\xd8Mb\x10X\xa9H@'
tRp1973
F4.3567759990692139
tp1974
a(I1
g3
(g5
S'\xd8Mb\x10X\xa9H@'
tRp1975
F0.034479141235351562
tp1976
a(I1
g3
(g5
S'\xd8x\xe9&1HK@'
tRp1977
F0.034617900848388672
tp1978
a(I1
g3
(g5
S'\xd8x\xe9&1HK@'
tRp1979
F0.032541036605834961
tp1980
a(I1
g3
(g5
S'\xd8x\xe9&1HK@'
tRp1981
F0.032938957214355469
tp1982
a(I1
g3
(g5
S'L\x0c\x02+\x87vP@'
tRp1983
F4.0503849983215332
tp1984
a(I1
g3
(g5
S'L\x0c\x02+\x87vP@'
tRp1985
F0.040754079818725586
tp1986
a(I1
g3
(g5
S'L\x0c\x02+\x87vP@'
tRp1987
F0.039281129837036133
tp1988
a(I1
g3
(g5
S'L\x0c\x02+\x87vP@'
tRp1989
F0.039472103118896484
tp1990
a(I1
g3
(g5
S'L\x0c\x02+\x87vP@'
tRp1991
F0.039556980133056641
tp1992
a(I1
g3
(g5
S'L\x0c\x02+\x87vP@'
tRp1993
F4.326862096786499
tp1994
a(I1
g3
(g5
S'L\x0c\x02+\x87vP@'
tRp1995
F0.061842918395996094
tp1996
a(I1
g3
(g5
S'L\x0c\x02+\x87vP@'
tRp1997
F0.052521944046020508
tp1998
a(I1
g3
(g5
S'L\x0c\x02+\x87vP@'
tRp1999
F0.060856819152832031
tp2000
a(I1
g3
(g5
S'L\x0c\x02+\x87vP@'
tRp2001
F0.061562061309814453
tp2002
a(I1
g3
(g5
S'L\x0c\x02+\x87vP@'
tRp2003
F4.5275168418884277
tp2004
a(I1
g3
(g5
S'L\x0c\x02+\x87vP@'
tRp2005
F0.073961973190307617
tp2006
a(I1
g3
(g5
S'L\x0c\x02+\x87vP@'
tRp2007
F0.063437938690185547
tp2008
a(I1
g3
(g5
S'L\x0c\x02+\x87vP@'
tRp2009
F0.080504179000854492
tp2010
a(I1
g3
(g5
S'L\x0c\x02+\x87vP@'
tRp2011
F0.077649831771850586
tp2012
a(I1
g3
(g5
S'\xd8Mb\x10X\xa9H@'
tRp2013
F4.7934551239013672
tp2014
a(I1
g3
(g5
S'\xd8Mb\x10X\xa9H@'
tRp2015
F0.050005197525024414
tp2016
a(I1
g3
(g5
S'\xd8Mb\x10X\xa9H@'
tRp2017
F0.050214052200317383
tp2018
a(I1
g3
(g5
S'\xd8Mb\x10X\xa9H@'
tRp2019
F0.050709009170532227
tp2020
a(I1
g3
(g5
S'\xd8Mb\x10X\xa9H@'
tRp2021
F0.050915002822875977
tp2022
a(I1
g3
(g5
S'\xbcI\x0c\x02+\x03a@'
tRp2023
F4.9992570877075195
tp2024
a(I1
g3
(g5
S'\xbcI\x0c\x02+\x03a@'
tRp2025
F0.036855220794677734
tp2026
a(I1
g3
(g5
S'\xbcI\x0c\x02+\x03a@'
tRp2027
F0.037063121795654297
tp2028
a(I1
g3
(g5
S'\xbcI\x0c\x02+\x03a@'
tRp2029
F0.037739992141723633
tp2030
a(I1
g3
(g5
S'\xbcI\x0c\x02+\x03a@'
tRp2031
F0.03802490234375
tp2032
a(I1
g3
(g5
S'\xd8Mb\x10X\xa9H@'
tRp2033
F5.3731009960174561
tp2034
a(I1
g3
(g5
S'\xd8Mb\x10X\xa9H@'
tRp2035
F0.044864177703857422
tp2036
a(I1
g3
(g5
S'\xd8Mb\x10X\xa9H@'
tRp2037
F0.045138835906982422
tp2038
a(I1
g3
(g5
S'\xd8Mb\x10X\xa9H@'
tRp2039
F0.04534602165222168
tp2040
a(I1
g3
(g5
S'\xd8Mb\x10X\xa9H@'
tRp2041
F0.045754909515380859
tp2042
a(I1
g3
(g5
S'\xbcI\x0c\x02+\x03a@'
tRp2043
F5.5170979499816895
tp2044
a(I1
g3
(g5
S'\xbcI\x0c\x02+\x03a@'
tRp2045
F0.03999018669128418
tp2046
a(I1
g3
(g5
S'\xbcI\x0c\x02+\x03a@'
tRp2047
F0.041185855865478516
tp2048
a(I1
g3
(g5
S'\xbcI\x0c\x02+\x03a@'
tRp2049
F0.041756868362426758
tp2050
a(I1
g3
(g5
S'\xbcI\x0c\x02+\x03a@'
tRp2051
F0.043665885925292969
tp2052
a(I1
g3
(g5
S'\xd8Mb\x10X\xa9H@'
tRp2053
F5.795753002166748
tp2054
a(I1
g3
(g5
S'\xd8Mb\x10X\xa9H@'
tRp2055
F0.051055192947387695
tp2056
a(I1
g3
(g5
S'\xd8Mb\x10X\xa9H@'
tRp2057
F0.051375865936279297
tp2058
a(I1
g3
(g5
S'\xd8Mb\x10X\xa9H@'
tRp2059
F0.051813125610351562
tp2060
a(I1
g3
(g5
S'\xd8Mb\x10X\xa9H@'
tRp2061
F0.052225112915039062
tp2062
a(I1
g3
(g5
S'\xd8Mb\x10X\xa9H@'
tRp2063
F6.0554590225219727
tp2064
a(I1
g3
(g5
S'\xd8Mb\x10X\xa9H@'
tRp2065
F0.075020074844360352
tp2066
a(I1
g3
(g5
S'\xd8Mb\x10X\xa9H@'
tRp2067
F0.067852020263671875
tp2068
a(I1
g3
(g5
S'\xd8Mb\x10X\xa9H@'
tRp2069
F0.067347049713134766
tp2070
a(I1
g3
(g5
S'\xd8Mb\x10X\xa9H@'
tRp2071
F0.074605941772460938
tp2072
a(I1
g3
(g5
S'\xd8Mb\x10X\xa9H@'
tRp2073
F6.3740019798278809
tp2074
a(I1
g3
(g5
S'\xd8Mb\x10X\xa9H@'
tRp2075
F0.083899974822998047
tp2076
a(I1
g3
(g5
S'\xd8Mb\x10X\xa9H@'
tRp2077
F0.066475868225097656
tp2078
a(I1
g3
(g5
S'\xd8Mb\x10X\xa9H@'
tRp2079
F0.069048881530761719
tp2080
a(I1
g3
(g5
S'\xd8Mb\x10X\xa9H@'
tRp2081
F0.079387187957763672
tp2082
a(I1
g3
(g5
S'\xd8Mb\x10X\xa9H@'
tRp2083
F6.5915470123291016
tp2084
a(I1
g3
(g5
S'\xd8Mb\x10X\xa9H@'
tRp2085
F0.061028957366943359
tp2086
a(I1
g3
(g5
S'\xd8Mb\x10X\xa9H@'
tRp2087
F0.061218023300170898
tp2088
a(I1
g3
(g5
S'\xd8Mb\x10X\xa9H@'
tRp2089
F0.061311006546020508
tp2090
a(I1
g3
(g5
S'\xd8Mb\x10X\xa9H@'
tRp2091
F0.062142848968505859
tp2092
a(I1
g3
(g5
S'\xd8Mb\x10X\xa9H@'
tRp2093
F6.8693280220031738
tp2094
a(I1
g3
(g5
S'\xd8Mb\x10X\xa9H@'
tRp2095
F0.062723875045776367
tp2096
a(I1
g3
(g5
S'\xd8Mb\x10X\xa9H@'
tRp2097
F0.063073158264160156
tp2098
a(I1
g3
(g5
S'\xd8Mb\x10X\xa9H@'
tRp2099
F0.06348109245300293
tp2100
a(I1
g3
(g5
S'\xd8Mb\x10X\xa9H@'
tRp2101
F0.063627958297729492
tp2102
a(I1
g3
(g5
S'\xd8Mb\x10X\xa9H@'
tRp2103
F6.9370248317718506
tp2104
a(I1
g3
(g5
S'\xd8Mb\x10X\xa9H@'
tRp2105
F0.060751199722290039
tp2106
a(I1
g3
(g5
S'\xd8Mb\x10X\xa9H@'
tRp2107
F0.063938140869140625
tp2108
a(I1
g3
(g5
S'\xd8Mb\x10X\xa9H@'
tRp2109
F0.061485052108764648
tp2110
a(I1
g3
(g5
S'\xd8Mb\x10X\xa9H@'
tRp2111
F0.061509132385253906
tp2112
a(I1
g3
(g5
S'\xd8Mb\x10X\xa9H@'
tRp2113
F7.2160799503326416
tp2114
a(I1
g3
(g5
S'\xd8Mb\x10X\xa9H@'
tRp2115
F0.06771087646484375
tp2116
a(I1
g3
(g5
S'\xd8Mb\x10X\xa9H@'
tRp2117
F0.067509174346923828
tp2118
a(I1
g3
(g5
S'\xd8Mb\x10X\xa9H@'
tRp2119
F0.067644119262695312
tp2120
a(I1
g3
(g5
S'\xd8Mb\x10X\xa9H@'
tRp2121
F0.068219900131225586
tp2122
a(I1
g3
(g5
S'\xd8Mb\x10X\xa9H@'
tRp2123
F7.4400417804718018
tp2124
a(I1
g3
(g5
S'\xd8Mb\x10X\xa9H@'
tRp2125
F0.085570096969604492
tp2126
a(I1
g3
(g5
S'\xd8Mb\x10X\xa9H@'
tRp2127
F0.089544057846069336
tp2128
a(I1
g3
(g5
S'\xd8Mb\x10X\xa9H@'
tRp2129
F0.099033117294311523
tp2130
a(I1
g3
(g5
S'\xd8Mb\x10X\xa9H@'
tRp2131
F0.10295820236206055
tp2132
a(I1
g3
(g5
S'\xd8Mb\x10X\xa9H@'
tRp2133
F7.6718130111694336
tp2134
a(I1
g3
(g5
S'\xd8Mb\x10X\xa9H@'
tRp2135
F0.092104911804199219
tp2136
a(I1
g3
(g5
S'\xd8Mb\x10X\xa9H@'
tRp2137
F0.097182989120483398
tp2138
a(I1
g3
(g5
S'\xd8Mb\x10X\xa9H@'
tRp2139
F0.097978115081787109
tp2140
a(I1
g3
(g5
S'\xd8Mb\x10X\xa9H@'
tRp2141
F0.090688943862915039
tp2142
aa.