(lp1
(lp2
(I3
cnumpy.core.multiarray
scalar
p3
(cnumpy
dtype
p4
(S'f8'
I0
I1
tRp5
(I3
S'<'
NNNI-1
I-1
I0
tbS'\x07\x81\x95C\x8bPa@'
tRp6
F0.042787075042724609
tp7
a(I3
g3
(g5
S'\x18\xd9\xce\xf7SsS@'
tRp8
F0.13041400909423828
tp9
a(I3
g3
(g5
S'4\x99*\x18\x95`U@'
tRp10
F0.099920988082885742
tp11
a(I3
g3
(g5
S'\xa0\x1a/\xdd$\x86a@'
tRp12
F0.073930978775024414
tp13
a(I3
g3
(g5
S'\xa0\x1a/\xdd$\x86a@'
tRp14
F0.056512117385864258
tp15
a(I3
g3
(g5
S'h\x91\xed|?\x05X@'
tRp16
F4.8239679336547852
tp17
a(I3
g3
(g5
S'\xe8\xd0"\xdb\xf9\x0eB@'
tRp18
F0.19263315200805664
tp19
a(I3
g3
(g5
S'\xb0\xc6K7\x89\x91I@'
tRp20
F0.44433808326721191
tp21
a(I3
g3
(g5
S'\xb0\xc6K7\x89\x91I@'
tRp22
F0.16941118240356445
tp23
a(I3
g3
(g5
S'83333#D@'
tRp24
F0.26291394233703613
tp25
a(I3
g3
(g5
S'\xe0K7\x89A\xa0)@'
tRp26
F6.9595379829406738
tp27
a(I3
g3
(g5
S"\x00\xfe\xd4x\xe9&'@"
tRp28
F1.2028601169586182
tp29
a(I3
g3
(g5
S'\x00\x00\x00\x00\x00\x00\x00\x00'
tRp30
F0.47501111030578613
tp31
aa(lp32
(I3
g3
(g5
S'D`\xe5\xd0"\xe3U@'
tRp33
F0.042615890502929688
tp34
a(I3
g3
(g5
S'D`\xe5\xd0"\xe3U@'
tRp35
F0.11628317832946777
tp36
a(I3
g3
(g5
S'\xec\xfb\xa9\xf1\xd2\xa5R@'
tRp37
F0.12077498435974121
tp38
a(I3
g3
(g5
S'\xc8):\x92\xcb\x9di@'
tRp39
F0.13115692138671875
tp40
a(I3
g3
(g5
S'\xc8):\x92\xcb\x9di@'
tRp41
F0.058665037155151367
tp42
a(I3
g3
(g5
S'\xc8):\x92\xcb\x9di@'
tRp43
F5.3988509178161621
tp44
a(I3
g3
(g5
S'\xc8):\x92\xcb\x9di@'
tRp45
F0.053056001663208008
tp46
a(I3
g3
(g5
S'\xc8):\x92\xcb\x9di@'
tRp47
F0.05424189567565918
tp48
a(I3
g3
(g5
S'\xc8):\x92\xcb\x9di@'
tRp49
F0.056145906448364258
tp50
a(I3
g3
(g5
S'\xc8):\x92\xcb\x9di@'
tRp51
F0.057472944259643555
tp52
a(I3
g3
(g5
S'X\x8d\x97n\x12\xb3D@'
tRp53
F7.2929420471191406
tp54
a(I3
g3
(g5
S'p\xbct\x93\x18d>@'
tRp55
F0.26527285575866699
tp56
a(I3
g3
(g5
S'p\xbct\x93\x18d>@'
tRp57
F1.1367080211639404
tp58
a(I3
g3
(g5
S'p\xbct\x93\x18d>@'
tRp59
F0.61214900016784668
tp60
a(I3
g3
(g5
S'\x00D\x8bl\xe7\xfb\xf9?'
tRp61
F30.401546955108643
tp62
a(I3
g3
(g5
S'\x00D\x8bl\xe7\xfb\xf9?'
tRp63
F9.3697571754455566
tp64
a(I3
g3
(g5
S'\x00D\x8bl\xe7\xfb\xf9?'
tRp65
F1.4874749183654785
tp66
a(I3
g3
(g5
S'\x00P\x8d\x97n\x12\n@'
tRp67
F1.1089780330657959
tp68
a(I3
g3
(g5
S'\x00D\x8bl\xe7\xfb\xf9?'
tRp69
F1.0796010494232178
tp70
a(I3
g3
(g5
S'\x00D\x8bl\xe7\xfb\xf9?'
tRp71
F1.7053589820861816
tp72
a(I3
g3
(g5
S'\x00\x00\x00\x00\x00\x00\x00\x00'
tRp73
F9.5200099945068359
tp74
aa(lp75
(I3
g3
(g5
S'\x8b\xfde\xf7\xe4qe@'
tRp76
F0.042150020599365234
tp77
a(I3
g3
(g5
S'P\xb8\x1e\x85\xeb\x01A@'
tRp78
F0.14214205741882324
tp79
a(I3
g3
(g5
S'\x00\x00\x00\x00\x00\x00\x00\x00'
tRp80
F0.064440011978149414
tp81
aa(lp82
(I3
g3
(g5
S'\x86\x16\xd9\xce\xf7\xf9a@'
tRp83
F0.042159080505371094
tp84
a(I3
g3
(g5
S'\xb0\xc8v\xbe\x9f\xcaU@'
tRp85
F0.1137549877166748
tp86
a(I3
g3
(g5
S'\x00+\x87\x16\xd9n3@'
tRp87
F0.10458207130432129
tp88
a(I3
g3
(g5
S'X\x868\xd6\xc5;n@'
tRp89
F0.14854097366333008
tp90
a(I3
g3
(g5
S'X\x868\xd6\xc5;n@'
tRp91
F0.060431957244873047
tp92
a(I3
g3
(g5
S'\xa0rh\x91\xed\xfc-@'
tRp93
F4.6973891258239746
tp94
a(I3
g3
(g5
S'\xa0rh\x91\xed\xfc-@'
tRp95
F0.17037296295166016
tp96
a(I3
g3
(g5
S'\xa0rh\x91\xed\xfc-@'
tRp97
F0.17148518562316895
tp98
a(I3
g3
(g5
S'\x90n\x12\x83\xc0J?@'
tRp99
F0.33560609817504883
tp100
a(I3
g3
(g5
S'\x00\x00\x00\x00\x00\x00\x00\x00'
tRp101
F0.44395184516906738
tp102
aa(lp103
(I3
g3
(g5
S'\xf8S\xe3\xa5\x9b\xfc]@'
tRp104
F0.042352914810180664
tp105
a(I3
g3
(g5
S'\xc8\xa1E\xb6\xf3}J@'
tRp106
F0.10901498794555664
tp107
a(I3
g3
(g5
S'\x00\x00\x00\x00\x00\x00\x00\x00'
tRp108
F0.051244974136352539
tp109
aa(lp110
(I3
g3
(g5
S'\x80\x95C\x8blCh@'
tRp111
F0.04221796989440918
tp112
a(I3
g3
(g5
S'\xdc\xd7\x81sF\x9ej@'
tRp113
F0.1169579029083252
tp114
a(I3
g3
(g5
S'\x80\xebQ\xb8\x1eUA@'
tRp115
F0.060106039047241211
tp116
a(I3
g3
(g5
S'\xe0\xa5\x9b\xc4 \xe0J@'
tRp117
F0.06290888786315918
tp118
a(I3
g3
(g5
S'\xe0\xa5\x9b\xc4 \xe0J@'
tRp119
F0.06447291374206543
tp120
a(I3
g3
(g5
S'\x80\xef\xa7\xc6K7\x18@'
tRp121
F4.6105151176452637
tp122
a(I3
g3
(g5
S'\x80\x9d\xef\xa7\xc6K\r@'
tRp123
F0.19854402542114258
tp124
a(I3
g3
(g5
S'\x80\x9d\xef\xa7\xc6K\r@'
tRp125
F0.19022488594055176
tp126
a(I3
g3
(g5
S'@\xe1z\x14\xae\x07*@'
tRp127
F0.2467200756072998
tp128
a(I3
g3
(g5
S'\x80\x9d\xef\xa7\xc6K\r@'
tRp129
F0.62609195709228516
tp130
a(I3
g3
(g5
S'\x80\x9d\xef\xa7\xc6K\r@'
tRp131
F39.208335161209106
tp132
a(I3
g3
(g5
S'\x80\x9d\xef\xa7\xc6K\r@'
tRp133
F10.823997020721436
tp134
a(I3
g3
(g5
S'\x00\x00\x00\x00\x00\x00\x00\x00'
tRp135
F1.2403228282928467
tp136
aa(lp137
(I3
g3
(g5
S'\xac\x1cZd;\xd3[@'
tRp138
F0.043036937713623047
tp139
a(I3
g3
(g5
S'\xb8@\x82\xe2\xc7\xb8^@'
tRp140
F0.11766290664672852
tp141
a(I3
g3
(g5
S'23333ua@'
tRp142
F0.10000109672546387
tp143
a(I3
g3
(g5
S'>\xc6\xdc\xb5\x84\xc8c@'
tRp144
F0.10490584373474121
tp145
a(I3
g3
(g5
S'z\xa5,C\x1cWg@'
tRp146
F0.085931062698364258
tp147
a(I3
g3
(g5
S'\xe0\xa5\x9b\xc4 \xa0I@'
tRp148
F4.4820840358734131
tp149
a(I3
g3
(g5
S'\xf8S\xe3\xa5\x9bDG@'
tRp150
F0.15789580345153809
tp151
a(I3
g3
(g5
S'\xf8S\xe3\xa5\x9bDG@'
tRp152
F0.15567612648010254
tp153
a(I3
g3
(g5
S'\xf8S\xe3\xa5\x9bDG@'
tRp154
F0.2073209285736084
tp155
a(I3
g3
(g5
S'\xc0rh\x91\xed|/@'
tRp156
F0.29957008361816406
tp157
a(I3
g3
(g5
S'\x00\x00\x00\x00\x00\x00\x00\x00'
tRp158
F6.0727441310882568
tp159
aa(lp160
(I3
g3
(g5
S'8^\xbaI\x0c\x9aT@'
tRp161
F0.043374061584472656
tp162
a(I3
g3
(g5
S'\x10\x02+\x87\x16)A@'
tRp163
F0.11911106109619141
tp164
a(I3
g3
(g5
S'`d;\xdfO-L@'
tRp165
F0.13228893280029297
tp166
a(I3
g3
(g5
S'N\x84\rO\xafvk@'
tRp167
F0.10449314117431641
tp168
a(I3
g3
(g5
S'N\x84\rO\xafvk@'
tRp169
F0.056630849838256836
tp170
a(I3
g3
(g5
S'\xe4\xa5\x9b\xc4 \x00X@'
tRp171
F4.1611759662628174
tp172
a(I3
g3
(g5
S'\xe4\xa5\x9b\xc4 \x00X@'
tRp173
F0.053096771240234375
tp174
a(I3
g3
(g5
S'\xe4\xa5\x9b\xc4 \x00X@'
tRp175
F0.054610967636108398
tp176
a(I3
g3
(g5
S'\xe4\xa5\x9b\xc4 \x00X@'
tRp177
F0.05657196044921875
tp178
a(I3
g3
(g5
S'\xe4\xa5\x9b\xc4 \x00X@'
tRp179
F0.05778813362121582
tp180
a(I3
g3
(g5
S'\x08\x81\x95C\x8blH@'
tRp181
F5.0751879215240479
tp182
a(I3
g3
(g5
S'\x90\xc0\xca\xa1E\x161@'
tRp183
F0.17590594291687012
tp184
a(I3
g3
(g5
S'@\xdfO\x8d\x97n"@'
tRp185
F0.16052603721618652
tp186
a(I3
g3
(g5
S'8\x08\xac\x1cZ\x84B@'
tRp187
F0.21908712387084961
tp188
a(I3
g3
(g5
S'\x00\x00\x00\x00\x00\x00\x00\x00'
tRp189
F0.21270489692687988
tp190
aa(lp191
(I3
g3
(g5
S'\x1c/\xdd$\x06\t[@'
tRp192
F0.042494058609008789
tp193
a(I3
g3
(g5
S'`\xbaI\x0c\x02c`@'
tRp194
F0.12705206871032715
tp195
a(I3
g3
(g5
S'\xa4\x1a/\xdd$\x96U@'
tRp196
F0.11162996292114258
tp197
a(I3
g3
(g5
S'\xf4\xfd\xd4x\xe9\x82g@'
tRp198
F0.15390992164611816
tp199
a(I3
g3
(g5
S'\xf4\xfd\xd4x\xe9\x82g@'
tRp200
F0.098714113235473633
tp201
a(I3
g3
(g5
S'l\xbct\x93\x184\\@'
tRp202
F5.3706951141357422
tp203
a(I3
g3
(g5
S'l\xbct\x93\x184\\@'
tRp204
F0.063843965530395508
tp205
a(I3
g3
(g5
S'\x1c\x04V\x0e-*X@'
tRp206
F0.070343017578125
tp207
a(I3
g3
(g5
S'X\xe3\xa5\x9b\xc4\xc0M@'
tRp208
F0.074694156646728516
tp209
a(I3
g3
(g5
S'\xe0\xce\xf7S\xe3\xe5;@'
tRp210
F0.082174062728881836
tp211
a(I3
g3
(g5
S'\x00\x00\x00\x00\x00\x00\x00\x00'
tRp212
F4.7122788429260254
tp213
aa(lp214
(I3
g3
(g5
S'@\x9e\xef\xa7\xc6\xcb\x13@'
tRp215
F0.04207611083984375
tp216
a(I3
g3
(g5
S'\xe8O\x8d\x97n\x92K@'
tRp217
F0.11907696723937988
tp218
a(I3
g3
(g5
S'\xf8S\xe3\xa5\x9b\x96p@'
tRp219
F0.1331028938293457
tp220
a(I3
g3
(g5
S'\xf8S\xe3\xa5\x9b\x96p@'
tRp221
F0.055721044540405273
tp222
a(I3
g3
(g5
S'\xf8S\xe3\xa5\x9b\x96p@'
tRp223
F0.058531045913696289
tp224
a(I3
g3
(g5
S'(\\\x8f\xc2\xf58M@'
tRp225
F4.162567138671875
tp226
a(I3
g3
(g5
S'8\x89A`\xe5pE@'
tRp227
F0.15493607521057129
tp228
a(I3
g3
(g5
S'8\x89A`\xe5pE@'
tRp229
F0.17415094375610352
tp230
a(I3
g3
(g5
S'8\x89A`\xe5pE@'
tRp231
F0.23065614700317383
tp232
a(I3
g3
(g5
S',1\x08\xac\x1cz\\@'
tRp233
F0.17609906196594238
tp234
a(I3
g3
(g5
S'\xf0\xfb\xa9\xf1\xd2]C@'
tRp235
F4.6085381507873535
tp236
a(I3
g3
(g5
S'8\x89A`\xe5pE@'
tRp237
F0.072512149810791016
tp238
a(I3
g3
(g5
S'\x9e^)\xcb\x10\x93`@'
tRp239
F0.35010910034179688
tp240
a(I3
g3
(g5
S'\x9e^)\xcb\x10\x93`@'
tRp241
F0.30483603477478027
tp242
a(I3
g3
(g5
S'\x9e^)\xcb\x10\x93`@'
tRp243
F0.29479503631591797
tp244
a(I3
g3
(g5
S'\x9e^)\xcb\x10\x93`@'
tRp245
F6.1341609954833984
tp246
a(I3
g3
(g5
S'\x9e^)\xcb\x10\x93`@'
tRp247
F0.45291495323181152
tp248
a(I3
g3
(g5
S'\x9e^)\xcb\x10\x93`@'
tRp249
F0.44534993171691895
tp250
a(I3
g3
(g5
S'\x9e^)\xcb\x10\x93`@'
tRp251
F0.44704890251159668
tp252
a(I3
g3
(g5
S'8\x89A`\xe5pE@'
tRp253
F0.29522085189819336
tp254
a(I3
g3
(g5
S'\xf0\xfb\xa9\xf1\xd2]C@'
tRp255
F7.0070130825042725
tp256
a(I3
g3
(g5
S'\xf0\xfb\xa9\xf1\xd2]C@'
tRp257
F0.38653421401977539
tp258
a(I3
g3
(g5
S'\xf0\xfb\xa9\xf1\xd2]C@'
tRp259
F0.40308499336242676
tp260
a(I3
g3
(g5
S'\xf0\xfb\xa9\xf1\xd2]C@'
tRp261
F0.38929080963134766
tp262
a(I3
g3
(g5
S'\xf0\xfb\xa9\xf1\xd2]C@'
tRp263
F0.38793182373046875
tp264
a(I3
g3
(g5
S'\xf0\xfb\xa9\xf1\xd2]C@'
tRp265
F7.8859658241271973
tp266
a(I3
g3
(g5
S'\xf0\xfb\xa9\xf1\xd2]C@'
tRp267
F0.43216705322265625
tp268
a(I3
g3
(g5
S'\xf0\xfb\xa9\xf1\xd2]C@'
tRp269
F0.33530998229980469
tp270
a(I3
g3
(g5
S'\xf0\xfb\xa9\xf1\xd2]C@'
tRp271
F0.42545986175537109
tp272
a(I3
g3
(g5
S'\xf0\xfb\xa9\xf1\xd2]C@'
tRp273
F0.30350089073181152
tp274
a(I3
g3
(g5
S'\xf0\xfb\xa9\xf1\xd2]C@'
tRp275
F8.6124310493469238
tp276
a(I3
g3
(g5
S'\xf0\xfb\xa9\xf1\xd2]C@'
tRp277
F0.2597649097442627
tp278
a(I3
g3
(g5
S'\xf0\xfb\xa9\xf1\xd2]C@'
tRp279
F0.27699589729309082
tp280
a(I3
g3
(g5
S'\xf0\xfb\xa9\xf1\xd2]C@'
tRp281
F0.26767110824584961
tp282
aa(lp283
(I3
g3
(g5
S'\xa6\x9b\xc4 \xb0\xd6c@'
tRp284
F0.042294979095458984
tp285
a(I3
g3
(g5
S'-\xb2\x9d\xef\xa7ve@'
tRp286
F0.11921811103820801
tp287
a(I3
g3
(g5
S'`\xe5\xd0"\xdb\xc9d@'
tRp288
F0.14854884147644043
tp289
a(I3
g3
(g5
S'\x0c\x02+\x87\x16)_@'
tRp290
F0.071755886077880859
tp291
a(I3
g3
(g5
S'\x0c\x02+\x87\x16)_@'
tRp292
F0.060921907424926758
tp293
a(I3
g3
(g5
S'@3333\xb33@'
tRp294
F4.961698055267334
tp295
a(I3
g3
(g5
S'\xc0\x9b\xc4 \xb0\xb2-@'
tRp296
F0.21026515960693359
tp297
a(I3
g3
(g5
S'\xc0\x9b\xc4 \xb0\xb2-@'
tRp298
F0.2108161449432373
tp299
a(I3
g3
(g5
S'\xc0\x9b\xc4 \xb0\xb2-@'
tRp300
F0.20885801315307617
tp301
a(I3
g3
(g5
S'\xc0\x9b\xc4 \xb0\xb2-@'
tRp302
F0.17664694786071777
tp303
a(I3
g3
(g5
S'\xc0\x9b\xc4 \xb0\xb2-@'
tRp304
F5.7890210151672363
tp305
a(I3
g3
(g5
S'\xc0\x9b\xc4 \xb0\xb2-@'
tRp306
F0.2110450267791748
tp307
a(I3
g3
(g5
S'\xc0\x9b\xc4 \xb0\xb2-@'
tRp308
F0.19356584548950195
tp309
a(I3
g3
(g5
S'\xc0\x9b\xc4 \xb0\xb2-@'
tRp310
F0.21552014350891113
tp311
a(I3
g3
(g5
S'\xc0\x9b\xc4 \xb0\xb2-@'
tRp312
F0.20651721954345703
tp313
a(I3
g3
(g5
S'\xc0\x9b\xc4 \xb0\xb2-@'
tRp314
F6.3855340480804443
tp315
a(I3
g3
(g5
S'\xc0\x9b\xc4 \xb0\xb2-@'
tRp316
F0.2105262279510498
tp317
a(I3
g3
(g5
S'\xc0\x9b\xc4 \xb0\xb2-@'
tRp318
F0.23938608169555664
tp319
a(I3
g3
(g5
S'\xc0\x9b\xc4 \xb0\xb2-@'
tRp320
F0.21657800674438477
tp321
a(I3
g3
(g5
S'\xc0\x9b\xc4 \xb0\xb2-@'
tRp322
F0.21161794662475586
tp323
a(I3
g3
(g5
S'\x10\x02+\x87\x16\xf1Q@'
tRp324
F8.3262450695037842
tp325
a(I3
g3
(g5
S'\x00D\x8bl\xe7\xfb\x05@'
tRp326
F5.4580450057983398
tp327
a(I3
g3
(g5
S'\xc0\x9d\xef\xa7\xc6K @'
tRp328
F1.3172891139984131
tp329
a(I3
g3
(g5
S'\xc0\x9d\xef\xa7\xc6K @'
tRp330
F3.8344950675964355
tp331
a(I3
g3
(g5
S'\x00\x00\x00\x00\x00\x00\x00\x00'
tRp332
F15.444391965866089
tp333
aa(lp334
(I3
g3
(g5
S'\xbct\x93\x18\x04\xceY@'
tRp335
F0.042298078536987305
tp336
a(I3
g3
(g5
S'\xbct\x93\x18\x04\xceY@'
tRp337
F0.10066390037536621
tp338
a(I3
g3
(g5
S'\xe0\xa5\x9b\xc4  B@'
tRp339
F0.049600839614868164
tp340
a(I3
g3
(g5
S'(\xdd$\x06\x81\xf5L@'
tRp341
F0.063935041427612305
tp342
a(I3
g3
(g5
S'(\xdd$\x06\x81\xf5L@'
tRp343
F0.057382106781005859
tp344
a(I3
g3
(g5
S'`\xe7\xfb\xa9\xf1\x120@'
tRp345
F4.8552050590515137
tp346
a(I3
g3
(g5
S'\x80l\xe7\xfb\xa9\x118@'
tRp347
F0.17156791687011719
tp348
a(I3
g3
(g5
S'`\xe7\xfb\xa9\xf1\x120@'
tRp349
F0.15251803398132324
tp350
a(I3
g3
(g5
S'`\xe7\xfb\xa9\xf1\x120@'
tRp351
F0.23178982734680176
tp352
a(I3
g3
(g5
S'0\xdd$\x06\x81\xd54@'
tRp353
F0.31384491920471191
tp354
a(I3
g3
(g5
S'\x00\xd7\xa3p=\n\x13@'
tRp355
F6.7554891109466553
tp356
a(I3
g3
(g5
S'\x00\x00\x00\x00\x00\x00\x00\x00'
tRp357
F1.2961289882659912
tp358
aa(lp359
(I3
g3
(g5
S'\x85\xebQ\xb8\x1e\xcfg@'
tRp360
F0.04209589958190918
tp361
a(I3
g3
(g5
S'\x06\x81\x95C\x8b\xc4a@'
tRp362
F0.12157607078552246
tp363
a(I3
g3
(g5
S'\xdc\xf9~j\xbc\xbcR@'
tRp364
F0.11516094207763672
tp365
a(I3
g3
(g5
S'\\d;\xdfOeV@'
tRp366
F0.10842680931091309
tp367
a(I3
g3
(g5
S'\\d;\xdfOeV@'
tRp368
F0.058615922927856445
tp369
a(I3
g3
(g5
S'\x807\x89A`\xe5\x13@'
tRp370
F3.8707079887390137
tp371
a(I3
g3
(g5
S'\x807\x89A`\xe5\x13@'
tRp372
F0.15684604644775391
tp373
a(I3
g3
(g5
S'\xd8x\xe9&1\xc8S@'
tRp374
F0.15452289581298828
tp375
a(I3
g3
(g5
S'\x807\x89A`\xe5\x13@'
tRp376
F0.07157588005065918
tp377
a(I3
g3
(g5
S'\x807\x89A`\xe5\x13@'
tRp378
F0.071633100509643555
tp379
a(I3
g3
(g5
S'\\d;\xdfOeV@'
tRp380
F4.3815960884094238
tp381
a(I3
g3
(g5
S'\\d;\xdfOeV@'
tRp382
F0.059877872467041016
tp383
a(I3
g3
(g5
S'\\d;\xdfOeV@'
tRp384
F0.062674045562744141
tp385
a(I3
g3
(g5
S'\\d;\xdfOeV@'
tRp386
F0.064892053604125977
tp387
a(I3
g3
(g5
S'\\d;\xdfOeV@'
tRp388
F0.064375877380371094
tp389
a(I3
g3
(g5
S'\x807\x89A`\xe5\x13@'
tRp390
F5.0652940273284912
tp391
a(I3
g3
(g5
S'\x807\x89A`\xe5\x13@'
tRp392
F0.078445911407470703
tp393
a(I3
g3
(g5
S'\x807\x89A`\xe5\x13@'
tRp394
F0.079933881759643555
tp395
a(I3
g3
(g5
S'\x807\x89A`\xe5\x13@'
tRp396
F0.081521034240722656
tp397
a(I3
g3
(g5
S'\x807\x89A`\xe5\x13@'
tRp398
F0.082957983016967773
tp399
a(I3
g3
(g5
S'\x807\x89A`\xe5\x13@'
tRp400
F5.669219970703125
tp401
a(I3
g3
(g5
S'\x807\x89A`\xe5\x13@'
tRp402
F0.0908050537109375
tp403
a(I3
g3
(g5
S'\x807\x89A`\xe5\x13@'
tRp404
F0.092288970947265625
tp405
a(I3
g3
(g5
S'\x807\x89A`\xe5\x13@'
tRp406
F0.094079971313476562
tp407
a(I3
g3
(g5
S'\x807\x89A`\xe5\x13@'
tRp408
F0.095597982406616211
tp409
a(I3
g3
(g5
S'\x807\x89A`\xe5\x13@'
tRp410
F6.5727729797363281
tp411
a(I3
g3
(g5
S'\x807\x89A`\xe5\x13@'
tRp412
F0.098458051681518555
tp413
a(I3
g3
(g5
S'\x807\x89A`\xe5\x13@'
tRp414
F0.10025715827941895
tp415
a(I3
g3
(g5
S'\x807\x89A`\xe5\x13@'
tRp416
F0.10178709030151367
tp417
a(I3
g3
(g5
S'\x807\x89A`\xe5\x13@'
tRp418
F0.099808931350708008
tp419
a(I3
g3
(g5
S'\x807\x89A`\xe5\x13@'
tRp420
F7.012559175491333
tp421
a(I3
g3
(g5
S'\x807\x89A`\xe5\x13@'
tRp422
F0.10785198211669922
tp423
a(I3
g3
(g5
S'\x807\x89A`\xe5\x13@'
tRp424
F0.10875201225280762
tp425
a(I3
g3
(g5
S'\x807\x89A`\xe5\x13@'
tRp426
F0.11007404327392578
tp427
aa(lp428
(I3
g3
(g5
S'^m\xc5\xfe\xb2\x1fj@'
tRp429
F0.041604995727539062
tp430
a(I3
g3
(g5
S'\x9c\x99\x99\x99\x99\xa1[@'
tRp431
F0.12000203132629395
tp432
a(I3
g3
(g5
S'\x80?5^\xba\xc9O@'
tRp433
F0.12123703956604004
tp434
a(I3
g3
(g5
S'\xd4Mb\x10Xao@'
tRp435
F0.12485480308532715
tp436
a(I3
g3
(g5
S'\xd4Mb\x10Xao@'
tRp437
F0.056471824645996094
tp438
a(I3
g3
(g5
S'@5^\xbaI\x0cW@'
tRp439
F4.6560328006744385
tp440
a(I3
g3
(g5
S'@5^\xbaI\x0cW@'
tRp441
F0.052444934844970703
tp442
a(I3
g3
(g5
S'@5^\xbaI\x0cW@'
tRp443
F0.054125070571899414
tp444
a(I3
g3
(g5
S'@5^\xbaI\x0cW@'
tRp445
F0.055783987045288086
tp446
a(I3
g3
(g5
S'@5^\xbaI\x0cW@'
tRp447
F0.057081937789916992
tp448
a(I3
g3
(g5
S'\xe4z\x14\xaeGiW@'
tRp449
F6.2589609622955322
tp450
a(I3
g3
(g5
S'\xf0|?5^\xfaA@'
tRp451
F0.16039896011352539
tp452
a(I3
g3
(g5
S'\xb0\xf1\xd2Mb@A@'
tRp453
F0.1419379711151123
tp454
a(I3
g3
(g5
S'\xb0\xf1\xd2Mb@A@'
tRp455
F0.22711896896362305
tp456
a(I3
g3
(g5
S'\xf0|?5^\xfaA@'
tRp457
F0.25832390785217285
tp458
a(I3
g3
(g5
S'\xb0\xf1\xd2Mb@A@'
tRp459
F6.3355939388275146
tp460
a(I3
g3
(g5
S'\xb0\xf1\xd2Mb@A@'
tRp461
F0.18942880630493164
tp462
a(I3
g3
(g5
S'\xb0\xf1\xd2Mb@A@'
tRp463
F0.18922686576843262
tp464
a(I3
g3
(g5
S'\xb0\xf1\xd2Mb@A@'
tRp465
F0.18735194206237793
tp466
a(I3
g3
(g5
S'\xb0\xf1\xd2Mb@A@'
tRp467
F0.18551898002624512
tp468
a(I3
g3
(g5
S'\xb0\xf1\xd2Mb@A@'
tRp469
F7.0039670467376709
tp470
a(I3
g3
(g5
S'\xb0\xf1\xd2Mb@A@'
tRp471
F0.199951171875
tp472
a(I3
g3
(g5
S'\xb0\xf1\xd2Mb@A@'
tRp473
F0.17413020133972168
tp474
a(I3
g3
(g5
S'\xb0\xf1\xd2Mb@A@'
tRp475
F0.20834112167358398
tp476
a(I3
g3
(g5
S'\xb0\xf1\xd2Mb@A@'
tRp477
F0.17638993263244629
tp478
a(I3
g3
(g5
S'\x00\x00\x00\x00\x00\x00\x00\x00'
tRp479
F8.2391650676727295
tp480
aa(lp481
(I3
g3
(g5
S'T\xe3\xa5\x9b\xc4\xe8W@'
tRp482
F0.042021036148071289
tp483
a(I3
g3
(g5
S'$\xdb\xf9~j4W@'
tRp484
F0.092669010162353516
tp485
a(I3
g3
(g5
S'\xf4\xfd\xd4x\xe9\xf6_@'
tRp486
F0.05017399787902832
tp487
a(I3
g3
(g5
S'\x90\x18\x04V\x0e\x1dM@'
tRp488
F0.1449730396270752
tp489
a(I3
g3
(g5
S'\xd8\x81sF\x94lu@'
tRp490
F0.13260388374328613
tp491
a(I3
g3
(g5
S'\xd8\x81sF\x94lu@'
tRp492
F5.1841599941253662
tp493
a(I3
g3
(g5
S'\xd8\x81sF\x94lu@'
tRp494
F0.051740884780883789
tp495
a(I3
g3
(g5
S'\xd8\x81sF\x94lu@'
tRp496
F0.053580999374389648
tp497
a(I3
g3
(g5
S'\xd8\x81sF\x94lu@'
tRp498
F0.055186986923217773
tp499
a(I3
g3
(g5
S'\xd8\x81sF\x94lu@'
tRp500
F0.056662082672119141
tp501
a(I3
g3
(g5
S'@5^\xbaI<A@'
tRp502
F7.3979461193084717
tp503
a(I3
g3
(g5
S'\\\x8f\xc2\xf5(4Q@'
tRp504
F1.3285129070281982
tp505
a(I3
g3
(g5
S'0^\xbaI\x0c\x025@'
tRp506
F1.2061519622802734
tp507
a(I3
g3
(g5
S'@5^\xbaI<A@'
tRp508
F0.59409403800964355
tp509
a(I3
g3
(g5
S' \xdb\xf9~j\xbc:@'
tRp510
F5.689000129699707
tp511
a(I3
g3
(g5
S' \xdb\xf9~j\xbc:@'
tRp512
F8.8174488544464111
tp513
a(I3
g3
(g5
S'ph\x91\xed|_8@'
tRp514
F0.33732318878173828
tp515
a(I3
g3
(g5
S'\x80\xebQ\xb8\x1e\xa52@'
tRp516
F0.53505897521972656
tp517
a(I3
g3
(g5
S'\x00\x00\x00\x00\x00\x00\x00\x00'
tRp518
F0.39201712608337402
tp519
aa(lp520
(I3
g3
(g5
S'p\xc5\xfe\xb2{\xc6a@'
tRp521
F0.041991949081420898
tp522
a(I3
g3
(g5
S'\xa0\xef\xa7\xc6K\x17W@'
tRp523
F0.12571310997009277
tp524
a(I3
g3
(g5
S'l\x91\xed|?%^@'
tRp525
F0.12857985496520996
tp526
a(I3
g3
(g5
S'\xbet\x93\x18\x042d@'
tRp527
F0.10557699203491211
tp528
a(I3
g3
(g5
S'\xbet\x93\x18\x042d@'
tRp529
F0.056192874908447266
tp530
a(I3
g3
(g5
S'\x0c\x12\x14?\xc6\xbcY@'
tRp531
F4.2675740718841553
tp532
a(I3
g3
(g5
S'\x0c\x12\x14?\xc6\xbcY@'
tRp533
F0.052432060241699219
tp534
a(I3
g3
(g5
S'\x0c\x12\x14?\xc6\xbcY@'
tRp535
F0.054265022277832031
tp536
a(I3
g3
(g5
S'\x0c\x12\x14?\xc6\xbcY@'
tRp537
F0.05562591552734375
tp538
a(I3
g3
(g5
S'\x0c\x12\x14?\xc6\xbcY@'
tRp539
F0.057004928588867188
tp540
a(I3
g3
(g5
S'\xf8\xfd\xd4x\xe9\xd6T@'
tRp541
F5.1517539024353027
tp542
a(I3
g3
(g5
S'`\xb8\x1e\x85\xeb\x11&@'
tRp543
F0.15278911590576172
tp544
a(I3
g3
(g5
S'`\xb8\x1e\x85\xeb\x11&@'
tRp545
F0.16630792617797852
tp546
a(I3
g3
(g5
S'\xb0p=\n\xd7c1@'
tRp547
F0.29203009605407715
tp548
a(I3
g3
(g5
S'\x00\x00\x00\x00\x00\x00\x00\x00'
tRp549
F0.30967307090759277
tp550
aa(lp551
(I3
g3
(g5
S'RI\x9d\x80&\xecd@'
tRp552
F0.041643142700195312
tp553
a(I3
g3
(g5
S'\x98n\x12\x83\xc0\xc2T@'
tRp554
F0.12592887878417969
tp555
a(I3
g3
(g5
S'\xe0\xa5\x9b\xc4 \xf0M@'
tRp556
F0.11073112487792969
tp557
a(I3
g3
(g5
S'p\xbct\x93\x18\xe4?@'
tRp558
F0.10989284515380859
tp559
a(I3
g3
(g5
S'p\xbct\x93\x18\xe4?@'
tRp560
F0.21973204612731934
tp561
a(I3
g3
(g5
S'\x00\xaa\xf1\xd2MB3@'
tRp562
F4.5000240802764893
tp563
a(I3
g3
(g5
S'\x00\xaa\xf1\xd2MB3@'
tRp564
F0.20146417617797852
tp565
a(I3
g3
(g5
S'\x00\xaa\xf1\xd2MB3@'
tRp566
F0.24699020385742188
tp567
a(I3
g3
(g5
S'\x00\xaa\xf1\xd2MB3@'
tRp568
F0.20293402671813965
tp569
a(I3
g3
(g5
S'\x00\xaa\xf1\xd2MB3@'
tRp570
F0.18390393257141113
tp571
a(I3
g3
(g5
S'\x00\xaa\xf1\xd2MB3@'
tRp572
F5.1214158535003662
tp573
a(I3
g3
(g5
S'\x00\xaa\xf1\xd2MB3@'
tRp574
F0.1828770637512207
tp575
a(I3
g3
(g5
S'\x00\xaa\xf1\xd2MB3@'
tRp576
F0.22369217872619629
tp577
a(I3
g3
(g5
S'\x00\xaa\xf1\xd2MB3@'
tRp578
F0.21539187431335449
tp579
a(I3
g3
(g5
S'\x00\xaa\xf1\xd2MB3@'
tRp580
F0.2030940055847168
tp581
a(I3
g3
(g5
S'\x00\xaa\xf1\xd2MB3@'
tRp582
F5.7754800319671631
tp583
a(I3
g3
(g5
S'\xa0E\xb6\xf3\xfd\xb4K@'
tRp584
F0.39062595367431641
tp585
a(I3
g3
(g5
S'\x00\x00\x00\x00\x00\x00\x00\x00'
tRp586
F2.7662429809570312
tp587
aa(lp588
(I3
g3
(g5
S'\xfc\xa9\xf1\xd2M\x9al@'
tRp589
F0.041754007339477539
tp590
a(I3
g3
(g5
S'\x07\x81\x95C\x8bpd@'
tRp591
F0.09230494499206543
tp592
a(I3
g3
(g5
S'\xe0O\x8d\x97nbY@'
tRp593
F0.05023193359375
tp594
a(I3
g3
(g5
S'\xe0O\x8d\x97n\xfaj@'
tRp595
F0.14133286476135254
tp596
a(I3
g3
(g5
S'\xe0O\x8d\x97n\xfaj@'
tRp597
F0.057471990585327148
tp598
a(I3
g3
(g5
S'8^\xbaI\x0cBA@'
tRp599
F4.6706089973449707
tp600
a(I3
g3
(g5
S'\x00\x00\x00\x00\x00\x00\x00\x00'
tRp601
F0.1320030689239502
tp602
aa(lp603
(I3
g3
(g5
S'\x9cn\x12\x83\xc0\xca_@'
tRp604
F0.041593074798583984
tp605
a(I3
g3
(g5
S'\x9cn\x12\x83\xc0\xca_@'
tRp606
F0.10470008850097656
tp607
a(I3
g3
(g5
S'\xd8Mb\x10X)L@'
tRp608
F0.11078810691833496
tp609
a(I3
g3
(g5
S'j\x9aw\x9c\xa2\x89a@'
tRp610
F0.1413569450378418
tp611
a(I3
g3
(g5
S'j\x9aw\x9c\xa2\x89a@'
tRp612
F0.056657075881958008
tp613
a(I3
g3
(g5
S'\x00\x00\x00\x00\x00\x00\x00\x00'
tRp614
F4.7347359657287598
tp615
aa(lp616
(I3
g3
(g5
S'\xcav\xbe\x9f\x1a\x1f`@'
tRp617
F0.041719913482666016
tp618
a(I3
g3
(g5
S'\xcc\xcc\xcc\xcc\xcc\x9c_@'
tRp619
F0.11996221542358398
tp620
a(I3
g3
(g5
S'\xdc\xce\xf7S\xe3-^@'
tRp621
F0.058243989944458008
tp622
a(I3
g3
(g5
S'\xbcI\x0c\x02+\x03a@'
tRp623
F0.060258865356445312
tp624
a(I3
g3
(g5
S'\xbcI\x0c\x02+\x03a@'
tRp625
F0.097202062606811523
tp626
a(I3
g3
(g5
S'\xbcI\x0c\x02+\x03a@'
tRp627
F5.3853549957275391
tp628
a(I3
g3
(g5
S'\xbcI\x0c\x02+\x03a@'
tRp629
F0.052939891815185547
tp630
a(I3
g3
(g5
S'\xbcI\x0c\x02+\x03a@'
tRp631
F0.056704998016357422
tp632
a(I3
g3
(g5
S'\xbcI\x0c\x02+\x03a@'
tRp633
F0.056475162506103516
tp634
a(I3
g3
(g5
S'\xbcI\x0c\x02+\x03a@'
tRp635
F0.060298919677734375
tp636
a(I3
g3
(g5
S" \x85\xebQ\xb8\xde'@"
tRp637
F7.1553170680999756
tp638
a(I3
g3
(g5
S" \x85\xebQ\xb8\xde'@"
tRp639
F0.66019511222839355
tp640
a(I3
g3
(g5
S'\x00\xfe\xd4x\xe9&\x01@'
tRp641
F0.75580286979675293
tp642
a(I3
g3
(g5
S" \x85\xebQ\xb8\xde'@"
tRp643
F0.48170900344848633
tp644
a(I3
g3
(g5
S" \x85\xebQ\xb8\xde'@"
tRp645
F0.49083805084228516
tp646
a(I3
g3
(g5
S" \x85\xebQ\xb8\xde'@"
tRp647
F7.4829568862915039
tp648
a(I3
g3
(g5
S" \x85\xebQ\xb8\xde'@"
tRp649
F0.23556685447692871
tp650
a(I3
g3
(g5
S" \x85\xebQ\xb8\xde'@"
tRp651
F0.2404170036315918
tp652
a(I3
g3
(g5
S" \x85\xebQ\xb8\xde'@"
tRp653
F0.23290395736694336
tp654
a(I3
g3
(g5
S" \x85\xebQ\xb8\xde'@"
tRp655
F0.24912905693054199
tp656
a(I3
g3
(g5
S'(\\\x8f\xc2\xf5\x88D@'
tRp657
F8.3491981029510498
tp658
a(I3
g3
(g5
S'(\\\x8f\xc2\xf5\x88D@'
tRp659
F0.59452986717224121
tp660
a(I3
g3
(g5
S" \x85\xebQ\xb8\xde'@"
tRp661
F0.55554509162902832
tp662
a(I3
g3
(g5
S" \x85\xebQ\xb8\xde'@"
tRp663
F0.47979497909545898
tp664
a(I3
g3
(g5
S" \x85\xebQ\xb8\xde'@"
tRp665
F0.4926910400390625
tp666
a(I3
g3
(g5
S'\x00\xfe\xd4x\xe9&\x01@'
tRp667
F8.9216349124908447
tp668
a(I3
g3
(g5
S" \x85\xebQ\xb8\xde'@"
tRp669
F0.24619507789611816
tp670
a(I3
g3
(g5
S" \x85\xebQ\xb8\xde'@"
tRp671
F0.23327493667602539
tp672
a(I3
g3
(g5
S" \x85\xebQ\xb8\xde'@"
tRp673
F0.23696494102478027
tp674
a(I3
g3
(g5
S" \x85\xebQ\xb8\xde'@"
tRp675
F0.23758411407470703
tp676
a(I3
g3
(g5
S" \x85\xebQ\xb8\xde'@"
tRp677
F9.4632480144500732
tp678
a(I3
g3
(g5
S" \x85\xebQ\xb8\xde'@"
tRp679
F0.28909778594970703
tp680
a(I3
g3
(g5
S" \x85\xebQ\xb8\xde'@"
tRp681
F0.2886199951171875
tp682
a(I3
g3
(g5
S" \x85\xebQ\xb8\xde'@"
tRp683
F0.29788589477539062
tp684
aa.