(lp1
(lp2
(I3
cnumpy.core.multiarray
scalar
p3
(cnumpy
dtype
p4
(S'f8'
I0
I1
tRp5
(I3
S'<'
NNNI-1
I-1
I0
tbS'h\x91\xed|?\xb5J@'
tRp6
F0.042070150375366211
tp7
a(I3
g3
(g5
S'\xa4p=\n\xd7\x03R@'
tRp8
F0.13751101493835449
tp9
a(I3
g3
(g5
S'h\x91\xed|?\xb5J@'
tRp10
F0.10700416564941406
tp11
a(I3
g3
(g5
S' \xb0rh\x91\r8@'
tRp12
F0.12499809265136719
tp13
a(I3
g3
(g5
S'-\xb2\x9d\xef\xa7NY@'
tRp14
F0.1304471492767334
tp15
a(I3
g3
(g5
S'`\x8f\xc2\xf5(\x1c!@'
tRp16
F4.8971750736236572
tp17
a(I3
g3
(g5
S'`\x8f\xc2\xf5(\x1c!@'
tRp18
F0.20458889007568359
tp19
a(I3
g3
(g5
S'\x00\x00\x00\x00\x00\x00\x00\x00'
tRp20
F0.31362700462341309
tp21
aa(lp22
(I3
g3
(g5
S'\xda\xf9~j\xbc\xb4I@'
tRp23
F0.041788101196289062
tp24
a(I3
g3
(g5
S'\xff\xff\xff\xff\xff?@@'
tRp25
F0.088722944259643555
tp26
a(I3
g3
(g5
S'\xc0\xca\xa1E\xb6kW@'
tRp27
F0.049927949905395508
tp28
a(I3
g3
(g5
S'\xc0\xca\xa1E\xb6kW@'
tRp29
F0.047276020050048828
tp30
a(I3
g3
(g5
S'\xc0\xca\xa1E\xb6kW@'
tRp31
F0.049062013626098633
tp32
a(I3
g3
(g5
S'\xda\xf9~j\xbc\xb4I@'
tRp33
F3.8952248096466064
tp34
a(I3
g3
(g5
S'\xda\xf9~j\xbc\xb4I@'
tRp35
F0.46155095100402832
tp36
a(I3
g3
(g5
S'\xda\xf9~j\xbc\xb4I@'
tRp37
F0.83997392654418945
tp38
a(I3
g3
(g5
S'\xda\xf9~j\xbc\xb4I@'
tRp39
F0.52159380912780762
tp40
a(I3
g3
(g5
S'\x00\x00\x00\x00\x00\x00\x00\x00'
tRp41
F0.48822808265686035
tp42
aa(lp43
(I3
g3
(g5
S'\xf4\xfd\xd4x\xe9\x0eQ@'
tRp44
F0.041993856430053711
tp45
a(I3
g3
(g5
S'l\xe7\xfb\xa9\xf1BF@'
tRp46
F0.096673011779785156
tp47
a(I3
g3
(g5
S'l\xe7\xfb\xa9\xf1BF@'
tRp48
F0.11266303062438965
tp49
a(I3
g3
(g5
S'l\xe7\xfb\xa9\xf1BF@'
tRp50
F0.072412967681884766
tp51
a(I3
g3
(g5
S'l\xe7\xfb\xa9\xf1BF@'
tRp52
F0.1441650390625
tp53
a(I3
g3
(g5
S'\xb4\xc8v\xbe\x9f\x1a1@'
tRp54
F5.2147619724273682
tp55
a(I3
g3
(g5
S'\xb4\xc8v\xbe\x9f\x1a1@'
tRp56
F0.2434689998626709
tp57
a(I3
g3
(g5
S'\xb4\xc8v\xbe\x9f\x1a1@'
tRp58
F0.27494192123413086
tp59
a(I3
g3
(g5
S'\xb4\xc8v\xbe\x9f\x1a1@'
tRp60
F0.46638298034667969
tp61
a(I3
g3
(g5
S'\x00\x00\x00\x00\x00\x00\x00\x00'
tRp62
F21.569358825683594
tp63
aa(lp64
(I3
g3
(g5
S'\xe4\xa5\x9b\xc4 \x00@@'
tRp65
F0.041831016540527344
tp66
a(I3
g3
(g5
S'\xe2z\x14\xaeGAH@'
tRp67
F0.13126921653747559
tp68
a(I3
g3
(g5
S'\xe4z\x14\xaeG\xa1>@'
tRp69
F0.11651802062988281
tp70
a(I3
g3
(g5
S'\xe4z\x14\xaeG\xa1>@'
tRp71
F0.13001894950866699
tp72
a(I3
g3
(g5
S'Ob\x10X9\xc4K@'
tRp73
F0.1075441837310791
tp74
a(I3
g3
(g5
S'\x12X9\xb4\xc8V2@'
tRp75
F5.5928881168365479
tp76
a(I3
g3
(g5
S'\x12X9\xb4\xc8V2@'
tRp77
F0.21836090087890625
tp78
a(I3
g3
(g5
S'\x00\x00\x00\x00\x00\x00\x00\x00'
tRp79
F0.33964419364929199
tp80
aa(lp81
(I3
g3
(g5
S'\x88A`\xe5\xd0\x02;@'
tRp82
F0.041927099227905273
tp83
a(I3
g3
(g5
S'\x08\xd7\xa3p=\xea6@'
tRp84
F0.13080596923828125
tp85
a(I3
g3
(g5
S'\xe0\xfb\xa9\xf1\xd2\xcd\x1d@'
tRp86
F0.13381505012512207
tp87
a(I3
g3
(g5
S'5^\xbaI\x0czS@'
tRp88
F0.10679101943969727
tp89
a(I3
g3
(g5
S'5^\xbaI\x0czS@'
tRp90
F0.055752992630004883
tp91
a(I3
g3
(g5
S'\x00\x00\x00\x00\x00\x00\x00\x00'
tRp92
F4.5269029140472412
tp93
aa(lp94
(I3
g3
(g5
S'\xc8K7\x89A\xc0C@'
tRp95
F0.042078018188476562
tp96
a(I3
g3
(g5
S'\xc8K7\x89A\xc0C@'
tRp97
F0.12559318542480469
tp98
a(I3
g3
(g5
S'\xc8K7\x89A\xc0C@'
tRp99
F0.12617897987365723
tp100
a(I3
g3
(g5
S'@5^\xbaI<Z@'
tRp101
F0.12423801422119141
tp102
a(I3
g3
(g5
S'@5^\xbaI<Z@'
tRp103
F0.056863784790039062
tp104
a(I3
g3
(g5
S'\x01\x00\x00\x00\x00\xb0K@'
tRp105
F5.148798942565918
tp106
a(I3
g3
(g5
S'\x01\x00\x00\x00\x00\xb0K@'
tRp107
F0.12842416763305664
tp108
a(I3
g3
(g5
S'\x00\x00\x00\x00\x00\x00\x00\x00'
tRp109
F0.12156391143798828
tp110
aa(lp111
(I3
g3
(g5
S'\x99\x99\x99\x99\x99IG@'
tRp112
F0.041606903076171875
tp113
a(I3
g3
(g5
S'\x99\x99\x99\x99\x99IG@'
tRp114
F0.12312197685241699
tp115
a(I3
g3
(g5
S'\xbct\x93\x18\x04\xd6A@'
tRp116
F0.058398962020874023
tp117
a(I3
g3
(g5
S'\x14\xaeG\xe1z\\V@'
tRp118
F0.06267094612121582
tp119
a(I3
g3
(g5
S'\x14\xaeG\xe1z\\V@'
tRp120
F0.058271884918212891
tp121
a(I3
g3
(g5
S'\x80\xc0\xca\xa1Ev.@'
tRp122
F5.2409758567810059
tp123
a(I3
g3
(g5
S'\x00\x00\x00\x00\x00\x00\x00\x00'
tRp124
F0.071876049041748047
tp125
aa(lp126
(I3
g3
(g5
S'D\x8bl\xe7\xfb\xe9G@'
tRp127
F0.041581869125366211
tp128
a(I3
g3
(g5
S'\x10\xac\x1cZd{*@'
tRp129
F0.1192929744720459
tp130
a(I3
g3
(g5
S'|\x14\xaeG\xe1\xc2U@'
tRp131
F0.12499403953552246
tp132
a(I3
g3
(g5
S'|\x14\xaeG\xe1\xc2U@'
tRp133
F0.053403854370117188
tp134
a(I3
g3
(g5
S'|\x14\xaeG\xe1\xc2U@'
tRp135
F0.055875062942504883
tp136
a(I3
g3
(g5
S'@\x8d\x97n\x12\x83\x01@'
tRp137
F3.9566140174865723
tp138
a(I3
g3
(g5
S'@\x8d\x97n\x12\x83\x01@'
tRp139
F0.069447994232177734
tp140
a(I3
g3
(g5
S'@\x8d\x97n\x12\x83\x01@'
tRp141
F0.21914219856262207
tp142
a(I3
g3
(g5
S'\x00\x00\x00\x00\x00\x00\x00\x00'
tRp143
F0.54789304733276367
tp144
aa(lp145
(I3
g3
(g5
S'\xac\x1cZd;\xefS@'
tRp146
F0.041846036911010742
tp147
a(I3
g3
(g5
S'H\xe1z\x14\xae\xd7A@'
tRp148
F0.10028910636901855
tp149
a(I3
g3
(g5
S'\xc4\xca\xa1E\xb6\x935@'
tRp150
F0.16435599327087402
tp151
a(I3
g3
(g5
S'\x00\x00\x00\x00\x00\x00\x00\x00'
tRp152
F0.12362098693847656
tp153
aa(lp154
(I3
g3
(g5
S'!\xb0rh\x91mN@'
tRp155
F0.041575908660888672
tp156
a(I3
g3
(g5
S'\x08\xac\x1cZd\xdbE@'
tRp157
F0.11658596992492676
tp158
a(I3
g3
(g5
S'\xb0\xc8v\xbe\x9f\x1a#@'
tRp159
F0.13737082481384277
tp160
a(I3
g3
(g5
S'\xfe\xd4x\xe9&\xc1W@'
tRp161
F0.052004814147949219
tp162
a(I3
g3
(g5
S'\xfe\xd4x\xe9&\xc1W@'
tRp163
F0.048784017562866211
tp164
a(I3
g3
(g5
S'\x00\x00\x00\x00\x00\x00\x00\x00'
tRp165
F4.7967939376831055
tp166
aa(lp167
(I3
g3
(g5
S'\xdc\xf9~j\xbc\xc4J@'
tRp168
F0.041910171508789062
tp169
a(I3
g3
(g5
S',\x87\x16\xd9\xce\x87N@'
tRp170
F0.10723590850830078
tp171
a(I3
g3
(g5
S'\xc0t\x93\x18\x04V\x16@'
tRp172
F0.14468097686767578
tp173
a(I3
g3
(g5
S'\x00\x00\x00\x00\x00\x00\x00\x00'
tRp174
F0.062331914901733398
tp175
aa(lp176
(I3
g3
(g5
S'\xb2\x9d\xef\xa7\xc6\xeb;@'
tRp177
F0.041702032089233398
tp178
a(I3
g3
(g5
S'\xb2\x9d\xef\xa7\xc6\xeb;@'
tRp179
F0.11131095886230469
tp180
a(I3
g3
(g5
S'\xdfO\x8d\x97nJR@'
tRp181
F0.12832307815551758
tp182
a(I3
g3
(g5
S'\xdfO\x8d\x97nJR@'
tRp183
F0.04738306999206543
tp184
a(I3
g3
(g5
S'\xdfO\x8d\x97nJR@'
tRp185
F0.049277782440185547
tp186
a(I3
g3
(g5
S'\xa6\x9b\xc4 \xb0RA@'
tRp187
F4.2271530628204346
tp188
a(I3
g3
(g5
S'\xa6\x9b\xc4 \xb0RA@'
tRp189
F0.065840005874633789
tp190
a(I3
g3
(g5
S'\x00\x00\x00\x00\x00\x00\x00\x00'
tRp191
F0.081233024597167969
tp192
aa(lp193
(I3
g3
(g5
S'\xf8S\xe3\xa5\x9b$;@'
tRp194
F0.041342020034790039
tp195
a(I3
g3
(g5
S'\xd8\xce\xf7S\xe3\xb5L@'
tRp196
F0.11384677886962891
tp197
a(I3
g3
(g5
S'\xf8S\xe3\xa5\x9b$;@'
tRp198
F0.14867901802062988
tp199
a(I3
g3
(g5
S'\x00\x00\x00\x00\x00\x00\x00\x00'
tRp200
F0.052714109420776367
tp201
aa(lp202
(I3
g3
(g5
S'\x94C\x8bl\xe7KL@'
tRp203
F0.041512966156005859
tp204
a(I3
g3
(g5
S'<\n\xd7\xa3p\xbd8@'
tRp205
F0.096765041351318359
tp206
a(I3
g3
(g5
S'\x95C\x8bl\xe7\xdbS@'
tRp207
F0.051858901977539062
tp208
a(I3
g3
(g5
S'\x95C\x8bl\xe7\xdbS@'
tRp209
F0.047070026397705078
tp210
a(I3
g3
(g5
S'\x95C\x8bl\xe7\xdbS@'
tRp211
F0.049304962158203125
tp212
a(I3
g3
(g5
S'@\xdd$\x06\x81\x95\xfd?'
tRp213
F3.7690739631652832
tp214
a(I3
g3
(g5
S'@\xdd$\x06\x81\x95\xfd?'
tRp215
F0.061185836791992188
tp216
a(I3
g3
(g5
S'@\xdd$\x06\x81\x95\xfd?'
tRp217
F0.091386795043945312
tp218
a(I3
g3
(g5
S'@\xdd$\x06\x81\x95\xfd?'
tRp219
F0.094819068908691406
tp220
a(I3
g3
(g5
S'@\xdd$\x06\x81\x95\xfd?'
tRp221
F0.096713066101074219
tp222
a(I3
g3
(g5
S'@\xdd$\x06\x81\x95\xfd?'
tRp223
F4.5076680183410645
tp224
a(I3
g3
(g5
S'@\xdd$\x06\x81\x95\xfd?'
tRp225
F0.10382699966430664
tp226
a(I3
g3
(g5
S'@\xdd$\x06\x81\x95\xfd?'
tRp227
F0.10528016090393066
tp228
a(I3
g3
(g5
S'@\xdd$\x06\x81\x95\xfd?'
tRp229
F0.10990500450134277
tp230
a(I3
g3
(g5
S'@\xdd$\x06\x81\x95\xfd?'
tRp231
F0.10951089859008789
tp232
a(I3
g3
(g5
S'\x95C\x8bl\xe7\xdbS@'
tRp233
F5.0645899772644043
tp234
a(I3
g3
(g5
S'\x95C\x8bl\xe7\xdbS@'
tRp235
F0.068050146102905273
tp236
a(I3
g3
(g5
S'\x95C\x8bl\xe7\xdbS@'
tRp237
F0.069828987121582031
tp238
a(I3
g3
(g5
S'\x95C\x8bl\xe7\xdbS@'
tRp239
F0.071181058883666992
tp240
a(I3
g3
(g5
S'\x95C\x8bl\xe7\xdbS@'
tRp241
F0.07279515266418457
tp242
a(I3
g3
(g5
S'@\xdd$\x06\x81\x95\xfd?'
tRp243
F7.2963228225708008
tp244
a(I3
g3
(g5
S'@\xdd$\x06\x81\x95\xfd?'
tRp245
F1.3939628601074219
tp246
a(I3
g3
(g5
S'@\xdd$\x06\x81\x95\xfd?'
tRp247
F1.4385011196136475
tp248
a(I3
g3
(g5
S'@\xdd$\x06\x81\x95\xfd?'
tRp249
F1.3046000003814697
tp250
a(I3
g3
(g5
S'@\xdd$\x06\x81\x95\xfd?'
tRp251
F1.3073298931121826
tp252
a(I3
g3
(g5
S'@\xdd$\x06\x81\x95\xfd?'
tRp253
F7.9664938449859619
tp254
a(I3
g3
(g5
S'@\xdd$\x06\x81\x95\xfd?'
tRp255
F0.36071681976318359
tp256
a(I3
g3
(g5
S'@\xdd$\x06\x81\x95\xfd?'
tRp257
F0.35840010643005371
tp258
a(I3
g3
(g5
S'@\xdd$\x06\x81\x95\xfd?'
tRp259
F0.35945701599121094
tp260
a(I3
g3
(g5
S'@\xdd$\x06\x81\x95\xfd?'
tRp261
F0.40409588813781738
tp262
a(I3
g3
(g5
S'@\xdd$\x06\x81\x95\xfd?'
tRp263
F9.6389741897583008
tp264
a(I3
g3
(g5
S'@\xdd$\x06\x81\x95\xfd?'
tRp265
F1.6170399188995361
tp266
a(I3
g3
(g5
S'@\xdd$\x06\x81\x95\xfd?'
tRp267
F1.6278250217437744
tp268
a(I3
g3
(g5
S'@\xdd$\x06\x81\x95\xfd?'
tRp269
F1.6258420944213867
tp270
aa(lp271
(I3
g3
(g5
S'\x94\x18\x04V\x0e\x11`@'
tRp272
F0.042503118515014648
tp273
a(I3
g3
(g5
S'\x1a\x04V\x0e-\xc2V@'
tRp274
F0.12308096885681152
tp275
a(I3
g3
(g5
S'.\xb2\x9d\xef\xa7\x86V@'
tRp276
F0.12163996696472168
tp277
a(I3
g3
(g5
S'.\xb2\x9d\xef\xa7\x86V@'
tRp278
F0.053287029266357422
tp279
a(I3
g3
(g5
S'.\xb2\x9d\xef\xa7\x86V@'
tRp280
F0.05687713623046875
tp281
a(I3
g3
(g5
S'\x16\xaeG\xe1zdP@'
tRp282
F4.4796609878540039
tp283
a(I3
g3
(g5
S'@\n\xd7\xa3pMJ@'
tRp284
F0.12541103363037109
tp285
a(I3
g3
(g5
S'\x00\x00\x00\x00\x00\x00\x00\x00'
tRp286
F0.13637495040893555
tp287
aa(lp288
(I3
g3
(g5
S'J\x0c\x02+\x87\xd6J@'
tRp289
F0.041676998138427734
tp290
a(I3
g3
(g5
S'\xa6\x9b\xc4 \xb0\xe2G@'
tRp291
F0.11425304412841797
tp292
a(I3
g3
(g5
S'\xa6\x9b\xc4 \xb0\xe2G@'
tRp293
F0.13098001480102539
tp294
a(I3
g3
(g5
S' \x85\xebQ\xb8\xde=@'
tRp295
F0.13536691665649414
tp296
a(I3
g3
(g5
S' \x85\xebQ\xb8\xde=@'
tRp297
F0.16575503349304199
tp298
a(I3
g3
(g5
S'X\xb8\x1e\x85\xeb\xd1 @'
tRp299
F5.4221229553222656
tp300
a(I3
g3
(g5
S'X\xb8\x1e\x85\xeb\xd1 @'
tRp301
F0.053002834320068359
tp302
a(I3
g3
(g5
S'X\xb8\x1e\x85\xeb\xd1 @'
tRp303
F0.05463409423828125
tp304
a(I3
g3
(g5
S'X\xb8\x1e\x85\xeb\xd1 @'
tRp305
F0.055993080139160156
tp306
a(I3
g3
(g5
S'X\xb8\x1e\x85\xeb\xd1 @'
tRp307
F0.057622909545898438
tp308
a(I3
g3
(g5
S' \x85\xebQ\xb8\xde=@'
tRp309
F6.0982000827789307
tp310
a(I3
g3
(g5
S'X\xb8\x1e\x85\xeb\xd1 @'
tRp311
F0.14940500259399414
tp312
a(I3
g3
(g5
S'X\xb8\x1e\x85\xeb\xd1 @'
tRp313
F0.16105198860168457
tp314
a(I3
g3
(g5
S'X\xb8\x1e\x85\xeb\xd1 @'
tRp315
F0.17442703247070312
tp316
a(I3
g3
(g5
S'X\xb8\x1e\x85\xeb\xd1 @'
tRp317
F0.17932915687561035
tp318
a(I3
g3
(g5
S'X\xb8\x1e\x85\xeb\xd1 @'
tRp319
F6.5136818885803223
tp320
a(I3
g3
(g5
S'X\xb8\x1e\x85\xeb\xd1 @'
tRp321
F0.14058017730712891
tp322
a(I3
g3
(g5
S'X\xb8\x1e\x85\xeb\xd1 @'
tRp323
F0.14175701141357422
tp324
a(I3
g3
(g5
S'X\xb8\x1e\x85\xeb\xd1 @'
tRp325
F0.14414191246032715
tp326
a(I3
g3
(g5
S'X\xb8\x1e\x85\xeb\xd1 @'
tRp327
F0.14675188064575195
tp328
a(I3
g3
(g5
S'X\xb8\x1e\x85\xeb\xd1 @'
tRp329
F7.4915430545806885
tp330
a(I3
g3
(g5
S'X\xb8\x1e\x85\xeb\xd1 @'
tRp331
F0.20825600624084473
tp332
a(I3
g3
(g5
S'X\xb8\x1e\x85\xeb\xd1 @'
tRp333
F0.19770216941833496
tp334
a(I3
g3
(g5
S'X\xb8\x1e\x85\xeb\xd1 @'
tRp335
F0.20416784286499023
tp336
a(I3
g3
(g5
S'X\xb8\x1e\x85\xeb\xd1 @'
tRp337
F0.20194101333618164
tp338
a(I3
g3
(g5
S'X\xb8\x1e\x85\xeb\xd1 @'
tRp339
F7.9518458843231201
tp340
a(I3
g3
(g5
S'X\xb8\x1e\x85\xeb\xd1 @'
tRp341
F0.17652702331542969
tp342
a(I3
g3
(g5
S'X\xb8\x1e\x85\xeb\xd1 @'
tRp343
F0.18311500549316406
tp344
a(I3
g3
(g5
S'X\xb8\x1e\x85\xeb\xd1 @'
tRp345
F0.17901706695556641
tp346
a(I3
g3
(g5
S'X\xb8\x1e\x85\xeb\xd1 @'
tRp347
F0.19734501838684082
tp348
a(I3
g3
(g5
S'X\xb8\x1e\x85\xeb\xd1 @'
tRp349
F8.579941987991333
tp350
a(I3
g3
(g5
S'X\xb8\x1e\x85\xeb\xd1 @'
tRp351
F0.1776878833770752
tp352
a(I3
g3
(g5
S'X\xb8\x1e\x85\xeb\xd1 @'
tRp353
F0.17211103439331055
tp354
a(I3
g3
(g5
S'X\xb8\x1e\x85\xeb\xd1 @'
tRp355
F0.18007302284240723
tp356
aa(lp357
(I3
g3
(g5
S'\xd1Mb\x10X\x89G@'
tRp358
F0.041999101638793945
tp359
a(I3
g3
(g5
S'dffff\x862@'
tRp360
F0.10494613647460938
tp361
a(I3
g3
(g5
S'dffff\x862@'
tRp362
F0.11329483985900879
tp363
a(I3
g3
(g5
S'<5^\xbaI\x8c<@'
tRp364
F0.13197207450866699
tp365
a(I3
g3
(g5
S'<5^\xbaI\x8c<@'
tRp366
F0.058082103729248047
tp367
a(I3
g3
(g5
S'\x15\xd9\xce\xf7S\xe3K@'
tRp368
F4.591188907623291
tp369
a(I3
g3
(g5
S'\x00\x00\x00\x00\x00\x00\x00\x00'
tRp370
F0.061454057693481445
tp371
aa(lp372
(I3
g3
(g5
S'@5^\xbaI\xdcQ@'
tRp373
F0.041458845138549805
tp374
a(I3
g3
(g5
S' \x85\xebQ\xb8\xfe<@'
tRp375
F0.12007403373718262
tp376
a(I3
g3
(g5
S' \x85\xebQ\xb8\xfe<@'
tRp377
F0.13801789283752441
tp378
a(I3
g3
(g5
S'l\xbct\x93\x18TN@'
tRp379
F0.11732196807861328
tp380
a(I3
g3
(g5
S'l\xbct\x93\x18TN@'
tRp381
F0.049010992050170898
tp382
a(I3
g3
(g5
S'\x98C\x8bl\xe7\x1b3@'
tRp383
F3.7506890296936035
tp384
a(I3
g3
(g5
S' \x85\xebQ\xb8\xfe<@'
tRp385
F0.069682121276855469
tp386
a(I3
g3
(g5
S'\xf8(\\\x8f\xc252@'
tRp387
F0.074919939041137695
tp388
a(I3
g3
(g5
S'T\xb8\x1e\x85\xeb\x91%@'
tRp389
F0.31813383102416992
tp390
a(I3
g3
(g5
S'\x00\x00\x00\x00\x00\x00\x00\x00'
tRp391
F0.39048099517822266
tp392
aa(lp393
(I3
g3
(g5
S'{\x14\xaeG\xe1zD@'
tRp394
F0.042150974273681641
tp395
a(I3
g3
(g5
S'{\x14\xaeG\xe1zD@'
tRp396
F0.093040943145751953
tp397
a(I3
g3
(g5
S'{\x14\xaeG\xe1zD@'
tRp398
F0.049365997314453125
tp399
a(I3
g3
(g5
S'6^\xbaI\x0c\xf2O@'
tRp400
F0.048189878463745117
tp401
a(I3
g3
(g5
S'6^\xbaI\x0c\xf2O@'
tRp402
F0.048828125
tp403
a(I3
g3
(g5
S'\x83\xc0\xca\xa1E\xe6L@'
tRp404
F4.1426868438720703
tp405
a(I3
g3
(g5
S'\xd8\xa3p=\n\xb71@'
tRp406
F0.31379890441894531
tp407
a(I3
g3
(g5
S'\x00\x00\x00\x00\x00\x00\x00\x00'
tRp408
F0.24066805839538574
tp409
aa(lp410
(I3
g3
(g5
S'V\x0e-\xb2\x9d\x87W@'
tRp411
F0.042029857635498047
tp412
a(I3
g3
(g5
S'\\d;\xdfO\r7@'
tRp413
F0.11986398696899414
tp414
a(I3
g3
(g5
S'\\d;\xdfO\r7@'
tRp415
F0.1212151050567627
tp416
a(I3
g3
(g5
S'\xd1"\xdb\xf9~zV@'
tRp417
F0.07421422004699707
tp418
a(I3
g3
(g5
S'\xd1"\xdb\xf9~zV@'
tRp419
F0.049104928970336914
tp420
a(I3
g3
(g5
S'\\d;\xdfO\r7@'
tRp421
F4.5374271869659424
tp422
a(I3
g3
(g5
S'\\d;\xdfO\r7@'
tRp423
F0.21831607818603516
tp424
a(I3
g3
(g5
S'\\d;\xdfO\r7@'
tRp425
F0.22250008583068848
tp426
a(I3
g3
(g5
S'\\d;\xdfO\r7@'
tRp427
F0.2481839656829834
tp428
a(I3
g3
(g5
S'\\d;\xdfO\r7@'
tRp429
F0.30011510848999023
tp430
a(I3
g3
(g5
S'\\d;\xdfO\r7@'
tRp431
F5.6160600185394287
tp432
a(I3
g3
(g5
S'\\d;\xdfO\r7@'
tRp433
F0.27948284149169922
tp434
a(I3
g3
(g5
S'\\d;\xdfO\r7@'
tRp435
F0.27977204322814941
tp436
a(I3
g3
(g5
S'\\d;\xdfO\r7@'
tRp437
F0.29465389251708984
tp438
a(I3
g3
(g5
S'\\d;\xdfO\r7@'
tRp439
F0.29253983497619629
tp440
a(I3
g3
(g5
S'\\d;\xdfO\r7@'
tRp441
F6.6609261035919189
tp442
a(I3
g3
(g5
S'\\d;\xdfO\r7@'
tRp443
F0.53143906593322754
tp444
a(I3
g3
(g5
S'\\d;\xdfO\r7@'
tRp445
F0.36985492706298828
tp446
a(I3
g3
(g5
S'\\d;\xdfO\r7@'
tRp447
F0.37792587280273438
tp448
a(I3
g3
(g5
S'\\d;\xdfO\r7@'
tRp449
F0.36538505554199219
tp450
a(I3
g3
(g5
S'\\d;\xdfO\r7@'
tRp451
F7.8110079765319824
tp452
a(I3
g3
(g5
S'\\d;\xdfO\r7@'
tRp453
F0.37389302253723145
tp454
a(I3
g3
(g5
S'\\d;\xdfO\r7@'
tRp455
F0.3901970386505127
tp456
a(I3
g3
(g5
S'\\d;\xdfO\r7@'
tRp457
F0.38143801689147949
tp458
a(I3
g3
(g5
S'\\d;\xdfO\r7@'
tRp459
F0.39774489402770996
tp460
a(I3
g3
(g5
S'\\d;\xdfO\r7@'
tRp461
F8.7462968826293945
tp462
a(I3
g3
(g5
S'\\d;\xdfO\r7@'
tRp463
F0.37266206741333008
tp464
a(I3
g3
(g5
S'\\d;\xdfO\r7@'
tRp465
F0.37091302871704102
tp466
a(I3
g3
(g5
S'\\d;\xdfO\r7@'
tRp467
F0.37593698501586914
tp468
a(I3
g3
(g5
S'\\d;\xdfO\r7@'
tRp469
F0.37656307220458984
tp470
a(I3
g3
(g5
S'\xd1"\xdb\xf9~zV@'
tRp471
F9.0989429950714111
tp472
a(I3
g3
(g5
S'\xd1"\xdb\xf9~zV@'
tRp473
F0.091621160507202148
tp474
a(I3
g3
(g5
S'\xd1"\xdb\xf9~zV@'
tRp475
F0.093375921249389648
tp476
a(I3
g3
(g5
S'\xd1"\xdb\xf9~zV@'
tRp477
F0.095557928085327148
tp478
aa.