(lp1
(lp2
(I6
cnumpy.core.multiarray
scalar
p3
(cnumpy
dtype
p4
(S'f8'
I0
I1
tRp5
(I3
S'<'
NNNI-1
I-1
I0
tbS'\x81\x95C\x8bl\xf7Q@'
tRp6
F0.073777914047241211
tp7
a(I6
g3
(g5
S'\xb0rh\x91\xed\\=@'
tRp8
F0.17988395690917969
tp9
a(I6
g3
(g5
S'-\xb2\x9d\xef\xa7NY@'
tRp10
F0.23484015464782715
tp11
a(I6
g3
(g5
S'-\xb2\x9d\xef\xa7NY@'
tRp12
F0.10054802894592285
tp13
a(I6
g3
(g5
S'-\xb2\x9d\xef\xa7NY@'
tRp14
F0.11264991760253906
tp15
a(I6
g3
(g5
S'\x81\x95C\x8bl\xf7Q@'
tRp16
F5.8078820705413818
tp17
a(I6
g3
(g5
S'\xf0\xa7\xc6K7YE@'
tRp18
F10.711714029312134
tp19
a(I6
g3
(g5
S'`\x8f\xc2\xf5(\x1c!@'
tRp20
F2.3187499046325684
tp21
a(I6
g3
(g5
S'\x00\x00\x00\x00\x00\x00\x00\x00'
tRp22
F1.6298909187316895
tp23
aa(lp24
(I6
g3
(g5
S'\xed|?5^"Q@'
tRp25
F0.073785066604614258
tp26
a(I6
g3
(g5
S'\xff\xff\xff\xff\xff?@@'
tRp27
F0.22269797325134277
tp28
a(I6
g3
(g5
S'\x00\x00\x00\x00\x00\x00\x00\x00'
tRp29
F0.23190999031066895
tp30
aa(lp31
(I6
g3
(g5
S'\xd5x\xe9&1hD@'
tRp32
F0.072995901107788086
tp33
a(I6
g3
(g5
S'\x00\x00\x00\x00\x00\x00\x00\x00'
tRp34
F0.19958090782165527
tp35
aa(lp36
(I6
g3
(g5
S'\xe2z\x14\xaeGAH@'
tRp37
F0.073583126068115234
tp38
a(I6
g3
(g5
S'p\xe7\xfb\xa9\xf1R+@'
tRp39
F0.31797218322753906
tp40
a(I6
g3
(g5
S'Ob\x10X9\xc4K@'
tRp41
F0.4028630256652832
tp42
a(I6
g3
(g5
S'Ob\x10X9\xc4K@'
tRp43
F0.084985971450805664
tp44
a(I6
g3
(g5
S'Ob\x10X9\xc4K@'
tRp45
F0.091086149215698242
tp46
a(I6
g3
(g5
S'Ob\x10X9\xc4K@'
tRp47
F6.7610220909118652
tp48
a(I6
g3
(g5
S'Ob\x10X9\xc4K@'
tRp49
F0.09722590446472168
tp50
a(I6
g3
(g5
S'Ob\x10X9\xc4K@'
tRp51
F0.1020350456237793
tp52
a(I6
g3
(g5
S'Ob\x10X9\xc4K@'
tRp53
F0.10632205009460449
tp54
a(I6
g3
(g5
S'Ob\x10X9\xc4K@'
tRp55
F0.11023712158203125
tp56
a(I6
g3
(g5
S'p\xe7\xfb\xa9\xf1R+@'
tRp57
F9.5082402229309082
tp58
a(I6
g3
(g5
S'p\xe7\xfb\xa9\xf1R+@'
tRp59
F2.1236121654510498
tp60
a(I6
g3
(g5
S'p\xe7\xfb\xa9\xf1R+@'
tRp61
F0.6976161003112793
tp62
a(I6
g3
(g5
S'p\xe7\xfb\xa9\xf1R+@'
tRp63
F1.1192991733551025
tp64
a(I6
g3
(g5
S'p\xe7\xfb\xa9\xf1R+@'
tRp65
F2.0797059535980225
tp66
a(I6
g3
(g5
S'p\xe7\xfb\xa9\xf1R+@'
tRp67
F11.830004930496216
tp68
a(I6
g3
(g5
S'p\xe7\xfb\xa9\xf1R+@'
tRp69
F0.75179719924926758
tp70
aa(lp71
(I6
g3
(g5
S'b\x10X9\xb48O@'
tRp72
F0.072973966598510742
tp73
a(I6
g3
(g5
S'\xa6\x9b\xc4 \xb0rI@'
tRp74
F0.20916509628295898
tp75
a(I6
g3
(g5
S'5^\xbaI\x0czS@'
tRp76
F0.24758791923522949
tp77
a(I6
g3
(g5
S'5^\xbaI\x0czS@'
tRp78
F0.098785161972045898
tp79
a(I6
g3
(g5
S'5^\xbaI\x0czS@'
tRp80
F0.1161959171295166
tp81
a(I6
g3
(g5
S'\x00\x00\x00\x00\x00\x00\x00\x00'
tRp82
F5.4562969207763672
tp83
aa(lp84
(I6
g3
(g5
S'\xbbI\x0c\x02+\xffQ@'
tRp85
F0.072329044342041016
tp86
a(I6
g3
(g5
S'\x00\x00\x00\x00\x00\x00\x00\x00'
tRp87
F0.21774697303771973
tp88
aa(lp89
(I6
g3
(g5
S'\x14\xaeG\xe1z\\V@'
tRp90
F0.072824001312255859
tp91
a(I6
g3
(g5
S'\xb5\xf3\xfd\xd4xIE@'
tRp92
F0.088305950164794922
tp93
a(I6
g3
(g5
S'\xf0(\\\x8f\xc2u&@'
tRp94
F0.11078596115112305
tp95
a(I6
g3
(g5
S'\x14\xaeG\xe1z\\V@'
tRp96
F0.56511187553405762
tp97
a(I6
g3
(g5
S'\x14\xaeG\xe1z\\V@'
tRp98
F0.088831901550292969
tp99
a(I6
g3
(g5
S'\x14\xaeG\xe1z\\V@'
tRp100
F7.2743420600891113
tp101
a(I6
g3
(g5
S'\x14\xaeG\xe1z\\V@'
tRp102
F0.098207950592041016
tp103
a(I6
g3
(g5
S'\x14\xaeG\xe1z\\V@'
tRp104
F0.10288906097412109
tp105
a(I6
g3
(g5
S'\x14\xaeG\xe1z\\V@'
tRp106
F0.10905218124389648
tp107
a(I6
g3
(g5
S'\x14\xaeG\xe1z\\V@'
tRp108
F0.1110079288482666
tp109
a(I6
g3
(g5
S'\xf0(\\\x8f\xc2u&@'
tRp110
F19.169656991958618
tp111
a(I6
g3
(g5
S'\xf0(\\\x8f\xc2u&@'
tRp112
F42.237185001373291
tp113
a(I6
g3
(g5
S'\xf0(\\\x8f\xc2u&@'
tRp114
F12.258462905883789
tp115
a(I6
g3
(g5
S'\xf0(\\\x8f\xc2u&@'
tRp116
F42.127681016921997
tp117
a(I6
g3
(g5
S'\xf0(\\\x8f\xc2u&@'
tRp118
F48.223108053207397
tp119
a(I6
g3
(g5
S'\xd6\xa3p=\n\xe7L@'
tRp120
F28.216881990432739
tp121
a(I6
g3
(g5
S'\x00\x00\x00\x00\x00\x00\x00\x00'
tRp122
F36.860876083374023
tp123
aa(lp124
(I6
g3
(g5
S'\x92\xed|?5\x86X@'
tRp125
F0.072823047637939453
tp126
a(I6
g3
(g5
S'\x01\x00\x00\x00\x00\x10N@'
tRp127
F0.19938802719116211
tp128
a(I6
g3
(g5
S'|\x14\xaeG\xe1\xc2U@'
tRp129
F0.35153603553771973
tp130
a(I6
g3
(g5
S'|\x14\xaeG\xe1\xc2U@'
tRp131
F0.084927082061767578
tp132
a(I6
g3
(g5
S'|\x14\xaeG\xe1\xc2U@'
tRp133
F0.088660955429077148
tp134
a(I6
g3
(g5
S'\x10\xac\x1cZd{*@'
tRp135
F4.9171040058135986
tp136
a(I6
g3
(g5
S'\x10\xac\x1cZd{*@'
tRp137
F0.10991716384887695
tp138
a(I6
g3
(g5
S'\x10\xac\x1cZd{*@'
tRp139
F0.11461400985717773
tp140
a(I6
g3
(g5
S'\x10\xac\x1cZd{*@'
tRp141
F0.18899917602539062
tp142
a(I6
g3
(g5
S'\x00\x00\x00\x00\x00\x00\x00\x00'
tRp143
F0.17776679992675781
tp144
aa(lp145
(I6
g3
(g5
S'\x96C\x8bl\xe7\xfbT@'
tRp146
F0.072775840759277344
tp147
a(I6
g3
(g5
S'\x80j\xbct\x93\xc8G@'
tRp148
F0.32169699668884277
tp149
a(I6
g3
(g5
S'\x00\x00\x00\x00\x00\x00\x00\x00'
tRp150
F0.2694859504699707
tp151
aa(lp152
(I6
g3
(g5
S'\x12\x83\xc0\xca\xa1\xb5R@'
tRp153
F0.072333097457885742
tp154
a(I6
g3
(g5
S':\xb4\xc8v\xbe\x1f?@'
tRp155
F0.19902896881103516
tp156
a(I6
g3
(g5
S'x\xbe\x9f\x1a/=1@'
tRp157
F0.24877810478210449
tp158
a(I6
g3
(g5
S'\xfe\xd4x\xe9&\xc1W@'
tRp159
F0.20664691925048828
tp160
a(I6
g3
(g5
S'\xfe\xd4x\xe9&\xc1W@'
tRp161
F0.27376079559326172
tp162
a(I6
g3
(g5
S'\x00\x00\x00\x00\x00\x00\x00\x00'
tRp163
F9.8676939010620117
tp164
aa(lp165
(I6
g3
(g5
S'\xbdt\x93\x18\x04^S@'
tRp166
F0.072889089584350586
tp167
a(I6
g3
(g5
S'l\xbct\x93\x18\x84=@'
tRp168
F0.1839148998260498
tp169
a(I6
g3
(g5
S'<\xdfO\x8d\x97\xee7@'
tRp170
F0.65562105178833008
tp171
a(I6
g3
(g5
S'<\xdfO\x8d\x97\xee7@'
tRp172
F0.2890322208404541
tp173
a(I6
g3
(g5
S'<\xdfO\x8d\x97\xee7@'
tRp174
F0.32235121726989746
tp175
a(I6
g3
(g5
S'l\xbct\x93\x18\x84=@'
tRp176
F5.5612750053405762
tp177
a(I6
g3
(g5
S'l\xbct\x93\x18\x84=@'
tRp178
F0.29997682571411133
tp179
a(I6
g3
(g5
S'l\xbct\x93\x18\x84=@'
tRp180
F0.30549502372741699
tp181
a(I6
g3
(g5
S'l\xbct\x93\x18\x84=@'
tRp182
F0.36274504661560059
tp183
a(I6
g3
(g5
S'l\xbct\x93\x18\x84=@'
tRp184
F0.26179218292236328
tp185
a(I6
g3
(g5
S'l\xbct\x93\x18\x84=@'
tRp186
F7.2091679573059082
tp187
a(I6
g3
(g5
S'l\xbct\x93\x18\x84=@'
tRp188
F0.17267704010009766
tp189
a(I6
g3
(g5
S'l\xbct\x93\x18\x84=@'
tRp190
F0.17789006233215332
tp191
a(I6
g3
(g5
S'l\xbct\x93\x18\x84=@'
tRp192
F0.18219590187072754
tp193
a(I6
g3
(g5
S'l\xbct\x93\x18\x84=@'
tRp194
F0.32364487648010254
tp195
a(I6
g3
(g5
S'l\xbct\x93\x18\x84=@'
tRp196
F8.3889801502227783
tp197
a(I6
g3
(g5
S'l\xbct\x93\x18\x84=@'
tRp198
F0.31224703788757324
tp199
aa(lp200
(I6
g3
(g5
S'\xfa~j\xbctsN@'
tRp201
F0.072556972503662109
tp202
a(I6
g3
(g5
S'\x8bl\xe7\xfb\xa9\x91@@'
tRp203
F0.19164514541625977
tp204
a(I6
g3
(g5
S'`ffff\xe6\x1a@'
tRp205
F0.27012896537780762
tp206
a(I6
g3
(g5
S'\xdfO\x8d\x97nJR@'
tRp207
F0.35740208625793457
tp208
a(I6
g3
(g5
S'\xdfO\x8d\x97nJR@'
tRp209
F0.21785211563110352
tp210
a(I6
g3
(g5
S'\x00\x00\x00\x00\x00\x00\x00\x00'
tRp211
F12.03736400604248
tp212
aa(lp213
(I6
g3
(g5
S'\x14\xaeG\xe1z\xf4K@'
tRp214
F0.072964906692504883
tp215
a(I6
g3
(g5
S'\xb8\x1e\x85\xebQ8<@'
tRp216
F0.19381904602050781
tp217
a(I6
g3
(g5
S'\xb8\x1e\x85\xebQ8<@'
tRp218
F0.31927394866943359
tp219
a(I6
g3
(g5
S'\xbct\x93\x18\x04\xbeV@'
tRp220
F0.27276206016540527
tp221
a(I6
g3
(g5
S'\xbct\x93\x18\x04\xbeV@'
tRp222
F0.089740991592407227
tp223
a(I6
g3
(g5
S'\x00\xac\x1cZd;\xf1?'
tRp224
F11.177076101303101
tp225
a(I6
g3
(g5
S'\x00\xac\x1cZd;\xf1?'
tRp226
F2.295820951461792
tp227
a(I6
g3
(g5
S'\x00\xac\x1cZd;\xf1?'
tRp228
F2.2995359897613525
tp229
a(I6
g3
(g5
S'\x00\xac\x1cZd;\xf1?'
tRp230
F2.30696702003479
tp231
a(I6
g3
(g5
S'\x00\xac\x1cZd;\xf1?'
tRp232
F2.3065550327301025
tp233
a(I6
g3
(g5
S'\xbct\x93\x18\x04\xbeV@'
tRp234
F7.457798957824707
tp235
a(I6
g3
(g5
S'\xbct\x93\x18\x04\xbeV@'
tRp236
F0.12138509750366211
tp237
a(I6
g3
(g5
S'\xbct\x93\x18\x04\xbeV@'
tRp238
F0.12686300277709961
tp239
a(I6
g3
(g5
S'\xbct\x93\x18\x04\xbeV@'
tRp240
F0.13118696212768555
tp241
a(I6
g3
(g5
S'\xbct\x93\x18\x04\xbeV@'
tRp242
F0.1357882022857666
tp243
a(I6
g3
(g5
S'\x00\xac\x1cZd;\xf1?'
tRp244
F16.355679988861084
tp245
a(I6
g3
(g5
S'\x00\xac\x1cZd;\xf1?'
tRp246
F14.921129941940308
tp247
aa(lp248
(I6
g3
(g5
S'\x94C\x8bl\xe7KL@'
tRp249
F0.072946071624755859
tp250
a(I6
g3
(g5
S'`\xe5\xd0"\xdb\xd9@@'
tRp251
F0.077771186828613281
tp252
a(I6
g3
(g5
S'`\xe5\xd0"\xdb\xd9@@'
tRp253
F0.3292078971862793
tp254
a(I6
g3
(g5
S'\x95C\x8bl\xe7\xdbS@'
tRp255
F1.1254520416259766
tp256
a(I6
g3
(g5
S'\x95C\x8bl\xe7\xdbS@'
tRp257
F0.37610793113708496
tp258
a(I6
g3
(g5
S'\x95C\x8bl\xe7\xdbS@'
tRp259
F35.629832983016968
tp260
a(I6
g3
(g5
S'\x95C\x8bl\xe7\xdbS@'
tRp261
F0.098971843719482422
tp262
a(I6
g3
(g5
S'\x95C\x8bl\xe7\xdbS@'
tRp263
F0.10310721397399902
tp264
a(I6
g3
(g5
S'\x95C\x8bl\xe7\xdbS@'
tRp265
F0.10909199714660645
tp266
a(I6
g3
(g5
S'\x95C\x8bl\xe7\xdbS@'
tRp267
F0.11326408386230469
tp268
a(I6
g3
(g5
S'\x94C\x8bl\xe7KL@'
tRp269
F15.761041164398193
tp270
a(I6
g3
(g5
S'\x94C\x8bl\xe7KL@'
tRp271
F4.6060791015625
tp272
a(I6
g3
(g5
S'\x94C\x8bl\xe7KL@'
tRp273
F5.2062909603118896
tp274
a(I6
g3
(g5
S'\x94C\x8bl\xe7KL@'
tRp275
F5.3542258739471436
tp276
a(I6
g3
(g5
S'\x94C\x8bl\xe7KL@'
tRp277
F4.53249192237854
tp278
a(I6
g3
(g5
S'\x94C\x8bl\xe7KL@'
tRp279
F20.036947965621948
tp280
a(I6
g3
(g5
S'\x94C\x8bl\xe7KL@'
tRp281
F8.594871997833252
tp282
aa(lp283
(I6
g3
(g5
S'<\xdfO\x8d\x97nX@'
tRp284
F0.073001861572265625
tp285
a(I6
g3
(g5
S'\\d;\xdfO\x1dN@'
tRp286
F0.21257710456848145
tp287
a(I6
g3
(g5
S'\x00\x00\x00\x00\x00\x00\x00\x00'
tRp288
F0.35039997100830078
tp289
aa(lp290
(I6
g3
(g5
S'43333\xe3A@'
tRp291
F0.072601795196533203
tp292
a(I6
g3
(g5
S' \x85\xebQ\xb8\x9e\x17@'
tRp293
F0.23224997520446777
tp294
a(I6
g3
(g5
S'X\xb8\x1e\x85\xeb\xd1 @'
tRp295
F0.48159909248352051
tp296
a(I6
g3
(g5
S'X\xb8\x1e\x85\xeb\xd1 @'
tRp297
F0.083941936492919922
tp298
a(I6
g3
(g5
S'X\xb8\x1e\x85\xeb\xd1 @'
tRp299
F0.089121103286743164
tp300
a(I6
g3
(g5
S'X\xb8\x1e\x85\xeb\xd1 @'
tRp301
F5.0590879917144775
tp302
a(I6
g3
(g5
S'X\xb8\x1e\x85\xeb\xd1 @'
tRp303
F0.23029184341430664
tp304
a(I6
g3
(g5
S'X\xb8\x1e\x85\xeb\xd1 @'
tRp305
F0.23724102973937988
tp306
a(I6
g3
(g5
S'X\xb8\x1e\x85\xeb\xd1 @'
tRp307
F0.24134588241577148
tp308
a(I6
g3
(g5
S'X\xb8\x1e\x85\xeb\xd1 @'
tRp309
F0.24284791946411133
tp310
a(I6
g3
(g5
S'X\xb8\x1e\x85\xeb\xd1 @'
tRp311
F6.7180180549621582
tp312
a(I6
g3
(g5
S'X\xb8\x1e\x85\xeb\xd1 @'
tRp313
F0.25810098648071289
tp314
a(I6
g3
(g5
S'X\xb8\x1e\x85\xeb\xd1 @'
tRp315
F0.27019000053405762
tp316
a(I6
g3
(g5
S'X\xb8\x1e\x85\xeb\xd1 @'
tRp317
F0.27536487579345703
tp318
a(I6
g3
(g5
S'X\xb8\x1e\x85\xeb\xd1 @'
tRp319
F0.2728419303894043
tp320
a(I6
g3
(g5
S'X\xb8\x1e\x85\xeb\xd1 @'
tRp321
F8.1756598949432373
tp322
a(I6
g3
(g5
S'X\xb8\x1e\x85\xeb\xd1 @'
tRp323
F0.31541705131530762
tp324
aa(lp325
(I6
g3
(g5
S'$\x06\x81\x95C\x93R@'
tRp326
F0.073822975158691406
tp327
a(I6
g3
(g5
S'\x10\x83\xc0\xca\xa1\xe5?@'
tRp328
F0.17635297775268555
tp329
a(I6
g3
(g5
S'6\xb4\xc8v\xbe\xdf5@'
tRp330
F0.34232306480407715
tp331
a(I6
g3
(g5
S'`;\xdfO\x8d\x17-@'
tRp332
F0.33696198463439941
tp333
a(I6
g3
(g5
S'`;\xdfO\x8d\x17-@'
tRp334
F0.26260089874267578
tp335
a(I6
g3
(g5
S'\x00\x00\x00\x00\x00\x00\x00\x00'
tRp336
F10.904814958572388
tp337
aa(lp338
(I6
g3
(g5
S'\xf0\xa7\xc6K79E@'
tRp339
F0.073379993438720703
tp340
a(I6
g3
(g5
S'd\x10X9\xb4\x88:@'
tRp341
F0.22989296913146973
tp342
a(I6
g3
(g5
S'\xdc\xce\xf7S\xe3\xa5 @'
tRp343
F0.25963687896728516
tp344
a(I6
g3
(g5
S'T\xb8\x1e\x85\xeb\x91%@'
tRp345
F0.24080014228820801
tp346
a(I6
g3
(g5
S'l\xbct\x93\x18TN@'
tRp347
F0.32908892631530762
tp348
a(I6
g3
(g5
S'\x00\x00\x00\x00\x00\x00\x00\x00'
tRp349
F8.3098800182342529
tp350
aa(lp351
(I6
g3
(g5
S'\xf6(\\\x8f\xc2uR@'
tRp352
F0.072402000427246094
tp353
a(I6
g3
(g5
S'\xf0\xd2Mb\x10X,@'
tRp354
F0.25548982620239258
tp355
a(I6
g3
(g5
S'6^\xbaI\x0c\xf2O@'
tRp356
F0.2405550479888916
tp357
a(I6
g3
(g5
S'6^\xbaI\x0c\xf2O@'
tRp358
F0.098586082458496094
tp359
a(I6
g3
(g5
S'6^\xbaI\x0c\xf2O@'
tRp360
F0.11394381523132324
tp361
a(I6
g3
(g5
S'\x88A`\xe5\xd0\x02?@'
tRp362
F8.5712778568267822
tp363
a(I6
g3
(g5
S'`;\xdfO\x8d\x97*@'
tRp364
F2.0357160568237305
tp365
a(I6
g3
(g5
S'\x00y\xe9&1\x08\xec?'
tRp366
F0.5047299861907959
tp367
a(I6
g3
(g5
S'\x00y\xe9&1\x08\xec?'
tRp368
F0.43673205375671387
tp369
a(I6
g3
(g5
S'\x00\x00\x00\x00\x00\x00\x00\x00'
tRp370
F0.42888903617858887
tp371
aa(lp372
(I6
g3
(g5
S'V\x0e-\xb2\x9d\x87W@'
tRp373
F0.073318958282470703
tp374
a(I6
g3
(g5
S'\x00\x00\x00\x00\x00\x00\x00\x00'
tRp375
F0.17685914039611816
tp376
aa.