(lp1
(lp2
(I3
cnumpy.core.multiarray
scalar
p3
(cnumpy
dtype
p4
(S'f8'
I0
I1
tRp5
(I3
S'<'
NNNI-1
I-1
I0
tbS'\x97eu \xd8q\\@'
tRp6
F0.14156293869018555
tp7
a(I3
g3
(g5
S'a\xe9\xe7\x9e\xa2\x0f`@'
tRp8
F0.14443707466125488
tp9
a(I3
g3
(g5
S'\x97eu \xd8q\\@'
tRp10
F0.30299687385559082
tp11
a(I3
g3
(g5
S'y\xa7\x06O^\x0eV@'
tRp12
F0.25609803199768066
tp13
a(I3
g3
(g5
S'\x0b\xeb!*\xcf\x96c@'
tRp14
F0.2772221565246582
tp15
a(I3
g3
(g5
S'\xacw\x9by\xa7\x01^@'
tRp16
F8.339245080947876
tp17
a(I3
g3
(g5
S'\x97eu \xd8q\\@'
tRp18
F0.19199991226196289
tp19
a(I3
g3
(g5
S'\x97eu \xd8q\\@'
tRp20
F0.17423796653747559
tp21
a(I3
g3
(g5
S'\xfa\xae\x9b\r\xcb\xeeS@'
tRp22
F0.18647909164428711
tp23
a(I3
g3
(g5
S'y\xa7\x06O^\x0eV@'
tRp24
F0.2994379997253418
tp25
a(I3
g3
(g5
S'y\xa7\x06O^\x0eV@'
tRp26
F10.091738939285278
tp27
a(I3
g3
(g5
S'y\xa7\x06O^\x0eV@'
tRp28
F0.1906120777130127
tp29
a(I3
g3
(g5
S'\x1e7\xf8R\xe9\x08@@'
tRp30
F0.28492903709411621
tp31
a(I3
g3
(g5
S'\x1e(\xce\xd5\x0fHD@'
tRp32
F0.22664284706115723
tp33
a(I3
g3
(g5
S'Jz\xaa\xc8eyE@'
tRp34
F0.21508216857910156
tp35
a(I3
g3
(g5
S'\x1e(\xce\xd5\x0fHD@'
tRp36
F10.863749980926514
tp37
a(I3
g3
(g5
S'@~\x97uc\x8d\x0b@'
tRp38
F0.31342601776123047
tp39
a(I3
g3
(g5
S'Jz\xaa\xc8eyE@'
tRp40
F0.26053500175476074
tp41
a(I3
g3
(g5
S':+=E`\xddJ@'
tRp42
F0.27342009544372559
tp43
a(I3
g3
(g5
S'\x00\x00\x00\x00\x00\x00\x00\x00'
tRp44
F0.22053718566894531
tp45
aa(lp46
(I3
g3
(g5
S'V\xe1\xc0Q\x8cua@'
tRp47
F0.13817310333251953
tp48
a(I3
g3
(g5
S'\x08\xac#\xdb\xc8O[@'
tRp49
F0.60465288162231445
tp50
a(I3
g3
(g5
S'V\xe1\xc0Q\x8cua@'
tRp51
F0.14825105667114258
tp52
a(I3
g3
(g5
S'\x9e\xedIpP6W@'
tRp53
F0.22510600090026855
tp54
a(I3
g3
(g5
S'\x9e\xedIpP6W@'
tRp55
F0.17647099494934082
tp56
a(I3
g3
(g5
S'\x9e\xedIpP6W@'
tRp57
F8.7924759387969971
tp58
a(I3
g3
(g5
S'\xeb\x92?\xf7\xef)e@'
tRp59
F0.29247713088989258
tp60
a(I3
g3
(g5
S'\xeb\x92?\xf7\xef)e@'
tRp61
F0.29261088371276855
tp62
a(I3
g3
(g5
S'\xeb\x92?\xf7\xef)e@'
tRp63
F0.37154603004455566
tp64
a(I3
g3
(g5
S'\xeb\x92?\xf7\xef)e@'
tRp65
F0.35306811332702637
tp66
a(I3
g3
(g5
S'0\xec\x92\xbeGJO@'
tRp67
F12.006791114807129
tp68
a(I3
g3
(g5
S'\xac\xcd\xf87\\YL@'
tRp69
F0.36749601364135742
tp70
a(I3
g3
(g5
S'\xac\xcd\xf87\\YL@'
tRp71
F0.2983090877532959
tp72
a(I3
g3
(g5
S'\xac\xcd\xf87\\YL@'
tRp73
F0.35789895057678223
tp74
a(I3
g3
(g5
S'\xac\xcd\xf87\\YL@'
tRp75
F0.37109804153442383
tp76
a(I3
g3
(g5
S'8\x89H\xdc\x19BE@'
tRp77
F11.764219999313354
tp78
a(I3
g3
(g5
S'8\x89H\xdc\x19BE@'
tRp79
F0.61461091041564941
tp80
a(I3
g3
(g5
S'8\x89H\xdc\x19BE@'
tRp81
F0.48299908638000488
tp82
a(I3
g3
(g5
S'\x90XT\xeb\xf0e6@'
tRp83
F1.3567090034484863
tp84
a(I3
g3
(g5
S'\x90XT\xeb\xf0e6@'
tRp85
F1.639164924621582
tp86
a(I3
g3
(g5
S'\x90XT\xeb\xf0e6@'
tRp87
F14.660860061645508
tp88
a(I3
g3
(g5
S'\x02\x96~\x02\x98\x17H@'
tRp89
F1.8096449375152588
tp90
a(I3
g3
(g5
S'\x90XT\xeb\xf0e6@'
tRp91
F4.0430550575256348
tp92
a(I3
g3
(g5
S'\x90XT\xeb\xf0e6@'
tRp93
F1.6918880939483643
tp94
a(I3
g3
(g5
S'8\x89H\xdc\x19BE@'
tRp95
F2.5993618965148926
tp96
a(I3
g3
(g5
S'X\xb0\x01\xa56,E@'
tRp97
F15.772613048553467
tp98
a(I3
g3
(g5
S'X\xb0\x01\xa56,E@'
tRp99
F2.7641839981079102
tp100
a(I3
g3
(g5
S'@\xda\xd1:\x07\xd9(@'
tRp101
F1.025554895401001
tp102
a(I3
g3
(g5
S'@\xda\xd1:\x07\xd9(@'
tRp103
F0.69380807876586914
tp104
a(I3
g3
(g5
S'@\xda\xd1:\x07\xd9(@'
tRp105
F1.1754119396209717
tp106
a(I3
g3
(g5
S'\x80*d\xa9\xcc\xed\x11@'
tRp107
F17.533132076263428
tp108
a(I3
g3
(g5
S'@\xda\xd1:\x07\xd9(@'
tRp109
F5.6072402000427246
tp110
a(I3
g3
(g5
S'\x80*d\xa9\xcc\xed\x11@'
tRp111
F5.3907618522644043
tp112
a(I3
g3
(g5
S'@\xda\xd1:\x07\xd9(@'
tRp113
F5.4521439075469971
tp114
aa(lp115
(I3
g3
(g5
S'\xf3\x01O\xa7mye@'
tRp116
F0.13790106773376465
tp117
a(I3
g3
(g5
S'?\x87\x1e\xc4N\xe2[@'
tRp118
F0.14255404472351074
tp119
a(I3
g3
(g5
S'?\x87\x1e\xc4N\xe2[@'
tRp120
F0.37998604774475098
tp121
a(I3
g3
(g5
S'\xdf\xd3\x97\xf4DLV@'
tRp122
F0.28200984001159668
tp123
a(I3
g3
(g5
S'lsl\x8f\xed9P@'
tRp124
F0.28378701210021973
tp125
a(I3
g3
(g5
S'lsl\x8f\xed9P@'
tRp126
F9.3113501071929932
tp127
a(I3
g3
(g5
S'\xcc&\xf3^\xf7\xcfU@'
tRp128
F0.57390594482421875
tp129
a(I3
g3
(g5
S'\xab\x01\xa6\x1ff\xa6U@'
tRp130
F0.18636417388916016
tp131
a(I3
g3
(g5
S'x\xc5\x08#6\xc4D@'
tRp132
F0.19402813911437988
tp133
a(I3
g3
(g5
S'x\xc5\x08#6\xc4D@'
tRp134
F0.23373007774353027
tp135
a(I3
g3
(g5
S'\xa0q\x9f\xd7\x1d\x818@'
tRp136
F9.8181698322296143
tp137
a(I3
g3
(g5
S'\xa0q\x9f\xd7\x1d\x818@'
tRp138
F0.21233105659484863
tp139
a(I3
g3
(g5
S'\xa0q\x9f\xd7\x1d\x818@'
tRp140
F0.26066493988037109
tp141
a(I3
g3
(g5
S'\xa0q\x9f\xd7\x1d\x818@'
tRp142
F0.30669093132019043
tp143
a(I3
g3
(g5
S'\xa0q\x9f\xd7\x1d\x818@'
tRp144
F0.29380321502685547
tp145
a(I3
g3
(g5
S'\xa0q\x9f\xd7\x1d\x818@'
tRp146
F10.503322124481201
tp147
a(I3
g3
(g5
S'\xa0q\x9f\xd7\x1d\x818@'
tRp148
F0.29949808120727539
tp149
a(I3
g3
(g5
S'\xa0q\x9f\xd7\x1d\x818@'
tRp150
F0.30060601234436035
tp151
a(I3
g3
(g5
S'\xa0q\x9f\xd7\x1d\x818@'
tRp152
F0.30284404754638672
tp153
a(I3
g3
(g5
S'\xa0q\x9f\xd7\x1d\x818@'
tRp154
F0.30596709251403809
tp155
a(I3
g3
(g5
S'\xa0q\x9f\xd7\x1d\x818@'
tRp156
F11.498016119003296
tp157
a(I3
g3
(g5
S'\xa0q\x9f\xd7\x1d\x818@'
tRp158
F0.3058011531829834
tp159
a(I3
g3
(g5
S'\xa0q\x9f\xd7\x1d\x818@'
tRp160
F0.3079531192779541
tp161
a(I3
g3
(g5
S'\xa0q\x9f\xd7\x1d\x818@'
tRp162
F0.31008100509643555
tp163
a(I3
g3
(g5
S'\xa0q\x9f\xd7\x1d\x818@'
tRp164
F0.31484293937683105
tp165
a(I3
g3
(g5
S'\xbaQ\xb9\xf4Apb@'
tRp166
F12.41657280921936
tp167
a(I3
g3
(g5
S'\xbaQ\xb9\xf4Apb@'
tRp168
F0.20044302940368652
tp169
a(I3
g3
(g5
S'\xbaQ\xb9\xf4Apb@'
tRp170
F0.20378494262695312
tp171
a(I3
g3
(g5
S'\xbaQ\xb9\xf4Apb@'
tRp172
F0.2043759822845459
tp173
a(I3
g3
(g5
S'\xbaQ\xb9\xf4Apb@'
tRp174
F0.20687699317932129
tp175
a(I3
g3
(g5
S'\xbaQ\xb9\xf4Apb@'
tRp176
F14.226927042007446
tp177
a(I3
g3
(g5
S'\xbaQ\xb9\xf4Apb@'
tRp178
F0.21202802658081055
tp179
a(I3
g3
(g5
S'\xbaQ\xb9\xf4Apb@'
tRp180
F0.21501898765563965
tp181
a(I3
g3
(g5
S'\xbaQ\xb9\xf4Apb@'
tRp182
F0.2160789966583252
tp183
aa(lp184
(I3
g3
(g5
S'\xc70\xf0O\xcf\x0bg@'
tRp185
F0.13777709007263184
tp186
a(I3
g3
(g5
S'\r\xf05\x8dF\xfdf@'
tRp187
F0.14231586456298828
tp188
a(I3
g3
(g5
S'\x18J\xc8\xb5c e@'
tRp189
F0.29000687599182129
tp190
a(I3
g3
(g5
S'E\x9d\x98C,\x02a@'
tRp191
F0.33066201210021973
tp192
a(I3
g3
(g5
S'\xd8\xf1t\x1b\xab\x10[@'
tRp193
F0.28759288787841797
tp194
a(I3
g3
(g5
S'\xd8\xf1t\x1b\xab\x10[@'
tRp195
F8.7873790264129639
tp196
a(I3
g3
(g5
S'GU\xf2O1xf@'
tRp197
F0.17858004570007324
tp198
a(I3
g3
(g5
S'GU\xf2O1xf@'
tRp199
F0.17046809196472168
tp200
a(I3
g3
(g5
S'GU\xf2O1xf@'
tRp201
F0.17777514457702637
tp202
a(I3
g3
(g5
S'GU\xf2O1xf@'
tRp203
F0.17967605590820312
tp204
a(I3
g3
(g5
S'\xd8\xc3Uf\xd3\x883@'
tRp205
F10.831749200820923
tp206
a(I3
g3
(g5
S'\xd8\xc3Uf\xd3\x883@'
tRp207
F0.38837480545043945
tp208
a(I3
g3
(g5
S'\xd8\xc3Uf\xd3\x883@'
tRp209
F0.3819890022277832
tp210
a(I3
g3
(g5
S'\xd8\xc3Uf\xd3\x883@'
tRp211
F0.47172307968139648
tp212
a(I3
g3
(g5
S'\xd8\xc3Uf\xd3\x883@'
tRp213
F0.47226691246032715
tp214
a(I3
g3
(g5
S'\x00\xeep\x02\xe9\xca\x04@'
tRp215
F13.175391912460327
tp216
a(I3
g3
(g5
S'hM\xbb\xdbs\x801@'
tRp217
F3.7257018089294434
tp218
a(I3
g3
(g5
S'hM\xbb\xdbs\x801@'
tRp219
F12.380606889724731
tp220
a(I3
g3
(g5
S'hM\xbb\xdbs\x801@'
tRp221
F54.11716890335083
tp222
a(I3
g3
(g5
S'hM\xbb\xdbs\x801@'
tRp223
F47.265033006668091
tp224
a(I3
g3
(g5
S'\x00\xeep\x02\xe9\xca\x04@'
tRp225
F15.828994035720825
tp226
a(I3
g3
(g5
S'\x00\xeep\x02\xe9\xca\x04@'
tRp227
F0.49233794212341309
tp228
a(I3
g3
(g5
S'\x00\xeep\x02\xe9\xca\x04@'
tRp229
F0.42940711975097656
tp230
a(I3
g3
(g5
S'\x00\xeep\x02\xe9\xca\x04@'
tRp231
F0.42292904853820801
tp232
a(I3
g3
(g5
S'\x00\xeep\x02\xe9\xca\x04@'
tRp233
F0.42251920700073242
tp234
a(I3
g3
(g5
S'\x00\xeep\x02\xe9\xca\x04@'
tRp235
F16.350728034973145
tp236
a(I3
g3
(g5
S'\x00\xeep\x02\xe9\xca\x04@'
tRp237
F0.41013288497924805
tp238
a(I3
g3
(g5
S'\x00\xeep\x02\xe9\xca\x04@'
tRp239
F0.48421406745910645
tp240
a(I3
g3
(g5
S'\x00\xeep\x02\xe9\xca\x04@'
tRp241
F0.44855618476867676
tp242
a(I3
g3
(g5
S'\x00\xeep\x02\xe9\xca\x04@'
tRp243
F0.46691703796386719
tp244
a(I3
g3
(g5
S'\x00\xeep\x02\xe9\xca\x04@'
tRp245
F317.67986607551575
tp246
a(I3
g3
(g5
S'\x00\xeep\x02\xe9\xca\x04@'
tRp247
F44.932922124862671
tp248
a(I3
g3
(g5
S'\x00\xeep\x02\xe9\xca\x04@'
tRp249
F40.434407234191895
tp250
a(I3
g3
(g5
S'\x00\xeep\x02\xe9\xca\x04@'
tRp251
F12.167931079864502
tp252
aa(lp253
(I3
g3
(g5
S'p\x96(\xf7j\x99Q@'
tRp254
F0.13734292984008789
tp255
a(I3
g3
(g5
S'\xda\xb9\xed\xaa\xc3sM@'
tRp256
F0.14259004592895508
tp257
a(I3
g3
(g5
S'\xfc\x1e\x06\xcaq\x17@@'
tRp258
F0.36954903602600098
tp259
a(I3
g3
(g5
S'\xdec\x9c\xe7\x93GX@'
tRp260
F0.26666092872619629
tp261
a(I3
g3
(g5
S'\xdec\x9c\xe7\x93GX@'
tRp262
F0.16114115715026855
tp263
a(I3
g3
(g5
S'\xda\xb9\xed\xaa\xc3sM@'
tRp264
F8.3922460079193115
tp265
a(I3
g3
(g5
S'\xda\xb9\xed\xaa\xc3sM@'
tRp266
F0.15236496925354004
tp267
a(I3
g3
(g5
S'\xda\xb9\xed\xaa\xc3sM@'
tRp268
F0.15513706207275391
tp269
a(I3
g3
(g5
S'\xda\xb9\xed\xaa\xc3sM@'
tRp270
F0.15716290473937988
tp271
a(I3
g3
(g5
S'\xda\xb9\xed\xaa\xc3sM@'
tRp272
F0.15954709053039551
tp273
a(I3
g3
(g5
S'\xda\xb9\xed\xaa\xc3sM@'
tRp274
F9.4662220478057861
tp275
a(I3
g3
(g5
S'\xda\xb9\xed\xaa\xc3sM@'
tRp276
F0.16430091857910156
tp277
a(I3
g3
(g5
S'\xda\xb9\xed\xaa\xc3sM@'
tRp278
F0.16625690460205078
tp279
a(I3
g3
(g5
S'\xda\xb9\xed\xaa\xc3sM@'
tRp280
F0.18599915504455566
tp281
a(I3
g3
(g5
S'\xda\xb9\xed\xaa\xc3sM@'
tRp282
F0.17060303688049316
tp283
a(I3
g3
(g5
S'\xda\xb9\xed\xaa\xc3sM@'
tRp284
F10.286756038665771
tp285
a(I3
g3
(g5
S'\xda\xb9\xed\xaa\xc3sM@'
tRp286
F0.17460203170776367
tp287
a(I3
g3
(g5
S'\xda\xb9\xed\xaa\xc3sM@'
tRp288
F0.17801213264465332
tp289
a(I3
g3
(g5
S'\xda\xb9\xed\xaa\xc3sM@'
tRp290
F0.17911386489868164
tp291
a(I3
g3
(g5
S'\xda\xb9\xed\xaa\xc3sM@'
tRp292
F0.18162989616394043
tp293
a(I3
g3
(g5
S'Hd&\xf2v\xba4@'
tRp294
F11.412513971328735
tp295
a(I3
g3
(g5
S'`\x90\xfa\x97\xa4[ @'
tRp296
F0.45288705825805664
tp297
a(I3
g3
(g5
S'`\x90\xfa\x97\xa4[ @'
tRp298
F0.34757280349731445
tp299
a(I3
g3
(g5
S'`\x90\xfa\x97\xa4[ @'
tRp300
F0.75281310081481934
tp301
a(I3
g3
(g5
S'`\x90\xfa\x97\xa4[ @'
tRp302
F0.53035902976989746
tp303
a(I3
g3
(g5
S'`\x90\xfa\x97\xa4[ @'
tRp304
F13.020934104919434
tp305
a(I3
g3
(g5
S'\xb8\xd1\x0b\x99J\x189@'
tRp306
F0.6886909008026123
tp307
a(I3
g3
(g5
S'`\x90\xfa\x97\xa4[ @'
tRp308
F1.5604729652404785
tp309
a(I3
g3
(g5
S'`\x90\xfa\x97\xa4[ @'
tRp310
F5.1709511280059814
tp311
a(I3
g3
(g5
S'\xf8>\xe6\x06;sA@'
tRp312
F13.753270149230957
tp313
a(I3
g3
(g5
S'`\x90\xfa\x97\xa4[ @'
tRp314
F15.552412986755371
tp315
a(I3
g3
(g5
S'`\x90\xfa\x97\xa4[ @'
tRp316
F0.41473507881164551
tp317
a(I3
g3
(g5
S'`\x90\xfa\x97\xa4[ @'
tRp318
F0.43213295936584473
tp319
a(I3
g3
(g5
S'`\x90\xfa\x97\xa4[ @'
tRp320
F0.37771320343017578
tp321
aa(lp322
(I3
g3
(g5
S'W6h\x9c\x97\xe6a@'
tRp323
F0.13734912872314453
tp324
a(I3
g3
(g5
S'\x04\xf0\xd9\xf3\xad\xd7[@'
tRp325
F0.14256501197814941
tp326
a(I3
g3
(g5
S'>\xed\xfa\xe0\x07\xdeU@'
tRp327
F0.2938687801361084
tp328
a(I3
g3
(g5
S'>\xed\xfa\xe0\x07\xdeU@'
tRp329
F0.28734397888183594
tp330
a(I3
g3
(g5
S'>\xed\xfa\xe0\x07\xdeU@'
tRp331
F0.30245685577392578
tp332
a(I3
g3
(g5
S'\x143\x0c\x92\xba;G@'
tRp333
F8.3850250244140625
tp334
a(I3
g3
(g5
S'\x143\x0c\x92\xba;G@'
tRp335
F0.1845700740814209
tp336
a(I3
g3
(g5
S'&p\xd4\xb8\xc2\nd@'
tRp337
F0.2546379566192627
tp338
a(I3
g3
(g5
S'&p\xd4\xb8\xc2\nd@'
tRp339
F0.17526888847351074
tp340
a(I3
g3
(g5
S'&p\xd4\xb8\xc2\nd@'
tRp341
F0.17552900314331055
tp342
a(I3
g3
(g5
S'\x82\xfa;ZJ\xb1Z@'
tRp343
F9.4438788890838623
tp344
a(I3
g3
(g5
S'\xe4\xbe\xd2}(2W@'
tRp345
F0.19352889060974121
tp346
a(I3
g3
(g5
S'\x04\xf0\xd9\xf3\xad\xd7[@'
tRp347
F0.1876370906829834
tp348
a(I3
g3
(g5
S'\x1e\x84\x84\x0eNoP@'
tRp349
F0.21539306640625
tp350
a(I3
g3
(g5
S'L\xc4\x07\xe50\xf6J@'
tRp351
F0.2325899600982666
tp352
a(I3
g3
(g5
S'\x80}\x93~\xc9\x05>@'
tRp353
F10.528663158416748
tp354
a(I3
g3
(g5
S'\x80}\x93~\xc9\x05>@'
tRp355
F0.21605396270751953
tp356
a(I3
g3
(g5
S'\x80}\x93~\xc9\x05>@'
tRp357
F0.23363995552062988
tp358
a(I3
g3
(g5
S'\x80}\x93~\xc9\x05>@'
tRp359
F0.22049403190612793
tp360
a(I3
g3
(g5
S'\x80}\x93~\xc9\x05>@'
tRp361
F0.22249412536621094
tp362
a(I3
g3
(g5
S'`\xa63\xd1\x0c\x80%@'
tRp363
F11.551563024520874
tp364
a(I3
g3
(g5
S'`\xa63\xd1\x0c\x80%@'
tRp365
F0.23215508460998535
tp366
a(I3
g3
(g5
S'`\xa63\xd1\x0c\x80%@'
tRp367
F0.23317193984985352
tp368
a(I3
g3
(g5
S'`\xa63\xd1\x0c\x80%@'
tRp369
F0.23510003089904785
tp370
a(I3
g3
(g5
S'`\xa63\xd1\x0c\x80%@'
tRp371
F0.23852705955505371
tp372
a(I3
g3
(g5
S'\x00\x916dX\xe0I@'
tRp373
F12.714910984039307
tp374
a(I3
g3
(g5
S'\x00\x916dX\xe0I@'
tRp375
F0.36347007751464844
tp376
a(I3
g3
(g5
S'\x00\x916dX\xe0I@'
tRp377
F0.3723750114440918
tp378
a(I3
g3
(g5
S'\x00\x916dX\xe0I@'
tRp379
F0.3855280876159668
tp380
a(I3
g3
(g5
S'\x00\x916dX\xe0I@'
tRp381
F0.37154698371887207
tp382
a(I3
g3
(g5
S'`\xa63\xd1\x0c\x80%@'
tRp383
F13.542135000228882
tp384
a(I3
g3
(g5
S'`\xa63\xd1\x0c\x80%@'
tRp385
F0.25359010696411133
tp386
a(I3
g3
(g5
S'`\xa63\xd1\x0c\x80%@'
tRp387
F0.25606513023376465
tp388
a(I3
g3
(g5
S'`\xa63\xd1\x0c\x80%@'
tRp389
F0.25855612754821777
tp390
aa(lp391
(I3
g3
(g5
S'?\x8e\x99\xff\x03\x03Y@'
tRp392
F0.136962890625
tp393
a(I3
g3
(g5
S'\xda\xf2@O\xa8\xf3R@'
tRp394
F0.14280319213867188
tp395
a(I3
g3
(g5
S'\xc8$\xfc1\nmR@'
tRp396
F0.34490013122558594
tp397
a(I3
g3
(g5
S'tf\xd8\x93\x8a\x8eX@'
tRp398
F0.15462589263916016
tp399
a(I3
g3
(g5
S'tf\xd8\x93\x8a\x8eX@'
tRp400
F0.35345697402954102
tp401
a(I3
g3
(g5
S"\x90\x83>\x17'u4@"
tRp402
F8.5809950828552246
tp403
a(I3
g3
(g5
S"\x90\x83>\x17'u4@"
tRp404
F0.21585297584533691
tp405
a(I3
g3
(g5
S'tf\xd8\x93\x8a\x8eX@'
tRp406
F0.18334293365478516
tp407
a(I3
g3
(g5
S'\x8e\xb9\x02kp\xdfR@'
tRp408
F0.19409394264221191
tp409
a(I3
g3
(g5
S'\x8e\xb9\x02kp\xdfR@'
tRp410
F0.22385883331298828
tp411
a(I3
g3
(g5
S'\x05#\xa08juY@'
tRp412
F9.655055046081543
tp413
a(I3
g3
(g5
S'\x8e\xb9\x02kp\xdfR@'
tRp414
F0.21711492538452148
tp415
a(I3
g3
(g5
S'\x8e\xb9\x02kp\xdfR@'
tRp416
F0.30726504325866699
tp417
a(I3
g3
(g5
S'\xb7:D=\x9f\xe4S@'
tRp418
F0.20625710487365723
tp419
a(I3
g3
(g5
S'\xc4\xefL\x12\xe0{I@'
tRp420
F0.34643197059631348
tp421
a(I3
g3
(g5
S"\xd2\xf6'\xe7\xde(A@"
tRp422
F10.541486024856567
tp423
a(I3
g3
(g5
S'\xc4\xefL\x12\xe0{I@'
tRp424
F0.21312284469604492
tp425
a(I3
g3
(g5
S'\xc4\xefL\x12\xe0{I@'
tRp426
F0.23809695243835449
tp427
a(I3
g3
(g5
S'\xc4\xefL\x12\xe0{I@'
tRp428
F0.24638915061950684
tp429
a(I3
g3
(g5
S'\xc4\xefL\x12\xe0{I@'
tRp430
F0.24283480644226074
tp431
a(I3
g3
(g5
S'\xc4\xefL\x12\xe0{I@'
tRp432
F11.510476112365723
tp433
a(I3
g3
(g5
S'\xc4\xefL\x12\xe0{I@'
tRp434
F0.24780392646789551
tp435
a(I3
g3
(g5
S'\xc4\xefL\x12\xe0{I@'
tRp436
F0.26425719261169434
tp437
a(I3
g3
(g5
S'\xc4\xefL\x12\xe0{I@'
tRp438
F0.25266504287719727
tp439
a(I3
g3
(g5
S'\xc4\xefL\x12\xe0{I@'
tRp440
F0.25394606590270996
tp441
a(I3
g3
(g5
S'\xc4\xefL\x12\xe0{I@'
tRp442
F12.475965976715088
tp443
a(I3
g3
(g5
S'\xc4\xefL\x12\xe0{I@'
tRp444
F0.27434301376342773
tp445
a(I3
g3
(g5
S'\xc4\xefL\x12\xe0{I@'
tRp446
F0.26168704032897949
tp447
a(I3
g3
(g5
S'\xc4\xefL\x12\xe0{I@'
tRp448
F0.26425290107727051
tp449
a(I3
g3
(g5
S'\xc4\xefL\x12\xe0{I@'
tRp450
F0.26611900329589844
tp451
a(I3
g3
(g5
S'\xc4\xefL\x12\xe0{I@'
tRp452
F13.634050130844116
tp453
a(I3
g3
(g5
S'\xc4\xefL\x12\xe0{I@'
tRp454
F0.31834816932678223
tp455
a(I3
g3
(g5
S'\xc4\xefL\x12\xe0{I@'
tRp456
F0.30461788177490234
tp457
a(I3
g3
(g5
S'\xc4\xefL\x12\xe0{I@'
tRp458
F0.30713391304016113
tp459
aa(lp460
(I3
g3
(g5
S'De\xf64\xf7\xd9a@'
tRp461
F0.13672184944152832
tp462
a(I3
g3
(g5
S'\x8c\x86\xe7\xc6\xe0FW@'
tRp463
F0.55996203422546387
tp464
a(I3
g3
(g5
S'n\x83]\x9e\xac\x9a_@'
tRp465
F0.14661097526550293
tp466
a(I3
g3
(g5
S'\xa4\xcdv\x92"`[@'
tRp467
F0.19894599914550781
tp468
a(I3
g3
(g5
S'\xd0\x82\xd0\x83\x1f.P@'
tRp469
F0.18826699256896973
tp470
a(I3
g3
(g5
S'\xe8\xc9_OaGT@'
tRp471
F8.984004020690918
tp472
a(I3
g3
(g5
S'\xd0\x82\xd0\x83\x1f.P@'
tRp473
F0.22074604034423828
tp474
a(I3
g3
(g5
S'\xd0\x82\xd0\x83\x1f.P@'
tRp475
F0.27627301216125488
tp476
a(I3
g3
(g5
S'\xd0\x82\xd0\x83\x1f.P@'
tRp477
F0.39998698234558105
tp478
a(I3
g3
(g5
S'\xd0\x82\xd0\x83\x1f.P@'
tRp479
F0.41512799263000488
tp480
a(I3
g3
(g5
S'(\x87-H\x1e\xeeK@'
tRp481
F11.615222930908203
tp482
a(I3
g3
(g5
S'\xe8\xc9_OaGT@'
tRp483
F0.48706912994384766
tp484
a(I3
g3
(g5
S'\xd0\x82\xd0\x83\x1f.P@'
tRp485
F0.19513487815856934
tp486
a(I3
g3
(g5
S'w\xc0\x8c\xfb\xdaJV@'
tRp487
F0.20741796493530273
tp488
a(I3
g3
(g5
S'\xe8\xc9_OaGT@'
tRp489
F0.20753598213195801
tp490
a(I3
g3
(g5
S'w\xc0\x8c\xfb\xdaJV@'
tRp491
F11.076728105545044
tp492
a(I3
g3
(g5
S'\xf0\xb4\xa1\xa1\xb4\xc3>@'
tRp493
F0.22889208793640137
tp494
a(I3
g3
(g5
S'@ca\xdb\xb5\x0cE@'
tRp495
F0.3243100643157959
tp496
a(I3
g3
(g5
S'@ca\xdb\xb5\x0cE@'
tRp497
F0.24456691741943359
tp498
a(I3
g3
(g5
S'@ca\xdb\xb5\x0cE@'
tRp499
F0.3066260814666748
tp500
a(I3
g3
(g5
S'@ca\xdb\xb5\x0cE@'
tRp501
F11.924423933029175
tp502
a(I3
g3
(g5
S'\xe8\xc9_OaGT@'
tRp503
F0.34747982025146484
tp504
a(I3
g3
(g5
S'\xd0\x82\xd0\x83\x1f.P@'
tRp505
F3.1541061401367188
tp506
a(I3
g3
(g5
S'\xd0\x82\xd0\x83\x1f.P@'
tRp507
F3.1408970355987549
tp508
a(I3
g3
(g5
S'\xd0\x82\xd0\x83\x1f.P@'
tRp509
F3.1347429752349854
tp510
a(I3
g3
(g5
S'\xd0\x82\xd0\x83\x1f.P@'
tRp511
F14.629760980606079
tp512
a(I3
g3
(g5
S'\xd0\x82\xd0\x83\x1f.P@'
tRp513
F2.5139210224151611
tp514
a(I3
g3
(g5
S'\xd0\x82\xd0\x83\x1f.P@'
tRp515
F1.8275032043457031
tp516
a(I3
g3
(g5
S'\xd0\x82\xd0\x83\x1f.P@'
tRp517
F1.5884509086608887
tp518
a(I3
g3
(g5
S'\xd0\x82\xd0\x83\x1f.P@'
tRp519
F1.6521639823913574
tp520
a(I3
g3
(g5
S'\xd0\x82\xd0\x83\x1f.P@'
tRp521
F17.277328968048096
tp522
a(I3
g3
(g5
S'\xd0\x82\xd0\x83\x1f.P@'
tRp523
F1.8049230575561523
tp524
a(I3
g3
(g5
S'\xd0\x82\xd0\x83\x1f.P@'
tRp525
F1.6550071239471436
tp526
a(I3
g3
(g5
S'\xd0\x82\xd0\x83\x1f.P@'
tRp527
F1.6880941390991211
tp528
aa(lp529
(I3
g3
(g5
S'L\xfb\xfe\xe6n\xd0e@'
tRp530
F0.13688111305236816
tp531
a(I3
g3
(g5
S'L\xfb\xfe\xe6n\xd0e@'
tRp532
F0.56827282905578613
tp533
a(I3
g3
(g5
S'L\xfb\xfe\xe6n\xd0e@'
tRp534
F0.5060279369354248
tp535
a(I3
g3
(g5
S'\n\xb1\x9c\xf7\x8a\x05d@'
tRp536
F0.36587190628051758
tp537
a(I3
g3
(g5
S'-\xb8\xf88\xdfbj@'
tRp538
F0.18109703063964844
tp539
a(I3
g3
(g5
S'\xb8\xa7H"\x07\x83W@'
tRp540
F8.6453938484191895
tp541
a(I3
g3
(g5
S'\xb8\xa7H"\x07\x83W@'
tRp542
F0.18226385116577148
tp543
a(I3
g3
(g5
S'N\x18\xa3\xbc}\x86R@'
tRp544
F0.24433994293212891
tp545
a(I3
g3
(g5
S'\xd2\xacg\x9bE\x1cV@'
tRp546
F0.28760409355163574
tp547
a(I3
g3
(g5
S'\xa6\x10\x10\x84;\x9fP@'
tRp548
F0.29617500305175781
tp549
a(I3
g3
(g5
S'\xa6\x10\x10\x84;\x9fP@'
tRp550
F10.221482038497925
tp551
a(I3
g3
(g5
S'X\xb3%\x81\xa5\xd5J@'
tRp552
F0.57463598251342773
tp553
a(I3
g3
(g5
S'\xa6\x10\x10\x84;\x9fP@'
tRp554
F3.9007291793823242
tp555
a(I3
g3
(g5
S'\xa6\x10\x10\x84;\x9fP@'
tRp556
F2.8788721561431885
tp557
a(I3
g3
(g5
S'\x08\xa1I\x0e\xd1\xeaF@'
tRp558
F4.3598999977111816
tp559
a(I3
g3
(g5
S'X\xb3%\x81\xa5\xd5J@'
tRp560
F12.883345127105713
tp561
a(I3
g3
(g5
S'X\xb3%\x81\xa5\xd5J@'
tRp562
F0.97541379928588867
tp563
a(I3
g3
(g5
S'\x08\xa1I\x0e\xd1\xeaF@'
tRp564
F0.96210885047912598
tp565
a(I3
g3
(g5
S'Pu\xe8\xe8.q8@'
tRp566
F0.77122688293457031
tp567
a(I3
g3
(g5
S'Pu\xe8\xe8.q8@'
tRp568
F2.3050119876861572
tp569
a(I3
g3
(g5
S'\xb0P0\x03\x86\x9b0@'
tRp570
F13.098659992218018
tp571
a(I3
g3
(g5
S'\xd1\x96\xfb\xcb\xdd=Y@'
tRp572
F0.22033786773681641
tp573
a(I3
g3
(g5
S'\xa0\xa8n\xfbh\xa1B@'
tRp574
F0.23608899116516113
tp575
a(I3
g3
(g5
S'\xa0\xa8n\xfbh\xa1B@'
tRp576
F0.24883699417114258
tp577
a(I3
g3
(g5
S'\xa0\xa8n\xfbh\xa1B@'
tRp578
F0.24894881248474121
tp579
a(I3
g3
(g5
S'\x00\x00\x00\x00\x00\x00\x00\x00'
tRp580
F13.006032943725586
tp581
aa(lp582
(I3
g3
(g5
S'\x0f\xbe\x99)\x9c\x92d@'
tRp583
F0.13771200180053711
tp584
a(I3
g3
(g5
S'~\x9e\xdd\xd9\xb4N^@'
tRp585
F0.1433568000793457
tp586
a(I3
g3
(g5
S'~\x9e\xdd\xd9\xb4N^@'
tRp587
F0.15988612174987793
tp588
a(I3
g3
(g5
S'~\x9e\xdd\xd9\xb4N^@'
tRp589
F0.14591789245605469
tp590
a(I3
g3
(g5
S'~\x9e\xdd\xd9\xb4N^@'
tRp591
F0.14818692207336426
tp592
a(I3
g3
(g5
S'Jae\x00\t\x0bS@'
tRp593
F8.265366792678833
tp594
a(I3
g3
(g5
S'\xcb\xa8\xa4\xadA\x84\\@'
tRp595
F0.17029309272766113
tp596
a(I3
g3
(g5
S'O\x8e\xe4\xec\xc6\x8f^@'
tRp597
F0.1602630615234375
tp598
a(I3
g3
(g5
S'|\xc2!\xef\xe2yb@'
tRp599
F0.17133092880249023
tp600
a(I3
g3
(g5
S'\xafn\xf1\xf1\xfb\x0bW@'
tRp601
F0.18869996070861816
tp602
a(I3
g3
(g5
S'=\xcdK\xe3\xce\x98R@'
tRp603
F10.1251060962677
tp604
a(I3
g3
(g5
S'#4\rX\x93\x85S@'
tRp605
F0.18794703483581543
tp606
a(I3
g3
(g5
S'R\x83\xe4\n|\x0eG@'
tRp607
F0.19065189361572266
tp608
a(I3
g3
(g5
S'\xd8\x802\xdbCP<@'
tRp609
F0.22214102745056152
tp610
a(I3
g3
(g5
S'\x92\x19,\x08S3C@'
tRp611
F0.2371981143951416
tp612
a(I3
g3
(g5
S'R\x83\xe4\n|\x0eG@'
tRp613
F11.558048963546753
tp614
a(I3
g3
(g5
S'R\x83\xe4\n|\x0eG@'
tRp615
F0.24282407760620117
tp616
a(I3
g3
(g5
S'R\x83\xe4\n|\x0eG@'
tRp617
F0.30883407592773438
tp618
a(I3
g3
(g5
S'R\x83\xe4\n|\x0eG@'
tRp619
F0.22355198860168457
tp620
a(I3
g3
(g5
S'\x00[\x8f\xc32\xa7\x1c@'
tRp621
F0.21518802642822266
tp622
a(I3
g3
(g5
S'R\x83\xe4\n|\x0eG@'
tRp623
F12.488956928253174
tp624
a(I3
g3
(g5
S'R\x83\xe4\n|\x0eG@'
tRp625
F0.30950403213500977
tp626
a(I3
g3
(g5
S'\x00[\x8f\xc32\xa7\x1c@'
tRp627
F0.26108813285827637
tp628
a(I3
g3
(g5
S'R\x83\xe4\n|\x0eG@'
tRp629
F0.25625514984130859
tp630
a(I3
g3
(g5
S'R\x83\xe4\n|\x0eG@'
tRp631
F0.26418709754943848
tp632
a(I3
g3
(g5
S'R\x83\xe4\n|\x0eG@'
tRp633
F13.236055850982666
tp634
a(I3
g3
(g5
S'\x00[\x8f\xc32\xa7\x1c@'
tRp635
F0.30053615570068359
tp636
a(I3
g3
(g5
S'\x00[\x8f\xc32\xa7\x1c@'
tRp637
F0.28077888488769531
tp638
a(I3
g3
(g5
S'\x00[\x8f\xc32\xa7\x1c@'
tRp639
F0.3533170223236084
tp640
a(I3
g3
(g5
S'\x00[\x8f\xc32\xa7\x1c@'
tRp641
F0.30156993865966797
tp642
a(I3
g3
(g5
S'\x00[\x8f\xc32\xa7\x1c@'
tRp643
F13.938294887542725
tp644
a(I3
g3
(g5
S'\x00[\x8f\xc32\xa7\x1c@'
tRp645
F0.2651209831237793
tp646
a(I3
g3
(g5
S'\x00[\x8f\xc32\xa7\x1c@'
tRp647
F0.28460407257080078
tp648
a(I3
g3
(g5
S'\x00[\x8f\xc32\xa7\x1c@'
tRp649
F0.27025198936462402
tp650
aa(lp651
(I3
g3
(g5
S'd\xa5\x1b\xa6\n\x7fa@'
tRp652
F0.13742494583129883
tp653
a(I3
g3
(g5
S'T-\xfdD`g]@'
tRp654
F0.14204001426696777
tp655
a(I3
g3
(g5
S'd\xa5\x1b\xa6\n\x7fa@'
tRp656
F0.28501605987548828
tp657
a(I3
g3
(g5
S'd\xa5\x1b\xa6\n\x7fa@'
tRp658
F0.15948081016540527
tp659
a(I3
g3
(g5
S'R\xaa\xda\xd2\x0b\x13]@'
tRp660
F0.28274989128112793
tp661
a(I3
g3
(g5
S'R\xaa\xda\xd2\x0b\x13]@'
tRp662
F8.5717751979827881
tp663
a(I3
g3
(g5
S'?} \xd5%\xc7d@'
tRp664
F0.34360098838806152
tp665
a(I3
g3
(g5
S'?} \xd5%\xc7d@'
tRp666
F0.15606188774108887
tp667
a(I3
g3
(g5
S'?} \xd5%\xc7d@'
tRp668
F0.15869808197021484
tp669
a(I3
g3
(g5
S'?} \xd5%\xc7d@'
tRp670
F0.16229391098022461
tp671
a(I3
g3
(g5
S'\x00\xd7\xd73t*[@'
tRp672
F9.4293310642242432
tp673
a(I3
g3
(g5
S'\xae\x91\x91B\x16s[@'
tRp674
F0.19250202178955078
tp675
a(I3
g3
(g5
S'\x82\xfb\x94\x98kUY@'
tRp676
F0.2000730037689209
tp677
a(I3
g3
(g5
S'\x80Y\x07\xe2\x08\xf8\x14@'
tRp678
F0.19805216789245605
tp679
a(I3
g3
(g5
S'\x80Y\x07\xe2\x08\xf8\x14@'
tRp680
F0.21413016319274902
tp681
a(I3
g3
(g5
S'?} \xd5%\xc7d@'
tRp682
F10.795002937316895
tp683
a(I3
g3
(g5
S'?} \xd5%\xc7d@'
tRp684
F0.19712305068969727
tp685
a(I3
g3
(g5
S'?} \xd5%\xc7d@'
tRp686
F0.18419098854064941
tp687
a(I3
g3
(g5
S'?} \xd5%\xc7d@'
tRp688
F0.18490219116210938
tp689
a(I3
g3
(g5
S'?} \xd5%\xc7d@'
tRp690
F0.18751001358032227
tp691
a(I3
g3
(g5
S'?} \xd5%\xc7d@'
tRp692
F12.11250114440918
tp693
a(I3
g3
(g5
S'?} \xd5%\xc7d@'
tRp694
F0.1963348388671875
tp695
a(I3
g3
(g5
S'?} \xd5%\xc7d@'
tRp696
F0.20022988319396973
tp697
a(I3
g3
(g5
S'?} \xd5%\xc7d@'
tRp698
F0.2273409366607666
tp699
a(I3
g3
(g5
S'?} \xd5%\xc7d@'
tRp700
F0.20924091339111328
tp701
a(I3
g3
(g5
S'\x80Y\x07\xe2\x08\xf8\x14@'
tRp702
F13.354377031326294
tp703
a(I3
g3
(g5
S'\x80Y\x07\xe2\x08\xf8\x14@'
tRp704
F0.29189205169677734
tp705
a(I3
g3
(g5
S'\x80Y\x07\xe2\x08\xf8\x14@'
tRp706
F0.26791501045227051
tp707
a(I3
g3
(g5
S'\x80Y\x07\xe2\x08\xf8\x14@'
tRp708
F0.26903510093688965
tp709
a(I3
g3
(g5
S'\x80Y\x07\xe2\x08\xf8\x14@'
tRp710
F0.27160286903381348
tp711
a(I3
g3
(g5
S'\x80Y\x07\xe2\x08\xf8\x14@'
tRp712
F14.684793949127197
tp713
a(I3
g3
(g5
S'\x80Y\x07\xe2\x08\xf8\x14@'
tRp714
F0.43555593490600586
tp715
a(I3
g3
(g5
S'\x80Y\x07\xe2\x08\xf8\x14@'
tRp716
F0.42786622047424316
tp717
a(I3
g3
(g5
S'\x80Y\x07\xe2\x08\xf8\x14@'
tRp718
F0.43645381927490234
tp719
aa(lp720
(I3
g3
(g5
S'\xe22\xbf\x8c\xcfrR@'
tRp721
F0.13744521141052246
tp722
a(I3
g3
(g5
S'G>i\xc7x\x93[@'
tRp723
F0.14261794090270996
tp724
a(I3
g3
(g5
S'>\x97\xe2WT\xfdQ@'
tRp725
F0.1503598690032959
tp726
a(I3
g3
(g5
S'\xb45\xf9\\\x18\xf4C@'
tRp727
F0.29495501518249512
tp728
a(I3
g3
(g5
S'`\x89\t\xc8\xf0{L@'
tRp729
F0.27482509613037109
tp730
a(I3
g3
(g5
S'\xfa\xa6*3\xee\x00^@'
tRp731
F8.7264878749847412
tp732
a(I3
g3
(g5
S'\xfa\xa6*3\xee\x00^@'
tRp733
F0.29085803031921387
tp734
a(I3
g3
(g5
S'\xfa\xa6*3\xee\x00^@'
tRp735
F0.29318594932556152
tp736
a(I3
g3
(g5
S'\xfa\xa6*3\xee\x00^@'
tRp737
F0.32864594459533691
tp738
a(I3
g3
(g5
S'\xfa\xa6*3\xee\x00^@'
tRp739
F0.31122517585754395
tp740
a(I3
g3
(g5
S'\x13\xb8\x99\xc2\xdd\xa9V@'
tRp741
F10.47968316078186
tp742
a(I3
g3
(g5
S'\xb6\x85\xa5\xbf+\x04@@'
tRp743
F0.24127507209777832
tp744
a(I3
g3
(g5
S'\xb6\x85\xa5\xbf+\x04@@'
tRp745
F1.8020889759063721
tp746
a(I3
g3
(g5
S'\xb4\xe2\x92\t\x9bB>@'
tRp747
F0.69291305541992188
tp748
a(I3
g3
(g5
S'\xce#K\xf2?*J@'
tRp749
F3.5454440116882324
tp750
a(I3
g3
(g5
S'\xd0\x9f\xb1H\xb3QP@'
tRp751
F15.566322088241577
tp752
a(I3
g3
(g5
S'\xd0\x9f\xb1H\xb3QP@'
tRp753
F1.6627559661865234
tp754
a(I3
g3
(g5
S'4\xf5\xcd\xc9*\x05O@'
tRp755
F1.8995640277862549
tp756
a(I3
g3
(g5
S'4\xf5\xcd\xc9*\x05O@'
tRp757
F1.5861120223999023
tp758
a(I3
g3
(g5
S'\xbd\xbb\xad.\x0cYQ@'
tRp759
F2.2631700038909912
tp760
a(I3
g3
(g5
S'\xce#K\xf2?*J@'
tRp761
F50.647014856338501
tp762
a(I3
g3
(g5
S'\xb6\x85\xa5\xbf+\x04@@'
tRp763
F66.408059120178223
tp764
a(I3
g3
(g5
S'4\xc1\xd3\xaf\xe7\n1@'
tRp765
F27.64403510093689
tp766
a(I3
g3
(g5
S'4\xc1\xd3\xaf\xe7\n1@'
tRp767
F23.258692979812622
tp768
a(I3
g3
(g5
S'4\xc1\xd3\xaf\xe7\n1@'
tRp769
F147.21492314338684
tp770
a(I3
g3
(g5
S'4\xc1\xd3\xaf\xe7\n1@'
tRp771
F148.66109585762024
tp772
a(I3
g3
(g5
S'4\xc1\xd3\xaf\xe7\n1@'
tRp773
F165.79999303817749
tp774
a(I3
g3
(g5
S'4\xc1\xd3\xaf\xe7\n1@'
tRp775
F179.289057970047
tp776
a(I3
g3
(g5
S'4\xc1\xd3\xaf\xe7\n1@'
tRp777
F210.46017789840698
tp778
a(I3
g3
(g5
S'4\xc1\xd3\xaf\xe7\n1@'
tRp779
F210.03769493103027
tp780
a(I3
g3
(g5
S'`H\x8e.\xc3\x95\x12@'
tRp781
F22.427702903747559
tp782
a(I3
g3
(g5
S'`H\x8e.\xc3\x95\x12@'
tRp783
F4.0950338840484619
tp784
a(I3
g3
(g5
S'`H\x8e.\xc3\x95\x12@'
tRp785
F3.855720043182373
tp786
a(I3
g3
(g5
S'\x80 \xf3\xb4\x15&\xfd?'
tRp787
F3.7832300662994385
tp788
aa(lp789
(I3
g3
(g5
S't\xeb\xf1\xfda\x8c[@'
tRp790
F0.13835287094116211
tp791
a(I3
g3
(g5
S'\xbd\xec\x1d\xd5\xbb\xb3U@'
tRp792
F0.14417314529418945
tp793
a(I3
g3
(g5
S't\xeb\xf1\xfda\x8c[@'
tRp794
F0.30028796195983887
tp795
a(I3
g3
(g5
S'\x88\xdaW\x16+\x02^@'
tRp796
F0.15106010437011719
tp797
a(I3
g3
(g5
S'\xbd\xec\x1d\xd5\xbb\xb3U@'
tRp798
F0.15289998054504395
tp799
a(I3
g3
(g5
S'\xbd\xec\x1d\xd5\xbb\xb3U@'
tRp800
F8.7188379764556885
tp801
a(I3
g3
(g5
S'\xf4_\x00(\xb3Xd@'
tRp802
F0.1708979606628418
tp803
a(I3
g3
(g5
S'\xf4_\x00(\xb3Xd@'
tRp804
F0.15523791313171387
tp805
a(I3
g3
(g5
S'\xf4_\x00(\xb3Xd@'
tRp806
F0.15823197364807129
tp807
a(I3
g3
(g5
S'\xf4_\x00(\xb3Xd@'
tRp808
F0.16058707237243652
tp809
a(I3
g3
(g5
S'\xb4\xb7=\xa7l\xf6Q@'
tRp810
F9.5274159908294678
tp811
a(I3
g3
(g5
S'\x9c\xdf\xd4\x86p\x91U@'
tRp812
F0.18157815933227539
tp813
a(I3
g3
(g5
S'\xa2t\x0eBM\xb0O@'
tRp814
F0.18800902366638184
tp815
a(I3
g3
(g5
S'\x94\xdbs\x82\xde\x9c@@'
tRp816
F0.20838809013366699
tp817
a(I3
g3
(g5
S'\x18\xd9\x06j\xc6\xbb8@'
tRp818
F0.29102420806884766
tp819
a(I3
g3
(g5
S'\x00\x00\x00\x00\x00\x00\x00\x00'
tRp820
F10.865957975387573
tp821
aa(lp822
(I3
g3
(g5
S'\xc0b\x84\x90\x80\xefb@'
tRp823
F0.15510201454162598
tp824
a(I3
g3
(g5
S'\xca&\x17\xb5H\x94`@'
tRp825
F0.14222502708435059
tp826
a(I3
g3
(g5
S'\x15C{\xae\xa9 T@'
tRp827
F0.14905595779418945
tp828
a(I3
g3
(g5
S'\x15C{\xae\xa9 T@'
tRp829
F0.15094399452209473
tp830
a(I3
g3
(g5
S'\x15C{\xae\xa9 T@'
tRp831
F0.19148397445678711
tp832
a(I3
g3
(g5
S'\x15C{\xae\xa9 T@'
tRp833
F8.3470339775085449
tp834
a(I3
g3
(g5
S'\xf6S\xc6\x18umL@'
tRp835
F0.34040188789367676
tp836
a(I3
g3
(g5
S'\xc6\xda\xa3\xd5\xb1\xf2W@'
tRp837
F0.31572294235229492
tp838
a(I3
g3
(g5
S'\xaaq8S\xd7=Y@'
tRp839
F0.18323802947998047
tp840
a(I3
g3
(g5
S'BN<\x0c\x88IQ@'
tRp841
F0.17749905586242676
tp842
a(I3
g3
(g5
S"'\xe5\xd0\x89\xad\x94R@"
tRp843
F9.6808300018310547
tp844
a(I3
g3
(g5
S"'\xe5\xd0\x89\xad\x94R@"
tRp845
F0.18272995948791504
tp846
a(I3
g3
(g5
S'`\xd8\xf7(\x10\xf0G@'
tRp847
F0.17954111099243164
tp848
a(I3
g3
(g5
S'\xd0dTA\xf7\xe34@'
tRp849
F0.27628302574157715
tp850
a(I3
g3
(g5
S'@\xc3\xa3!\x12\x9b0@'
tRp851
F0.19448590278625488
tp852
a(I3
g3
(g5
S'@\xc3\xa3!\x12\x9b0@'
tRp853
F10.627288103103638
tp854
a(I3
g3
(g5
S'@\xc3\xa3!\x12\x9b0@'
tRp855
F0.24465394020080566
tp856
a(I3
g3
(g5
S'@\xc3\xa3!\x12\x9b0@'
tRp857
F0.24796795845031738
tp858
a(I3
g3
(g5
S'@\xc3\xa3!\x12\x9b0@'
tRp859
F0.24910306930541992
tp860
a(I3
g3
(g5
S'@\xc3\xa3!\x12\x9b0@'
tRp861
F0.26015996932983398
tp862
a(I3
g3
(g5
S'\x02\xbbUe\x19\xd7X@'
tRp863
F11.365482807159424
tp864
a(I3
g3
(g5
S'\x02\xbbUe\x19\xd7X@'
tRp865
F0.20398116111755371
tp866
a(I3
g3
(g5
S'\x02\xbbUe\x19\xd7X@'
tRp867
F0.19060206413269043
tp868
a(I3
g3
(g5
S'\x02\xbbUe\x19\xd7X@'
tRp869
F0.19229698181152344
tp870
a(I3
g3
(g5
S'\x02\xbbUe\x19\xd7X@'
tRp871
F0.19525480270385742
tp872
a(I3
g3
(g5
S'@\xc3\xa3!\x12\x9b0@'
tRp873
F12.557908058166504
tp874
a(I3
g3
(g5
S'@\xc3\xa3!\x12\x9b0@'
tRp875
F0.284149169921875
tp876
a(I3
g3
(g5
S'@\xc3\xa3!\x12\x9b0@'
tRp877
F0.28664708137512207
tp878
a(I3
g3
(g5
S'@\xc3\xa3!\x12\x9b0@'
tRp879
F0.30452394485473633
tp880
a(I3
g3
(g5
S'@\xc3\xa3!\x12\x9b0@'
tRp881
F0.29149603843688965
tp882
a(I3
g3
(g5
S'@\xc3\xa3!\x12\x9b0@'
tRp883
F13.606746912002563
tp884
a(I3
g3
(g5
S'@\xc3\xa3!\x12\x9b0@'
tRp885
F0.27909684181213379
tp886
a(I3
g3
(g5
S'@\xc3\xa3!\x12\x9b0@'
tRp887
F0.28103184700012207
tp888
a(I3
g3
(g5
S'@\xc3\xa3!\x12\x9b0@'
tRp889
F0.30154204368591309
tp890
aa(lp891
(I3
g3
(g5
S'D\xe8d\xeb0\xfa]@'
tRp892
F0.13795208930969238
tp893
a(I3
g3
(g5
S'P\t2\x98\x15\xbb`@'
tRp894
F0.14303994178771973
tp895
a(I3
g3
(g5
S'\xe4\xa8\x8c2\xaf\xf7e@'
tRp896
F0.3345179557800293
tp897
a(I3
g3
(g5
S'\xe4\xa8\x8c2\xaf\xf7e@'
tRp898
F0.14490294456481934
tp899
a(I3
g3
(g5
S'\xe4\xa8\x8c2\xaf\xf7e@'
tRp900
F0.14902997016906738
tp901
a(I3
g3
(g5
S'\x10\xd8\xb8\x1aH\xa5c@'
tRp902
F8.4637510776519775
tp903
a(I3
g3
(g5
S'\x0f~\xdb-\x16\xfa_@'
tRp904
F0.15822601318359375
tp905
a(I3
g3
(g5
S'x\x9exZW\xe0H@'
tRp906
F0.18127298355102539
tp907
a(I3
g3
(g5
S'\x04\xca\x9b\x9drd`@'
tRp908
F0.27550697326660156
tp909
a(I3
g3
(g5
S'L\x0f\x89\xec\xe5~a@'
tRp910
F0.18766498565673828
tp911
a(I3
g3
(g5
S'\xdf\x06@\xea\xc8\xe3Q@'
tRp912
F9.9105310440063477
tp913
a(I3
g3
(g5
S'\x80\x02\xd8\xde |\\@'
tRp914
F0.2926790714263916
tp915
a(I3
g3
(g5
S'\xdeJ\xd4\xa1\x83\x08W@'
tRp916
F0.46243381500244141
tp917
a(I3
g3
(g5
S'\xdeJ\xd4\xa1\x83\x08W@'
tRp918
F0.26566004753112793
tp919
a(I3
g3
(g5
S'\xdf\x06@\xea\xc8\xe3Q@'
tRp920
F0.51467204093933105
tp921
a(I3
g3
(g5
S'\xdf\x06@\xea\xc8\xe3Q@'
tRp922
F10.8070068359375
tp923
a(I3
g3
(g5
S'x\x9exZW\xe0H@'
tRp924
F0.3406670093536377
tp925
a(I3
g3
(g5
S'x\x9exZW\xe0H@'
tRp926
F0.33293294906616211
tp927
a(I3
g3
(g5
S'x\x9exZW\xe0H@'
tRp928
F0.41371393203735352
tp929
a(I3
g3
(g5
S'x\x9exZW\xe0H@'
tRp930
F0.35999298095703125
tp931
a(I3
g3
(g5
S'x\x9exZW\xe0H@'
tRp932
F11.934200048446655
tp933
a(I3
g3
(g5
S'x\x9exZW\xe0H@'
tRp934
F0.33295512199401855
tp935
a(I3
g3
(g5
S'x\x9exZW\xe0H@'
tRp936
F0.32820701599121094
tp937
a(I3
g3
(g5
S'x\x9exZW\xe0H@'
tRp938
F0.3111569881439209
tp939
a(I3
g3
(g5
S'x\x9exZW\xe0H@'
tRp940
F0.31461501121520996
tp941
a(I3
g3
(g5
S'x\x9exZW\xe0H@'
tRp942
F12.602308034896851
tp943
a(I3
g3
(g5
S'x\x9exZW\xe0H@'
tRp944
F0.28921103477478027
tp945
a(I3
g3
(g5
S'x\x9exZW\xe0H@'
tRp946
F0.31409907341003418
tp947
a(I3
g3
(g5
S'x\x9exZW\xe0H@'
tRp948
F0.29161715507507324
tp949
a(I3
g3
(g5
S'x\x9exZW\xe0H@'
tRp950
F0.29417300224304199
tp951
a(I3
g3
(g5
S'x\x9exZW\xe0H@'
tRp952
F13.76456880569458
tp953
a(I3
g3
(g5
S'x\x9exZW\xe0H@'
tRp954
F0.31255602836608887
tp955
a(I3
g3
(g5
S'x\x9exZW\xe0H@'
tRp956
F0.3318638801574707
tp957
a(I3
g3
(g5
S'x\x9exZW\xe0H@'
tRp958
F0.31669306755065918
tp959
aa(lp960
(I3
g3
(g5
S't\x0c\xa2\x13\xd0Sf@'
tRp961
F0.13782691955566406
tp962
a(I3
g3
(g5
S'\x9f\xaf0\xf0\xc3y_@'
tRp963
F0.14328598976135254
tp964
a(I3
g3
(g5
S'\x9f\xaf0\xf0\xc3y_@'
tRp965
F0.34523105621337891
tp966
a(I3
g3
(g5
S'\xaekc\x1f\x8e\xafX@'
tRp967
F0.40106916427612305
tp968
a(I3
g3
(g5
S'\xaekc\x1f\x8e\xafX@'
tRp969
F0.17120099067687988
tp970
a(I3
g3
(g5
S' \x7f\xa2\x1c\xebqB@'
tRp971
F8.7649450302124023
tp972
a(I3
g3
(g5
S'\xc0\xc1h\xb7\xa9\xa6\x19@'
tRp973
F0.53102898597717285
tp974
a(I3
g3
(g5
S'Lm}\xe1\x17L@@'
tRp975
F0.55557608604431152
tp976
a(I3
g3
(g5
S'\xaekc\x1f\x8e\xafX@'
tRp977
F1.6390490531921387
tp978
a(I3
g3
(g5
S'\xaekc\x1f\x8e\xafX@'
tRp979
F0.16143321990966797
tp980
a(I3
g3
(g5
S'Q\x03\xe2<\xea\xe6]@'
tRp981
F9.5671710968017578
tp982
a(I3
g3
(g5
S'\xb0\x9fJ\xc3e\x060@'
tRp983
F0.1964569091796875
tp984
a(I3
g3
(g5
S"Z\xe0\xf9'\ntU@"
tRp985
F0.26643705368041992
tp986
a(I3
g3
(g5
S'\xb0\x9fJ\xc3e\x060@'
tRp987
F0.21318793296813965
tp988
a(I3
g3
(g5
S'\xb0\x9fJ\xc3e\x060@'
tRp989
F0.26152396202087402
tp990
a(I3
g3
(g5
S'\xc0\xc1h\xb7\xa9\xa6\x19@'
tRp991
F11.194900989532471
tp992
a(I3
g3
(g5
S'\xc0\xc1h\xb7\xa9\xa6\x19@'
tRp993
F0.3221590518951416
tp994
a(I3
g3
(g5
S'\xc0\xc1h\xb7\xa9\xa6\x19@'
tRp995
F0.21155405044555664
tp996
a(I3
g3
(g5
S'\xc0\xc1h\xb7\xa9\xa6\x19@'
tRp997
F0.21409296989440918
tp998
a(I3
g3
(g5
S'\xc0\xc1h\xb7\xa9\xa6\x19@'
tRp999
F0.27182793617248535
tp1000
a(I3
g3
(g5
S'\xc0\xc1h\xb7\xa9\xa6\x19@'
tRp1001
F11.761934041976929
tp1002
a(I3
g3
(g5
S'\xc0\xc1h\xb7\xa9\xa6\x19@'
tRp1003
F0.27609801292419434
tp1004
a(I3
g3
(g5
S'\xc0\xc1h\xb7\xa9\xa6\x19@'
tRp1005
F0.27865982055664062
tp1006
a(I3
g3
(g5
S'\xc0\xc1h\xb7\xa9\xa6\x19@'
tRp1007
F0.30006504058837891
tp1008
a(I3
g3
(g5
S'\xc0\xc1h\xb7\xa9\xa6\x19@'
tRp1009
F0.29312682151794434
tp1010
a(I3
g3
(g5
S'\xc0\xc1h\xb7\xa9\xa6\x19@'
tRp1011
F12.527018070220947
tp1012
a(I3
g3
(g5
S'\xc0\xc1h\xb7\xa9\xa6\x19@'
tRp1013
F0.26725292205810547
tp1014
a(I3
g3
(g5
S'\xc0\xc1h\xb7\xa9\xa6\x19@'
tRp1015
F0.2912299633026123
tp1016
a(I3
g3
(g5
S'\xc0\xc1h\xb7\xa9\xa6\x19@'
tRp1017
F0.29242897033691406
tp1018
a(I3
g3
(g5
S'\xc0\xc1h\xb7\xa9\xa6\x19@'
tRp1019
F0.2951350212097168
tp1020
a(I3
g3
(g5
S'\xc0\xc1h\xb7\xa9\xa6\x19@'
tRp1021
F13.597626924514771
tp1022
a(I3
g3
(g5
S'\xc0\xc1h\xb7\xa9\xa6\x19@'
tRp1023
F0.28115701675415039
tp1024
a(I3
g3
(g5
S'\xc0\xc1h\xb7\xa9\xa6\x19@'
tRp1025
F0.2684941291809082
tp1026
a(I3
g3
(g5
S'\xc0\xc1h\xb7\xa9\xa6\x19@'
tRp1027
F0.27094388008117676
tp1028
aa(lp1029
(I3
g3
(g5
S'\xb7c\x14\x06\x9d\r`@'
tRp1030
F0.13725399971008301
tp1031
a(I3
g3
(g5
S'\x15n\xaf\xbd\xe6\tY@'
tRp1032
F0.14269089698791504
tp1033
a(I3
g3
(g5
S"\x0b\x99m\x98\x82'V@"
tRp1034
F0.30194902420043945
tp1035
a(I3
g3
(g5
S'r_e\xf5\xa8\xf5c@'
tRp1036
F0.29403209686279297
tp1037
a(I3
g3
(g5
S'r_e\xf5\xa8\xf5c@'
tRp1038
F0.16200089454650879
tp1039
a(I3
g3
(g5
S'0j\xe1Oq\xefS@'
tRp1040
F11.639714002609253
tp1041
a(I3
g3
(g5
S'\xd2\xb0Q\x97K=I@'
tRp1042
F2.6302862167358398
tp1043
a(I3
g3
(g5
S'\xbe\x06\xceL\x83xC@'
tRp1044
F0.78622198104858398
tp1045
a(I3
g3
(g5
S'\xbe\x06\xceL\x83xC@'
tRp1046
F0.68592214584350586
tp1047
a(I3
g3
(g5
S'o\xdd\x87\x88\xfel[@'
tRp1048
F0.61452698707580566
tp1049
a(I3
g3
(g5
S's\xea\x943\x8b\x9ea@'
tRp1050
F9.5709547996520996
tp1051
a(I3
g3
(g5
S'\xb1\x03o\xf9y\x0fS@'
tRp1052
F0.18244409561157227
tp1053
a(I3
g3
(g5
S'\xe4\xbf\x9bWP>F@'
tRp1054
F0.18363404273986816
tp1055
a(I3
g3
(g5
S'\x9a\x81\xad\xf4\xdb\xb0B@'
tRp1056
F0.19366097450256348
tp1057
a(I3
g3
(g5
S'\xb4\xcb\xe2\x002\x95Q@'
tRp1058
F0.18822598457336426
tp1059
a(I3
g3
(g5
S'o\x81\x1b\xc7J\xe1R@'
tRp1060
F11.12348198890686
tp1061
a(I3
g3
(g5
S'\xc8\x96\xc5M\xb5\n?@'
tRp1062
F0.29235076904296875
tp1063
a(I3
g3
(g5
S'P\xd97\xdf\xf9\xd7J@'
tRp1064
F0.2830350399017334
tp1065
a(I3
g3
(g5
S'\x00\x9f\xc7\xe57\xca\x14@'
tRp1066
F0.21539187431335449
tp1067
a(I3
g3
(g5
S'\xc8\x96\xc5M\xb5\n?@'
tRp1068
F0.23984003067016602
tp1069
a(I3
g3
(g5
S'\xc8\x96\xc5M\xb5\n?@'
tRp1070
F12.12175989151001
tp1071
a(I3
g3
(g5
S'\xc8\x96\xc5M\xb5\n?@'
tRp1072
F0.29907083511352539
tp1073
a(I3
g3
(g5
S'\xc8\x96\xc5M\xb5\n?@'
tRp1074
F0.31948304176330566
tp1075
a(I3
g3
(g5
S'\xc8\x96\xc5M\xb5\n?@'
tRp1076
F0.30360698699951172
tp1077
a(I3
g3
(g5
S'\xc8\x96\xc5M\xb5\n?@'
tRp1078
F0.31451702117919922
tp1079
a(I3
g3
(g5
S'\xd0\x12\\\xa7\x81\xec5@'
tRp1080
F12.615087032318115
tp1081
a(I3
g3
(g5
S'\xd0\x12\\\xa7\x81\xec5@'
tRp1082
F2.2748439311981201
tp1083
a(I3
g3
(g5
S'\xd0\x12\\\xa7\x81\xec5@'
tRp1084
F2.2316968441009521
tp1085
a(I3
g3
(g5
S'\xd0\x12\\\xa7\x81\xec5@'
tRp1086
F2.2661130428314209
tp1087
a(I3
g3
(g5
S'\xd0\x12\\\xa7\x81\xec5@'
tRp1088
F2.2487030029296875
tp1089
a(I3
g3
(g5
S'\xd0\x12\\\xa7\x81\xec5@'
tRp1090
F15.465342998504639
tp1091
a(I3
g3
(g5
S'\x00\x00\x00\x00\x00\x00\x00\x00'
tRp1092
F2.0341289043426514
tp1093
aa(lp1094
(I3
g3
(g5
S'\xe7\xe4\xd3fQ\xb7_@'
tRp1095
F0.13774991035461426
tp1096
a(I3
g3
(g5
S'\xa9\xde\x04\x91\xad\xb7b@'
tRp1097
F0.14317703247070312
tp1098
a(I3
g3
(g5
S'\xe7\xe4\xd3fQ\xb7_@'
tRp1099
F0.35476994514465332
tp1100
a(I3
g3
(g5
S'\xbc\xed\x06/\xf1\xb3[@'
tRp1101
F0.15600109100341797
tp1102
a(I3
g3
(g5
S'\xe0}\x8eu\xder^@'
tRp1103
F0.17739200592041016
tp1104
a(I3
g3
(g5
S'\xe7\xe4\xd3fQ\xb7_@'
tRp1105
F8.2369530200958252
tp1106
a(I3
g3
(g5
S'T\x96\x99\xd64\xf9F@'
tRp1107
F0.18058300018310547
tp1108
a(I3
g3
(g5
S'\xc8\x02\x9aQ\xdb-F@'
tRp1109
F0.18834996223449707
tp1110
a(I3
g3
(g5
S'<\x96\xb5\xc1\x07\x81Q@'
tRp1111
F0.18936800956726074
tp1112
a(I3
g3
(g5
S"dR\xfc\x19'\xd0U@"
tRp1113
F0.20049905776977539
tp1114
a(I3
g3
(g5
S'\xc8\x02\x9aQ\xdb-F@'
tRp1115
F9.9230759143829346
tp1116
a(I3
g3
(g5
S'\xc8\x02\x9aQ\xdb-F@'
tRp1117
F0.22042393684387207
tp1118
a(I3
g3
(g5
S'\xc8\x02\x9aQ\xdb-F@'
tRp1119
F0.22903180122375488
tp1120
a(I3
g3
(g5
S'\xc8\x02\x9aQ\xdb-F@'
tRp1121
F0.24094200134277344
tp1122
a(I3
g3
(g5
S'\xc8\x02\x9aQ\xdb-F@'
tRp1123
F0.24312400817871094
tp1124
a(I3
g3
(g5
S'\xc8\x02\x9aQ\xdb-F@'
tRp1125
F10.482661962509155
tp1126
a(I3
g3
(g5
S'\xc8\x02\x9aQ\xdb-F@'
tRp1127
F0.22419905662536621
tp1128
a(I3
g3
(g5
S'\xc8\x02\x9aQ\xdb-F@'
tRp1129
F0.25486993789672852
tp1130
a(I3
g3
(g5
S'\xc8\x02\x9aQ\xdb-F@'
tRp1131
F0.27210688591003418
tp1132
a(I3
g3
(g5
S'\xc8\x02\x9aQ\xdb-F@'
tRp1133
F0.2596900463104248
tp1134
a(I3
g3
(g5
S'\xc8\x02\x9aQ\xdb-F@'
tRp1135
F11.634842157363892
tp1136
a(I3
g3
(g5
S'\xc8\x02\x9aQ\xdb-F@'
tRp1137
F0.26431798934936523
tp1138
a(I3
g3
(g5
S'\xc8\x02\x9aQ\xdb-F@'
tRp1139
F0.26612496376037598
tp1140
a(I3
g3
(g5
S'\xc8\x02\x9aQ\xdb-F@'
tRp1141
F0.27301311492919922
tp1142
a(I3
g3
(g5
S'\xc8\x02\x9aQ\xdb-F@'
tRp1143
F0.27090120315551758
tp1144
a(I3
g3
(g5
S'\xe0}\x8eu\xder^@'
tRp1145
F12.451932907104492
tp1146
a(I3
g3
(g5
S'\xe0}\x8eu\xder^@'
tRp1147
F0.20120000839233398
tp1148
a(I3
g3
(g5
S'\xe0}\x8eu\xder^@'
tRp1149
F0.20361495018005371
tp1150
a(I3
g3
(g5
S'\xe0}\x8eu\xder^@'
tRp1151
F0.2055809497833252
tp1152
a(I3
g3
(g5
S'\xe0}\x8eu\xder^@'
tRp1153
F0.20896816253662109
tp1154
a(I3
g3
(g5
S'\xc8\x02\x9aQ\xdb-F@'
tRp1155
F13.604301929473877
tp1156
a(I3
g3
(g5
S'\xc8\x02\x9aQ\xdb-F@'
tRp1157
F0.33586883544921875
tp1158
a(I3
g3
(g5
S'\xc8\x02\x9aQ\xdb-F@'
tRp1159
F0.31334996223449707
tp1160
a(I3
g3
(g5
S'\xc8\x02\x9aQ\xdb-F@'
tRp1161
F0.31655311584472656
tp1162
aa(lp1163
(I3
g3
(g5
S'\n\xfa\xd0:\xb7@V@'
tRp1164
F0.13746094703674316
tp1165
a(I3
g3
(g5
S';\xa4`\x8bf\xca\\@'
tRp1166
F0.14317584037780762
tp1167
a(I3
g3
(g5
S'\n\xfa\xd0:\xb7@V@'
tRp1168
F0.25014495849609375
tp1169
a(I3
g3
(g5
S'\n\xfa\xd0:\xb7@V@'
tRp1170
F0.35176706314086914
tp1171
a(I3
g3
(g5
S'D\xedL\x12F\x96e@'
tRp1172
F0.49489188194274902
tp1173
a(I3
g3
(g5
S'D\xedL\x12F\x96e@'
tRp1174
F8.615307092666626
tp1175
a(I3
g3
(g5
S'D\xedL\x12F\x96e@'
tRp1176
F0.15345001220703125
tp1177
a(I3
g3
(g5
S'D\xedL\x12F\x96e@'
tRp1178
F0.15590691566467285
tp1179
a(I3
g3
(g5
S'D\xedL\x12F\x96e@'
tRp1180
F0.16223692893981934
tp1181
a(I3
g3
(g5
S'D\xedL\x12F\x96e@'
tRp1182
F0.16077899932861328
tp1183
a(I3
g3
(g5
S'>\xee\x9e\xe5v\x96K@'
tRp1184
F9.6913938522338867
tp1185
a(I3
g3
(g5
S'>\xee\x9e\xe5v\x96K@'
tRp1186
F0.21883010864257812
tp1187
a(I3
g3
(g5
S'>\xee\x9e\xe5v\x96K@'
tRp1188
F0.22107386589050293
tp1189
a(I3
g3
(g5
S'>\xee\x9e\xe5v\x96K@'
tRp1190
F0.22288799285888672
tp1191
a(I3
g3
(g5
S'>\xee\x9e\xe5v\x96K@'
tRp1192
F0.22541594505310059
tp1193
a(I3
g3
(g5
S'\xd4\xa1E\x16sLO@'
tRp1194
F10.641879081726074
tp1195
a(I3
g3
(g5
S'\xd4\xa1E\x16sLO@'
tRp1196
F0.27707004547119141
tp1197
a(I3
g3
(g5
S'\xd4\xa1E\x16sLO@'
tRp1198
F0.27878999710083008
tp1199
a(I3
g3
(g5
S'\xd4\xa1E\x16sLO@'
tRp1200
F0.28092217445373535
tp1201
a(I3
g3
(g5
S'\xd4\xa1E\x16sLO@'
tRp1202
F0.26575803756713867
tp1203
a(I3
g3
(g5
S'>\xee\x9e\xe5v\x96K@'
tRp1204
F11.48868203163147
tp1205
a(I3
g3
(g5
S'>\xee\x9e\xe5v\x96K@'
tRp1206
F0.24680089950561523
tp1207
a(I3
g3
(g5
S'>\xee\x9e\xe5v\x96K@'
tRp1208
F0.24900984764099121
tp1209
a(I3
g3
(g5
S'>\xee\x9e\xe5v\x96K@'
tRp1210
F0.2519371509552002
tp1211
a(I3
g3
(g5
S'>\xee\x9e\xe5v\x96K@'
tRp1212
F0.25427985191345215
tp1213
a(I3
g3
(g5
S'>\xee\x9e\xe5v\x96K@'
tRp1214
F12.431701898574829
tp1215
a(I3
g3
(g5
S'>\xee\x9e\xe5v\x96K@'
tRp1216
F0.25407981872558594
tp1217
a(I3
g3
(g5
S'>\xee\x9e\xe5v\x96K@'
tRp1218
F0.25592303276062012
tp1219
a(I3
g3
(g5
S'>\xee\x9e\xe5v\x96K@'
tRp1220
F0.25921082496643066
tp1221
a(I3
g3
(g5
S'>\xee\x9e\xe5v\x96K@'
tRp1222
F0.2610621452331543
tp1223
a(I3
g3
(g5
S'>\xee\x9e\xe5v\x96K@'
tRp1224
F13.500264167785645
tp1225
a(I3
g3
(g5
S'>\xee\x9e\xe5v\x96K@'
tRp1226
F0.27530694007873535
tp1227
a(I3
g3
(g5
S'>\xee\x9e\xe5v\x96K@'
tRp1228
F0.27839899063110352
tp1229
a(I3
g3
(g5
S'>\xee\x9e\xe5v\x96K@'
tRp1230
F0.28606200218200684
tp1231
aa(lp1232
(I3
g3
(g5
S'\x9dCk\x0e\xba\x1fd@'
tRp1233
F0.13736510276794434
tp1234
a(I3
g3
(g5
S'\xca\nD\x1d\\2a@'
tRp1235
F0.59429216384887695
tp1236
a(I3
g3
(g5
S'\x80\xce\xc9\xa3B"\\@'
tRp1237
F0.14780306816101074
tp1238
a(I3
g3
(g5
S'\x12 \x0cC\x7f\xfe`@'
tRp1239
F0.34004497528076172
tp1240
a(I3
g3
(g5
S'\x80\xce\xc9\xa3B"\\@'
tRp1241
F0.14974117279052734
tp1242
a(I3
g3
(g5
S'\xeaf\x81\x966\xc3R@'
tRp1243
F9.0963709354400635
tp1244
a(I3
g3
(g5
S'\xeaf\x81\x966\xc3R@'
tRp1245
F1.8225669860839844
tp1246
a(I3
g3
(g5
S'-/\xe5\xfdWEh@'
tRp1247
F2.6851098537445068
tp1248
a(I3
g3
(g5
S'-/\xe5\xfdWEh@'
tRp1249
F0.15983390808105469
tp1250
a(I3
g3
(g5
S'-/\xe5\xfdWEh@'
tRp1251
F0.16311097145080566
tp1252
a(I3
g3
(g5
S'\x9cy{WY\xfcT@'
tRp1253
F9.4053299427032471
tp1254
a(I3
g3
(g5
S'P\xf1\\lX$N@'
tRp1255
F0.18485212326049805
tp1256
a(I3
g3
(g5
S'H\x02\xa7vw82@'
tRp1257
F0.1905519962310791
tp1258
a(I3
g3
(g5
S'\x1c\x87F\x0c\xc3\x8eQ@'
tRp1259
F0.24728894233703613
tp1260
a(I3
g3
(g5
S'\xd2_\x07\xbe\xa6\xf7Z@'
tRp1261
F0.28697299957275391
tp1262
a(I3
g3
(g5
S'\xca\nD\x1d\\2a@'
tRp1263
F10.592655181884766
tp1264
a(I3
g3
(g5
S'H\x02\xa7vw82@'
tRp1265
F0.22151088714599609
tp1266
a(I3
g3
(g5
S'\x04\x0e\xc0\xa7\xe0nB@'
tRp1267
F0.22723698616027832
tp1268
a(I3
g3
(g5
S'H\x02\xa7vw82@'
tRp1269
F0.2932431697845459
tp1270
a(I3
g3
(g5
S'h3\xb4)&\xe1F@'
tRp1271
F0.22421884536743164
tp1272
a(I3
g3
(g5
S'H\x02\xa7vw82@'
tRp1273
F19.478337049484253
tp1274
a(I3
g3
(g5
S'H\x02\xa7vw82@'
tRp1275
F3.844376802444458
tp1276
a(I3
g3
(g5
S'H\x02\xa7vw82@'
tRp1277
F3.8256919384002686
tp1278
a(I3
g3
(g5
S'H\x02\xa7vw82@'
tRp1279
F3.8604722023010254
tp1280
a(I3
g3
(g5
S'H\x02\xa7vw82@'
tRp1281
F3.7995641231536865
tp1282
a(I3
g3
(g5
S'H\x02\xa7vw82@'
tRp1283
F18.163923978805542
tp1284
a(I3
g3
(g5
S'H\x02\xa7vw82@'
tRp1285
F4.1215810775756836
tp1286
a(I3
g3
(g5
S'H\x02\xa7vw82@'
tRp1287
F11.645274877548218
tp1288
a(I3
g3
(g5
S'H\x02\xa7vw82@'
tRp1289
F11.57313084602356
tp1290
a(I3
g3
(g5
S'H\x02\xa7vw82@'
tRp1291
F11.599881887435913
tp1292
a(I3
g3
(g5
S'\x08\xfe\xc8\xde\xa4\xed5@'
tRp1293
F19.465244054794312
tp1294
a(I3
g3
(g5
S'h3\xb4)&\xe1F@'
tRp1295
F5.3525300025939941
tp1296
a(I3
g3
(g5
S'\x94\x1b\xa2\xbe\x82\xc1G@'
tRp1297
F4.3289828300476074
tp1298
a(I3
g3
(g5
S'\x94\x1b\xa2\xbe\x82\xc1G@'
tRp1299
F7.0876970291137695
tp1300
aa.