(lp1
(lp2
(I6
cnumpy.core.multiarray
scalar
p3
(cnumpy
dtype
p4
(S'f8'
I0
I1
tRp5
(I3
S'<'
NNNI-1
I-1
I0
tbS'\xd3\x1d\xd4yzE[@'
tRp6
F0.36099815368652344
tp7
a(I6
g3
(g5
S'\xf1\x98\xa8+y\xecP@'
tRp8
F0.26292991638183594
tp9
a(I6
g3
(g5
S'\xa0\xae\x94\x0f\nr&@'
tRp10
F0.28958702087402344
tp11
a(I6
g3
(g5
S'\x0b\xeb!*\xcf\x96c@'
tRp12
F0.26104593276977539
tp13
a(I6
g3
(g5
S'\x0b\xeb!*\xcf\x96c@'
tRp14
F0.24396514892578125
tp15
a(I6
g3
(g5
S'\xc6=\xe0\x7f\x9b%N@'
tRp16
F9.7976388931274414
tp17
a(I6
g3
(g5
S'c\x17[\x01a2Q@'
tRp18
F0.27652287483215332
tp19
a(I6
g3
(g5
S'c\x17[\x01a2Q@'
tRp20
F0.44637703895568848
tp21
a(I6
g3
(g5
S'c\x17[\x01a2Q@'
tRp22
F0.50142097473144531
tp23
a(I6
g3
(g5
S'`\x8f\x1c\xdd\x12\x95\x1e@'
tRp24
F0.39695191383361816
tp25
a(I6
g3
(g5
S'`\x8f\x1c\xdd\x12\x95\x1e@'
tRp26
F12.36480188369751
tp27
a(I6
g3
(g5
S'`\x8f\x1c\xdd\x12\x95\x1e@'
tRp28
F0.54829502105712891
tp29
a(I6
g3
(g5
S'`\x8f\x1c\xdd\x12\x95\x1e@'
tRp30
F0.55322504043579102
tp31
a(I6
g3
(g5
S'`\x8f\x1c\xdd\x12\x95\x1e@'
tRp32
F0.56256389617919922
tp33
a(I6
g3
(g5
S'`\x8f\x1c\xdd\x12\x95\x1e@'
tRp34
F0.56691813468933105
tp35
a(I6
g3
(g5
S'`\x8f\x1c\xdd\x12\x95\x1e@'
tRp36
F14.03937292098999
tp37
a(I6
g3
(g5
S'`\x8f\x1c\xdd\x12\x95\x1e@'
tRp38
F0.55833315849304199
tp39
aa(lp40
(I6
g3
(g5
S'\x08\xac#\xdb\xc8O[@'
tRp41
F0.35571503639221191
tp42
a(I6
g3
(g5
S'\x9e\xedIpP6W@'
tRp43
F0.22512483596801758
tp44
a(I6
g3
(g5
S'\x9e\xedIpP6W@'
tRp45
F0.5143120288848877
tp46
a(I6
g3
(g5
S'\xeb\x92?\xf7\xef)e@'
tRp47
F0.8682861328125
tp48
a(I6
g3
(g5
S'\xeb\x92?\xf7\xef)e@'
tRp49
F0.29802203178405762
tp50
a(I6
g3
(g5
S'b\x91\xd4\xc2\xd0\xabO@'
tRp51
F14.250478029251099
tp52
a(I6
g3
(g5
S'*w\xb9\x14y\xddT@'
tRp53
F0.30402898788452148
tp54
a(I6
g3
(g5
S'\x824#J\x9c\xbeS@'
tRp55
F0.29923486709594727
tp56
a(I6
g3
(g5
S'\x824#J\x9c\xbeS@'
tRp57
F0.32318997383117676
tp58
a(I6
g3
(g5
S'@\x8f\xf4W&;E@'
tRp59
F0.50306797027587891
tp60
a(I6
g3
(g5
S'@\x8f\xf4W&;E@'
tRp61
F12.82944393157959
tp62
a(I6
g3
(g5
S'\xb8pZ\xd1:JB@'
tRp63
F0.58844494819641113
tp64
a(I6
g3
(g5
S'\xb8pZ\xd1:JB@'
tRp65
F0.52449798583984375
tp66
a(I6
g3
(g5
S'\xb8pZ\xd1:JB@'
tRp67
F0.52385497093200684
tp68
a(I6
g3
(g5
S'\xb8pZ\xd1:JB@'
tRp69
F0.53673505783081055
tp70
a(I6
g3
(g5
S'\xb8pZ\xd1:JB@'
tRp71
F13.909929990768433
tp72
a(I6
g3
(g5
S'\xb8pZ\xd1:JB@'
tRp73
F0.67563796043395996
tp74
aa(lp75
(I6
g3
(g5
S'\x1ae\xbd\xf1~\x8d`@'
tRp76
F0.35639691352844238
tp77
a(I6
g3
(g5
S'R)H\x9aE\x87]@'
tRp78
F0.45664095878601074
tp79
a(I6
g3
(g5
S'\xbaQ\xb9\xf4Apb@'
tRp80
F0.27577090263366699
tp81
a(I6
g3
(g5
S'\xbaQ\xb9\xf4Apb@'
tRp82
F0.26413583755493164
tp83
a(I6
g3
(g5
S'\xbaQ\xb9\xf4Apb@'
tRp84
F0.29730796813964844
tp85
a(I6
g3
(g5
S'\x13\xf0\xeb\x19zJ_@'
tRp86
F10.152949810028076
tp87
a(I6
g3
(g5
S'Y\xe0\x9c\xf6[\xadP@'
tRp88
F0.45412611961364746
tp89
a(I6
g3
(g5
S'P\x9fi\xf1\x12\xabE@'
tRp90
F0.46732187271118164
tp91
a(I6
g3
(g5
S'P\x9fi\xf1\x12\xabE@'
tRp92
F0.38871407508850098
tp93
a(I6
g3
(g5
S'\xd0k"\xa7{!D@'
tRp94
F0.59962701797485352
tp95
a(I6
g3
(g5
S'P\x9fi\xf1\x12\xabE@'
tRp96
F12.089207887649536
tp97
a(I6
g3
(g5
S'\xd0k"\xa7{!D@'
tRp98
F0.68633389472961426
tp99
a(I6
g3
(g5
S'@\x8a`Y\x7fQ/@'
tRp100
F0.55465817451477051
tp101
a(I6
g3
(g5
S'P\x9fi\xf1\x12\xabE@'
tRp102
F0.60032296180725098
tp103
a(I6
g3
(g5
S'P\x9fi\xf1\x12\xabE@'
tRp104
F0.61373591423034668
tp105
a(I6
g3
(g5
S'`pE\x98\xa5\x9c!@'
tRp106
F13.951760053634644
tp107
a(I6
g3
(g5
S'P\x9fi\xf1\x12\xabE@'
tRp108
F0.50721311569213867
tp109
aa(lp110
(I6
g3
(g5
S'^\x9c\x89\xc12:^@'
tRp111
F0.35619401931762695
tp112
a(I6
g3
(g5
S'\x90S^0\xe7\xacO@'
tRp113
F0.50388002395629883
tp114
a(I6
g3
(g5
S'\x88@?\xcf\x12h>@'
tRp115
F0.46385884284973145
tp116
a(I6
g3
(g5
S'GU\xf2O1xf@'
tRp117
F0.5386359691619873
tp118
a(I6
g3
(g5
S'GU\xf2O1xf@'
tRp119
F0.24138307571411133
tp120
a(I6
g3
(g5
S'\x90S^0\xe7\xacO@'
tRp121
F9.7278778553009033
tp122
a(I6
g3
(g5
S',\xc2\xe5X\x8c\xc5A@'
tRp123
F0.49812817573547363
tp124
a(I6
g3
(g5
S',\xc2\xe5X\x8c\xc5A@'
tRp125
F0.56020689010620117
tp126
a(I6
g3
(g5
S',\xc2\xe5X\x8c\xc5A@'
tRp127
F0.60038614273071289
tp128
a(I6
g3
(g5
S',\xc2\xe5X\x8c\xc5A@'
tRp129
F0.63705086708068848
tp130
a(I6
g3
(g5
S',\xc2\xe5X\x8c\xc5A@'
tRp131
F12.017795085906982
tp132
a(I6
g3
(g5
S',\xc2\xe5X\x8c\xc5A@'
tRp133
F0.5904390811920166
tp134
a(I6
g3
(g5
S',\xc2\xe5X\x8c\xc5A@'
tRp135
F0.56441211700439453
tp136
a(I6
g3
(g5
S',\xc2\xe5X\x8c\xc5A@'
tRp137
F0.55682706832885742
tp138
a(I6
g3
(g5
S',\xc2\xe5X\x8c\xc5A@'
tRp139
F0.56370711326599121
tp140
a(I6
g3
(g5
S',\xc2\xe5X\x8c\xc5A@'
tRp141
F14.081294059753418
tp142
a(I6
g3
(g5
S',\xc2\xe5X\x8c\xc5A@'
tRp143
F0.56944799423217773
tp144
aa(lp145
(I6
g3
(g5
S'\xf1\xc3\x1e\xe3j{]@'
tRp146
F0.35400009155273438
tp147
a(I6
g3
(g5
S'l\xa6\x98\x95OGR@'
tRp148
F0.22505807876586914
tp149
a(I6
g3
(g5
S'\xd4\x9e<\x9b\x83\xecL@'
tRp150
F0.26371192932128906
tp151
a(I6
g3
(g5
S'\xdec\x9c\xe7\x93GX@'
tRp152
F0.68311095237731934
tp153
a(I6
g3
(g5
S'\xdec\x9c\xe7\x93GX@'
tRp154
F0.24161100387573242
tp155
a(I6
g3
(g5
S'hi)\xf2XPU@'
tRp156
F10.042385101318359
tp157
a(I6
g3
(g5
S'hi)\xf2XPU@'
tRp158
F0.31163597106933594
tp159
a(I6
g3
(g5
S'\xfc\xb1IJM2G@'
tRp160
F0.31974482536315918
tp161
a(I6
g3
(g5
S'`\xf6-kK\x19\x13@'
tRp162
F0.32207489013671875
tp163
a(I6
g3
(g5
S'\x00\x00\x00\x00\x00\x00\x00\x00'
tRp164
F0.53859186172485352
tp165
aa(lp166
(I6
g3
(g5
S'\xe4\xbe\xd2}(2W@'
tRp167
F0.35198307037353516
tp168
a(I6
g3
(g5
S'H\x9f\xdav\x9d\xf5I@'
tRp169
F0.2304229736328125
tp170
a(I6
g3
(g5
S'\x18\x0b|K\x98\xe67@'
tRp171
F0.61523985862731934
tp172
a(I6
g3
(g5
S'\x00\x00\x00\x00\x00\x00\x00\x00'
tRp173
F0.75285506248474121
tp174
aa(lp175
(I6
g3
(g5
S'D#F\x038=`@'
tRp176
F0.35184907913208008
tp177
a(I6
g3
(g5
S'\xb87\xd4\x17\x04\xa6F@'
tRp178
F0.23364710807800293
tp179
a(I6
g3
(g5
S'tf\xd8\x93\x8a\x8eX@'
tRp180
F0.53181815147399902
tp181
a(I6
g3
(g5
S'tf\xd8\x93\x8a\x8eX@'
tRp182
F0.27022600173950195
tp183
a(I6
g3
(g5
S'tf\xd8\x93\x8a\x8eX@'
tRp184
F0.30990195274353027
tp185
a(I6
g3
(g5
S'tf\xd8\x93\x8a\x8eX@'
tRp186
F16.575004816055298
tp187
a(I6
g3
(g5
S'tf\xd8\x93\x8a\x8eX@'
tRp188
F0.25536704063415527
tp189
a(I6
g3
(g5
S'tf\xd8\x93\x8a\x8eX@'
tRp190
F0.26106882095336914
tp191
a(I6
g3
(g5
S'tf\xd8\x93\x8a\x8eX@'
tRp192
F0.26655697822570801
tp193
a(I6
g3
(g5
S'tf\xd8\x93\x8a\x8eX@'
tRp194
F0.27209019660949707
tp195
a(I6
g3
(g5
S'\xdc\xebi\x18\xe1\xd68@'
tRp196
F12.030776977539062
tp197
a(I6
g3
(g5
S'\xc8\xd8_th\xc1R@'
tRp198
F0.32663297653198242
tp199
a(I6
g3
(g5
S'\xdc\xebi\x18\xe1\xd68@'
tRp200
F0.50357317924499512
tp201
a(I6
g3
(g5
S'@\xc2\x99\xa8\xc3\xd3\x00@'
tRp202
F0.45542001724243164
tp203
a(I6
g3
(g5
S'\xc0\xd49\xf1\xe3\xe28@'
tRp204
F3.6585521697998047
tp205
a(I6
g3
(g5
S'\xc0\xd49\xf1\xe3\xe28@'
tRp206
F18.422096967697144
tp207
a(I6
g3
(g5
S'\xc0\xd49\xf1\xe3\xe28@'
tRp208
F2.6367309093475342
tp209
aa(lp210
(I6
g3
(g5
S'3\xc4\xa3>\x9cc]@'
tRp211
F0.36155009269714355
tp212
a(I6
g3
(g5
S'\xbc\x1a\x10\x94\xf0}@@'
tRp213
F0.46727085113525391
tp214
a(I6
g3
(g5
S'T\x13\x19-TA`@'
tRp215
F0.27579498291015625
tp216
a(I6
g3
(g5
S'T\x13\x19-TA`@'
tRp217
F0.23519301414489746
tp218
a(I6
g3
(g5
S'T\x13\x19-TA`@'
tRp219
F0.24139595031738281
tp220
a(I6
g3
(g5
S"h'\xa2\xea\x94\x1eM@"
tRp221
F10.498039960861206
tp222
a(I6
g3
(g5
S'_{\xffe\x06?W@'
tRp223
F0.46737217903137207
tp224
a(I6
g3
(g5
S'\x96\xc5\x18Z|\x04S@'
tRp225
F15.995713949203491
tp226
a(I6
g3
(g5
S'8n\x0c3\x99^b@'
tRp227
F13.313154220581055
tp228
a(I6
g3
(g5
S'\xa4K"\xaf\x80lB@'
tRp229
F14.276157855987549
tp230
a(I6
g3
(g5
S'tF\xbe\xde^\xfdC@'
tRp231
F24.262968063354492
tp232
a(I6
g3
(g5
S"\xf0\xfb@bq/'@"
tRp233
F8.3688490390777588
tp234
a(I6
g3
(g5
S"\xf0\xfb@bq/'@"
tRp235
F3.9967160224914551
tp236
a(I6
g3
(g5
S"\xf0\xfb@bq/'@"
tRp237
F5.1928138732910156
tp238
a(I6
g3
(g5
S"\xf0\xfb@bq/'@"
tRp239
F3.5409369468688965
tp240
a(I6
g3
(g5
S"\xf0\xfb@bq/'@"
tRp241
F18.096240997314453
tp242
a(I6
g3
(g5
S"\xf0\xfb@bq/'@"
tRp243
F2.5911688804626465
tp244
aa(lp245
(I6
g3
(g5
S'\xd2\xacg\x9bE\x1cV@'
tRp246
F0.35621309280395508
tp247
a(I6
g3
(g5
S'X\xb3%\x81\xa5\xd5J@'
tRp248
F0.46984505653381348
tp249
a(I6
g3
(g5
S'-\xb8\xf88\xdfbj@'
tRp250
F0.55688381195068359
tp251
a(I6
g3
(g5
S'-\xb8\xf88\xdfbj@'
tRp252
F0.26737880706787109
tp253
a(I6
g3
(g5
S'-\xb8\xf88\xdfbj@'
tRp254
F0.27358293533325195
tp255
a(I6
g3
(g5
S'\xe4\x83\xa2\xe7\xb3oP@'
tRp256
F12.744064092636108
tp257
a(I6
g3
(g5
S'-\xb8\xf88\xdfbj@'
tRp258
F2.4425878524780273
tp259
a(I6
g3
(g5
S'-\xb8\xf88\xdfbj@'
tRp260
F0.26405596733093262
tp261
a(I6
g3
(g5
S'-\xb8\xf88\xdfbj@'
tRp262
F0.27014017105102539
tp263
a(I6
g3
(g5
S'-\xb8\xf88\xdfbj@'
tRp264
F0.27413511276245117
tp265
a(I6
g3
(g5
S'\xf8\x04d\xda5\xa1_@'
tRp266
F11.434013843536377
tp267
a(I6
g3
(g5
S'\xf4\xe0\x1d*}\x9bM@'
tRp268
F0.34600710868835449
tp269
a(I6
g3
(g5
S'\xb0P0\x03\x86\x9b0@'
tRp270
F0.35870194435119629
tp271
a(I6
g3
(g5
S'\xa0\xa8n\xfbh\xa1B@'
tRp272
F0.36554694175720215
tp273
a(I6
g3
(g5
S'\x00\x00\x00\x00\x00\x00\x00\x00'
tRp274
F0.35908412933349609
tp275
aa(lp276
(I6
g3
(g5
S'\xc9\x1a\x8d\xb5\xc5"b@'
tRp277
F0.35417699813842773
tp278
a(I6
g3
(g5
S'\xc59\x88?<RT@'
tRp279
F0.49398589134216309
tp280
a(I6
g3
(g5
S'\xc59\x88?<RT@'
tRp281
F0.48509502410888672
tp282
a(I6
g3
(g5
S'~\x9e\xdd\xd9\xb4N^@'
tRp283
F0.31609702110290527
tp284
a(I6
g3
(g5
S'~\x9e\xdd\xd9\xb4N^@'
tRp285
F0.24100089073181152
tp286
a(I6
g3
(g5
S'0\x80\xbca\x96\x978@'
tRp287
F10.129225015640259
tp288
a(I6
g3
(g5
S'R\x83\xe4\n|\x0eG@'
tRp289
F0.51122498512268066
tp290
a(I6
g3
(g5
S'R\x83\xe4\n|\x0eG@'
tRp291
F0.48383593559265137
tp292
a(I6
g3
(g5
S'R\x83\xe4\n|\x0eG@'
tRp293
F0.50318789482116699
tp294
a(I6
g3
(g5
S"\x802\x81\xfd\xc3\xa4'@"
tRp295
F0.53853487968444824
tp296
a(I6
g3
(g5
S'R\x83\xe4\n|\x0eG@'
tRp297
F12.276332139968872
tp298
a(I6
g3
(g5
S"\x802\x81\xfd\xc3\xa4'@"
tRp299
F0.62147903442382812
tp300
a(I6
g3
(g5
S'0\x80\xbca\x96\x978@'
tRp301
F0.55903911590576172
tp302
a(I6
g3
(g5
S'\xf8c\\}s\xd66@'
tRp303
F0.4931790828704834
tp304
a(I6
g3
(g5
S'\xf8c\\}s\xd66@'
tRp305
F0.56831002235412598
tp306
a(I6
g3
(g5
S'\x00[\x8f\xc32\xa7\x1c@'
tRp307
F14.609747886657715
tp308
a(I6
g3
(g5
S'\x00[\x8f\xc32\xa7\x1c@'
tRp309
F0.55334615707397461
tp310
aa(lp311
(I6
g3
(g5
S'H5\xd5n\x03WU@'
tRp312
F0.358795166015625
tp313
a(I6
g3
(g5
S'\xbc\xb6\xf1\x93w\xfcL@'
tRp314
F0.2288210391998291
tp315
a(I6
g3
(g5
S'?} \xd5%\xc7d@'
tRp316
F0.74498605728149414
tp317
a(I6
g3
(g5
S'?} \xd5%\xc7d@'
tRp318
F0.23301100730895996
tp319
a(I6
g3
(g5
S'?} \xd5%\xc7d@'
tRp320
F0.24269914627075195
tp321
a(I6
g3
(g5
S'\xa7\xe4\x84\xee\x9al\\@'
tRp322
F9.4323780536651611
tp323
a(I6
g3
(g5
S'\xa8)\xf1\xea\xf3\xd7N@'
tRp324
F0.30711698532104492
tp325
a(I6
g3
(g5
S'\x00\xc4\x8blu\xe1\x1d@'
tRp326
F0.32220196723937988
tp327
a(I6
g3
(g5
S'\x00\xc4\x8blu\xe1\x1d@'
tRp328
F0.61025595664978027
tp329
a(I6
g3
(g5
S'\x00\xc4\x8blu\xe1\x1d@'
tRp330
F0.51617121696472168
tp331
a(I6
g3
(g5
S'\x00\xc4\x8blu\xe1\x1d@'
tRp332
F13.126240968704224
tp333
a(I6
g3
(g5
S'\x00\xc4\x8blu\xe1\x1d@'
tRp334
F0.69536614418029785
tp335
a(I6
g3
(g5
S'\x00\xc4\x8blu\xe1\x1d@'
tRp336
F0.56964612007141113
tp337
a(I6
g3
(g5
S'\x00\xc4\x8blu\xe1\x1d@'
tRp338
F0.55649209022521973
tp339
a(I6
g3
(g5
S'\x00\xc4\x8blu\xe1\x1d@'
tRp340
F0.74568009376525879
tp341
a(I6
g3
(g5
S'\x00\xc4\x8blu\xe1\x1d@'
tRp342
F14.904494047164917
tp343
a(I6
g3
(g5
S'\x00\xc4\x8blu\xe1\x1d@'
tRp344
F0.67675614356994629
tp345
aa(lp346
(I6
g3
(g5
S'IG:\x92\xdb*[@'
tRp347
F0.35279583930969238
tp348
a(I6
g3
(g5
S'\xfa\xa6*3\xee\x00^@'
tRp349
F0.46434283256530762
tp350
a(I6
g3
(g5
S'\xfa\xa6*3\xee\x00^@'
tRp351
F0.22800803184509277
tp352
a(I6
g3
(g5
S'\xfa\xa6*3\xee\x00^@'
tRp353
F0.23676896095275879
tp354
a(I6
g3
(g5
S'\xfa\xa6*3\xee\x00^@'
tRp355
F0.24164485931396484
tp356
a(I6
g3
(g5
S'\xbbt\\\x9e\x7fkW@'
tRp357
F9.5565080642700195
tp358
a(I6
g3
(g5
S'=x\xe7x\xd1\x17V@'
tRp359
F0.28781604766845703
tp360
a(I6
g3
(g5
S'\xfa\xa6*3\xee\x00^@'
tRp361
F0.44752311706542969
tp362
a(I6
g3
(g5
S'\x11\x99\x9e\xe3Z\xc4Z@'
tRp363
F0.43899917602539062
tp364
a(I6
g3
(g5
S'z\xad\xc1}jvA@'
tRp365
F0.52734494209289551
tp366
a(I6
g3
(g5
S'z\xad\xc1}jvA@'
tRp367
F12.546634912490845
tp368
a(I6
g3
(g5
S'z\xad\xc1}jvA@'
tRp369
F0.55665493011474609
tp370
a(I6
g3
(g5
S'z\xad\xc1}jvA@'
tRp371
F0.6981358528137207
tp372
a(I6
g3
(g5
S'z\xad\xc1}jvA@'
tRp373
F0.66645503044128418
tp374
a(I6
g3
(g5
S'z\xad\xc1}jvA@'
tRp375
F0.65343594551086426
tp376
a(I6
g3
(g5
S'z\xad\xc1}jvA@'
tRp377
F14.824496984481812
tp378
a(I6
g3
(g5
S'z\xad\xc1}jvA@'
tRp379
F0.62325310707092285
tp380
aa(lp381
(I6
g3
(g5
S'\xfe\xf5\xfc\xe9h\t_@'
tRp382
F0.36208796501159668
tp383
a(I6
g3
(g5
S'\xe7\xdb\x92\x04\xb7\xdfW@'
tRp384
F0.22847509384155273
tp385
a(I6
g3
(g5
S'\xe7\xdb\x92\x04\xb7\xdfW@'
tRp386
F0.57335996627807617
tp387
a(I6
g3
(g5
S'\xf4_\x00(\xb3Xd@'
tRp388
F0.68829202651977539
tp389
a(I6
g3
(g5
S'\xf4_\x00(\xb3Xd@'
tRp390
F0.24357104301452637
tp391
a(I6
g3
(g5
S'`\x84q\xbd\xa7*N@'
tRp392
F10.354362964630127
tp393
a(I6
g3
(g5
S'zg\x86\xc4\x9d\xceT@'
tRp394
F0.41734480857849121
tp395
a(I6
g3
(g5
S'J\x80\xdfB`WL@'
tRp396
F0.42867493629455566
tp397
a(I6
g3
(g5
S'\x80-/\xfd\\{\xf4?'
tRp398
F0.58849000930786133
tp399
a(I6
g3
(g5
S'\x80-/\xfd\\{\xf4?'
tRp400
F0.60970091819763184
tp401
a(I6
g3
(g5
S'`\x84q\xbd\xa7*N@'
tRp402
F11.977648973464966
tp403
a(I6
g3
(g5
S'`\x84q\xbd\xa7*N@'
tRp404
F0.52738785743713379
tp405
a(I6
g3
(g5
S'`\x84q\xbd\xa7*N@'
tRp406
F0.53116297721862793
tp407
a(I6
g3
(g5
S'`\x84q\xbd\xa7*N@'
tRp408
F0.53979992866516113
tp409
a(I6
g3
(g5
S'`\x84q\xbd\xa7*N@'
tRp410
F0.54428696632385254
tp411
a(I6
g3
(g5
S'x\x1b\xcd\xb2z[H@'
tRp412
F13.77684211730957
tp413
a(I6
g3
(g5
S'x\x1b\xcd\xb2z[H@'
tRp414
F0.48218917846679688
tp415
aa(lp416
(I6
g3
(g5
S'\xe8\xad\xad\xd3\xae,V@'
tRp417
F0.35474181175231934
tp418
a(I6
g3
(g5
S'\xa3\xfd\xa1g-\xd9U@'
tRp419
F0.23143506050109863
tp420
a(I6
g3
(g5
S'\x02\xbbUe\x19\xd7X@'
tRp421
F0.54915213584899902
tp422
a(I6
g3
(g5
S'\x02\xbbUe\x19\xd7X@'
tRp423
F0.26074004173278809
tp424
a(I6
g3
(g5
S'\x02\xbbUe\x19\xd7X@'
tRp425
F0.30472493171691895
tp426
a(I6
g3
(g5
S'\xb0\xc1R\xe5\x80\x86=@'
tRp427
F12.440211057662964
tp428
a(I6
g3
(g5
S'\xb0\xc1R\xe5\x80\x86=@'
tRp429
F1.0853450298309326
tp430
a(I6
g3
(g5
S'\xaa\xf0\x8f\xc3Cn]@'
tRp431
F0.51741695404052734
tp432
a(I6
g3
(g5
S'\xb0\xc1R\xe5\x80\x86=@'
tRp433
F0.3034980297088623
tp434
a(I6
g3
(g5
S'\xb0\xc1R\xe5\x80\x86=@'
tRp435
F0.43824195861816406
tp436
a(I6
g3
(g5
S'\xb0\xc1R\xe5\x80\x86=@'
tRp437
F12.34964394569397
tp438
a(I6
g3
(g5
S'\xb0\xc1R\xe5\x80\x86=@'
tRp439
F0.81348419189453125
tp440
a(I6
g3
(g5
S'\xb0\xc1R\xe5\x80\x86=@'
tRp441
F0.82993793487548828
tp442
a(I6
g3
(g5
S'\xb0\xc1R\xe5\x80\x86=@'
tRp443
F0.65053510665893555
tp444
a(I6
g3
(g5
S'\xb0\xc1R\xe5\x80\x86=@'
tRp445
F0.51919698715209961
tp446
a(I6
g3
(g5
S'\xb0\xc1R\xe5\x80\x86=@'
tRp447
F14.116865873336792
tp448
a(I6
g3
(g5
S'\xb0\xc1R\xe5\x80\x86=@'
tRp449
F0.5340888500213623
tp450
aa(lp451
(I6
g3
(g5
S'\xa7\xc1\xa4\x80\xf6\xa6_@'
tRp452
F0.35578107833862305
tp453
a(I6
g3
(g5
S'\xa4<\xd4\xdeI\x8db@'
tRp454
F0.45889711380004883
tp455
a(I6
g3
(g5
S'\xe4\xa8\x8c2\xaf\xf7e@'
tRp456
F0.24108004570007324
tp457
a(I6
g3
(g5
S'\xe4\xa8\x8c2\xaf\xf7e@'
tRp458
F0.23323988914489746
tp459
a(I6
g3
(g5
S'\xe4\xa8\x8c2\xaf\xf7e@'
tRp460
F0.24281096458435059
tp461
a(I6
g3
(g5
S'\x7f\xb4\xd9@8\xb2\\@'
tRp462
F9.4200868606567383
tp463
a(I6
g3
(g5
S'o\x91^\x06\xb0\xbaX@'
tRp464
F0.32065892219543457
tp465
a(I6
g3
(g5
S'x\xb2\xd8\xd6\x1f\xabC@'
tRp466
F53.333380222320557
tp467
a(I6
g3
(g5
S'\x80\xc1\xa4\xec\xab\x7f\x0c@'
tRp468
F10.986874103546143
tp469
a(I6
g3
(g5
S'\x1c\xbb\x0c\xa2\x19\xdbH@'
tRp470
F5.549083948135376
tp471
a(I6
g3
(g5
S'\x80\xc1\xa4\xec\xab\x7f\x0c@'
tRp472
F18.913110971450806
tp473
a(I6
g3
(g5
S'\x80\xc1\xa4\xec\xab\x7f\x0c@'
tRp474
F5.6523981094360352
tp475
a(I6
g3
(g5
S'\x80\xc1\xa4\xec\xab\x7f\x0c@'
tRp476
F3.8903319835662842
tp477
a(I6
g3
(g5
S'\x80\xc1\xa4\xec\xab\x7f\x0c@'
tRp478
F3.6602580547332764
tp479
a(I6
g3
(g5
S'\xb8$1\xb2*\x9e2@'
tRp480
F5.96657395362854
tp481
a(I6
g3
(g5
S'\x80\xc1\xa4\xec\xab\x7f\x0c@'
tRp482
F18.533674001693726
tp483
a(I6
g3
(g5
S'\x80\xc1\xa4\xec\xab\x7f\x0c@'
tRp484
F6.1208999156951904
tp485
aa(lp486
(I6
g3
(g5
S'\x88\x14\xa0\x8d\x06\x9cc@'
tRp487
F0.35297203063964844
tp488
a(I6
g3
(g5
S'\xb0Z\xbe\x10\xbd+W@'
tRp489
F0.46336483955383301
tp490
a(I6
g3
(g5
S'\xaekc\x1f\x8e\xafX@'
tRp491
F0.25159096717834473
tp492
a(I6
g3
(g5
S'\xaekc\x1f\x8e\xafX@'
tRp493
F0.26569795608520508
tp494
a(I6
g3
(g5
S'\xaekc\x1f\x8e\xafX@'
tRp495
F0.2838890552520752
tp496
a(I6
g3
(g5
S'(u\xba\x1c\xe9J`@'
tRp497
F12.934295892715454
tp498
a(I6
g3
(g5
S'S6?\x90\xb6\x84\\@'
tRp499
F0.2878718376159668
tp500
a(I6
g3
(g5
S'\x0e\x1a\xe0i\x97xS@'
tRp501
F0.29164409637451172
tp502
a(I6
g3
(g5
S'\xa0y2\x05]\xc9>@'
tRp503
F0.50999999046325684
tp504
a(I6
g3
(g5
S'\xa0y2\x05]\xc9>@'
tRp505
F0.61041688919067383
tp506
a(I6
g3
(g5
S'\xd0\xbb\xd9\x96n\xad*@'
tRp507
F20.723949909210205
tp508
a(I6
g3
(g5
S'\x8cH\x9c\x86M\xffF@'
tRp509
F18.227785110473633
tp510
a(I6
g3
(g5
S'\x8cH\x9c\x86M\xffF@'
tRp511
F5.9477880001068115
tp512
a(I6
g3
(g5
S'\xe0=G\xc0^k\x12@'
tRp513
F4.9280300140380859
tp514
a(I6
g3
(g5
S'\xe0=G\xc0^k\x12@'
tRp515
F4.3333020210266113
tp516
a(I6
g3
(g5
S'\x8cH\x9c\x86M\xffF@'
tRp517
F17.079998970031738
tp518
a(I6
g3
(g5
S'\xc6\xcfIT=]K@'
tRp519
F4.1802959442138672
tp520
aa(lp521
(I6
g3
(g5
S'r_e\xf5\xa8\xf5c@'
tRp522
F0.35447597503662109
tp523
a(I6
g3
(g5
S'@r\x8c\rN\x15]@'
tRp524
F0.22876095771789551
tp525
a(I6
g3
(g5
S'|\xe7\x11"\xd1\xe6X@'
tRp526
F0.5612030029296875
tp527
a(I6
g3
(g5
S'r_e\xf5\xa8\xf5c@'
tRp528
F0.56569314002990723
tp529
a(I6
g3
(g5
S'r_e\xf5\xa8\xf5c@'
tRp530
F0.23986411094665527
tp531
a(I6
g3
(g5
S'\xf0\x1a\xa0\x9e\xe2U-@'
tRp532
F10.012650966644287
tp533
a(I6
g3
(g5
S'\xa8\xf5\xebd\xa8\xf5F@'
tRp534
F0.52728414535522461
tp535
a(I6
g3
(g5
S'\xa8\xf5\xebd\xa8\xf5F@'
tRp536
F0.6030418872833252
tp537
a(I6
g3
(g5
S'\xa8\xf5\xebd\xa8\xf5F@'
tRp538
F0.59308600425720215
tp539
a(I6
g3
(g5
S'\xa8\xf5\xebd\xa8\xf5F@'
tRp540
F0.58658695220947266
tp541
a(I6
g3
(g5
S'r_e\xf5\xa8\xf5c@'
tRp542
F11.987669944763184
tp543
a(I6
g3
(g5
S'r_e\xf5\xa8\xf5c@'
tRp544
F0.28399491310119629
tp545
a(I6
g3
(g5
S'r_e\xf5\xa8\xf5c@'
tRp546
F0.29152417182922363
tp547
a(I6
g3
(g5
S'r_e\xf5\xa8\xf5c@'
tRp548
F0.29998493194580078
tp549
a(I6
g3
(g5
S'r_e\xf5\xa8\xf5c@'
tRp550
F0.30195999145507812
tp551
a(I6
g3
(g5
S'\xa8\xf5\xebd\xa8\xf5F@'
tRp552
F14.746658086776733
tp553
a(I6
g3
(g5
S'\xa8\xf5\xebd\xa8\xf5F@'
tRp554
F0.6794130802154541
tp555
aa(lp556
(I6
g3
(g5
S'X\x15\x1b\xb0M7f@'
tRp557
F0.35338211059570312
tp558
a(I6
g3
(g5
S'@S\xbe\x98\xb5`W@'
tRp559
F0.22189593315124512
tp560
a(I6
g3
(g5
S'@S\xbe\x98\xb5`W@'
tRp561
F0.65190792083740234
tp562
a(I6
g3
(g5
S'\xe0}\x8eu\xder^@'
tRp563
F0.4931340217590332
tp564
a(I6
g3
(g5
S'\xe0}\x8eu\xder^@'
tRp565
F0.24268579483032227
tp566
a(I6
g3
(g5
S'\xb6I\xf3A\xd1#^@'
tRp567
F9.9821839332580566
tp568
a(I6
g3
(g5
S'\x1c\x9bM\xc1sI\\@'
tRp569
F0.30034685134887695
tp570
a(I6
g3
(g5
S'@\x0bO\xec\xfd\xab6@'
tRp571
F0.31105613708496094
tp572
a(I6
g3
(g5
S'@\x0bO\xec\xfd\xab6@'
tRp573
F0.48813414573669434
tp574
a(I6
g3
(g5
S'@\x0bO\xec\xfd\xab6@'
tRp575
F0.46686410903930664
tp576
a(I6
g3
(g5
S'@\x0bO\xec\xfd\xab6@'
tRp577
F12.013031005859375
tp578
a(I6
g3
(g5
S'@\x0bO\xec\xfd\xab6@'
tRp579
F0.51810908317565918
tp580
a(I6
g3
(g5
S'@\x0bO\xec\xfd\xab6@'
tRp581
F0.55463385581970215
tp582
a(I6
g3
(g5
S'@\x0bO\xec\xfd\xab6@'
tRp583
F0.4520111083984375
tp584
a(I6
g3
(g5
S'@\x0bO\xec\xfd\xab6@'
tRp585
F0.46740293502807617
tp586
a(I6
g3
(g5
S'@\x0bO\xec\xfd\xab6@'
tRp587
F14.21525502204895
tp588
a(I6
g3
(g5
S'@\x0bO\xec\xfd\xab6@'
tRp589
F0.58228397369384766
tp590
aa(lp591
(I6
g3
(g5
S'J^\xbe\x85\xda\xc8a@'
tRp592
F0.36168694496154785
tp593
a(I6
g3
(g5
S'D\xedL\x12F\x96e@'
tRp594
F0.43543291091918945
tp595
a(I6
g3
(g5
S'D\xedL\x12F\x96e@'
tRp596
F0.2266380786895752
tp597
a(I6
g3
(g5
S'D\xedL\x12F\x96e@'
tRp598
F0.23493003845214844
tp599
a(I6
g3
(g5
S'D\xedL\x12F\x96e@'
tRp600
F0.24115800857543945
tp601
a(I6
g3
(g5
S'\xae\xfb\xab\x06\x9cMN@'
tRp602
F9.4527180194854736
tp603
a(I6
g3
(g5
S'\xe86\x07g\x83\xc7R@'
tRp604
F0.37599396705627441
tp605
a(I6
g3
(g5
S'J^\xbe\x85\xda\xc8a@'
tRp606
F0.39817690849304199
tp607
a(I6
g3
(g5
S'\xa99{C9\x1c[@'
tRp608
F0.41858220100402832
tp609
a(I6
g3
(g5
S'\xa99{C9\x1c[@'
tRp610
F0.36950898170471191
tp611
a(I6
g3
(g5
S'\xee\xcf5\xba\x7f\x0cQ@'
tRp612
F12.004956960678101
tp613
a(I6
g3
(g5
S'\xbc\x12\x0cB"\xc3M@'
tRp614
F0.58961391448974609
tp615
a(I6
g3
(g5
S'\x80\x9c5\x85\xe1\xaf\x1d@'
tRp616
F11.786213159561157
tp617
a(I6
g3
(g5
S'\xf4\x07\xc6\xd1Z\xc9@@'
tRp618
F3.7809760570526123
tp619
a(I6
g3
(g5
S'\x80\x9c5\x85\xe1\xaf\x1d@'
tRp620
F7.1473701000213623
tp621
a(I6
g3
(g5
S'\x80\x9c5\x85\xe1\xaf\x1d@'
tRp622
F25.243348121643066
tp623
a(I6
g3
(g5
S'\x80\x9c5\x85\xe1\xaf\x1d@'
tRp624
F9.4140331745147705
tp625
aa(lp626
(I6
g3
(g5
S'H\n1Q\x9a8R@'
tRp627
F0.35754704475402832
tp628
a(I6
g3
(g5
S'-/\xe5\xfdWEh@'
tRp629
F0.2279820442199707
tp630
a(I6
g3
(g5
S'-/\xe5\xfdWEh@'
tRp631
F0.22575116157531738
tp632
a(I6
g3
(g5
S'-/\xe5\xfdWEh@'
tRp633
F0.23830008506774902
tp634
a(I6
g3
(g5
S'-/\xe5\xfdWEh@'
tRp635
F0.24193692207336426
tp636
a(I6
g3
(g5
S'b\xfb@\xf7\xd1\x95c@'
tRp637
F9.6665918827056885
tp638
a(I6
g3
(g5
S'~\xa4\xb6\x1eq\xf1a@'
tRp639
F0.30826807022094727
tp640
a(I6
g3
(g5
S'H1\xc5\xdd\xbc\xbbH@'
tRp641
F0.4638981819152832
tp642
a(I6
g3
(g5
S'H1\xc5\xdd\xbc\xbbH@'
tRp643
F0.42834305763244629
tp644
a(I6
g3
(g5
S'H1\xc5\xdd\xbc\xbbH@'
tRp645
F0.7114260196685791
tp646
a(I6
g3
(g5
S'\x08\xfe\xc8\xde\xa4\xed5@'
tRp647
F12.783266067504883
tp648
a(I6
g3
(g5
S'\x08\xfe\xc8\xde\xa4\xed5@'
tRp649
F0.81332993507385254
tp650
a(I6
g3
(g5
S'\x08\xfe\xc8\xde\xa4\xed5@'
tRp651
F0.62869501113891602
tp652
a(I6
g3
(g5
S'\x08\xfe\xc8\xde\xa4\xed5@'
tRp653
F0.6349029541015625
tp654
a(I6
g3
(g5
S'\x08\xfe\xc8\xde\xa4\xed5@'
tRp655
F1.4582009315490723
tp656
a(I6
g3
(g5
S'\x08\xfe\xc8\xde\xa4\xed5@'
tRp657
F15.434337854385376
tp658
a(I6
g3
(g5
S'\x08\xfe\xc8\xde\xa4\xed5@'
tRp659
F0.55426692962646484
tp660
aa.