(lp1
(lp2
(I1
cnumpy.core.multiarray
scalar
p3
(cnumpy
dtype
p4
(S'f8'
I0
I1
tRp5
(I3
S'<'
NNNI-1
I-1
I0
tbS'H\xb6\xf3\xfd\xd4\xa8O@'
tRp6
F0.015834808349609375
tp7
a(I1
g3
(g5
S'\x00\x00\x00\x00\x00\x00\x00\x00'
tRp8
F0.036856174468994141
tp9
aa(lp10
(I1
g3
(g5
S'\xb1rh\x91\xed\x08e@'
tRp11
F0.015287876129150391
tp12
a(I1
g3
(g5
S'\xb1rh\x91\xed\x08e@'
tRp13
F0.060034990310668945
tp14
a(I1
g3
(g5
S'\x94\x18\x04V\x0e\xcdV@'
tRp15
F0.020709991455078125
tp16
a(I1
g3
(g5
S'\x00\x14\x83\xc0\xca\xa1\xc5?'
tRp17
F0.034737110137939453
tp18
a(I1
g3
(g5
S'\x00\x14\x83\xc0\xca\xa1\xc5?'
tRp19
F0.018326044082641602
tp20
a(I1
g3
(g5
S'\x00\x14\x83\xc0\xca\xa1\xc5?'
tRp21
F2.4881529808044434
tp22
a(I1
g3
(g5
S'\x00\x14\x83\xc0\xca\xa1\xc5?'
tRp23
F0.069806098937988281
tp24
a(I1
g3
(g5
S'\x00\x14\x83\xc0\xca\xa1\xc5?'
tRp25
F0.069366931915283203
tp26
a(I1
g3
(g5
S'\x00\x14\x83\xc0\xca\xa1\xc5?'
tRp27
F0.055169105529785156
tp28
a(I1
g3
(g5
S'\x00\x14\x83\xc0\xca\xa1\xc5?'
tRp29
F0.058494091033935547
tp30
a(I1
g3
(g5
S'\x00\x14\x83\xc0\xca\xa1\xc5?'
tRp31
F3.2565429210662842
tp32
a(I1
g3
(g5
S'\x00\x14\x83\xc0\xca\xa1\xc5?'
tRp33
F0.050805091857910156
tp34
a(I1
g3
(g5
S'\x00\x14\x83\xc0\xca\xa1\xc5?'
tRp35
F0.058852195739746094
tp36
a(I1
g3
(g5
S'\x00\x14\x83\xc0\xca\xa1\xc5?'
tRp37
F0.050603151321411133
tp38
a(I1
g3
(g5
S'\x00\x14\x83\xc0\xca\xa1\xc5?'
tRp39
F0.065671920776367188
tp40
a(I1
g3
(g5
S'\x00\x14\x83\xc0\xca\xa1\xc5?'
tRp41
F3.6889247894287109
tp42
a(I1
g3
(g5
S'\x00\x14\x83\xc0\xca\xa1\xc5?'
tRp43
F0.020930051803588867
tp44
a(I1
g3
(g5
S'\x00\x14\x83\xc0\xca\xa1\xc5?'
tRp45
F0.021265029907226562
tp46
a(I1
g3
(g5
S'\x00\x14\x83\xc0\xca\xa1\xc5?'
tRp47
F0.021510124206542969
tp48
a(I1
g3
(g5
S'\x00\x14\x83\xc0\xca\xa1\xc5?'
tRp49
F0.021726131439208984
tp50
a(I1
g3
(g5
S'\x00\x14\x83\xc0\xca\xa1\xc5?'
tRp51
F3.8473541736602783
tp52
a(I1
g3
(g5
S'\x00\x14\x83\xc0\xca\xa1\xc5?'
tRp53
F0.022269010543823242
tp54
a(I1
g3
(g5
S'\x00\x14\x83\xc0\xca\xa1\xc5?'
tRp55
F0.02255702018737793
tp56
a(I1
g3
(g5
S'\x00\x14\x83\xc0\xca\xa1\xc5?'
tRp57
F0.022827863693237305
tp58
a(I1
g3
(g5
S'\x00\x14\x83\xc0\xca\xa1\xc5?'
tRp59
F0.023206949234008789
tp60
a(I1
g3
(g5
S'\x00\x14\x83\xc0\xca\xa1\xc5?'
tRp61
F3.9969978332519531
tp62
a(I1
g3
(g5
S'\x00\x14\x83\xc0\xca\xa1\xc5?'
tRp63
F0.089829206466674805
tp64
a(I1
g3
(g5
S'\x00\x14\x83\xc0\xca\xa1\xc5?'
tRp65
F0.10347604751586914
tp66
a(I1
g3
(g5
S'\x00\x00\x00\x00\x00\x00\x00\x00'
tRp67
F0.092669963836669922
tp68
aa(lp69
(I1
g3
(g5
S'\x86\xebQ\xb8\x1e\x95O@'
tRp70
F0.016221046447753906
tp71
a(I1
g3
(g5
S'\x86\xebQ\xb8\x1e\x95O@'
tRp72
F0.049098014831542969
tp73
a(I1
g3
(g5
S'\x86\xebQ\xb8\x1e\x95O@'
tRp74
F0.038012027740478516
tp75
a(I1
g3
(g5
S'\x00\x00\x00\x00\x00\x00\x00\x00'
tRp76
F0.041693210601806641
tp77
aa(lp78
(I1
g3
(g5
S'\xa1E\xb6\xf3\xfd,X@'
tRp79
F0.015913963317871094
tp80
a(I1
g3
(g5
S'\xa1E\xb6\xf3\xfd,X@'
tRp81
F0.035127878189086914
tp82
a(I1
g3
(g5
S'C\x8bl\xe7\xfb\x99P@'
tRp83
F0.03528904914855957
tp84
a(I1
g3
(g5
S'\x00\x00\x00\x00\x00\x00\x00\x00'
tRp85
F0.047113895416259766
tp86
aa(lp87
(I1
g3
(g5
S'\xc5\x8f1w-\xb1;@'
tRp88
F0.01576685905456543
tp89
a(I1
g3
(g5
S'\x18\x04V\x0e-\xd24@'
tRp90
F0.045637130737304688
tp91
a(I1
g3
(g5
S'\x18\x04V\x0e-\xd24@'
tRp92
F0.019865036010742188
tp93
a(I1
g3
(g5
S'\x00\x00\x00\x00\x00\x00\x00\x00'
tRp94
F0.042673110961914062
tp95
aa(lp96
(I1
g3
(g5
S'\x00\x00\x00\x00\x00<W@'
tRp97
F0.015192031860351562
tp98
a(I1
g3
(g5
S'\x00\x00\x00\x00\x00<W@'
tRp99
F0.04681086540222168
tp100
a(I1
g3
(g5
S'\x00\x00\x00\x00\x00<W@'
tRp101
F0.044224023818969727
tp102
a(I1
g3
(g5
S'\xc0\xf3\xfd\xd4x\xe9\xf7?'
tRp103
F0.033596992492675781
tp104
a(I1
g3
(g5
S'\xc0\xf3\xfd\xd4x\xe9\xf7?'
tRp105
F0.027099132537841797
tp106
a(I1
g3
(g5
S'\xc0\xf3\xfd\xd4x\xe9\xf7?'
tRp107
F2.8805921077728271
tp108
a(I1
g3
(g5
S'F\xb6\xf3\xfd\xd4pB@'
tRp109
F0.057168006896972656
tp110
a(I1
g3
(g5
S'\xc0\xf3\xfd\xd4x\xe9\xf7?'
tRp111
F0.058109045028686523
tp112
a(I1
g3
(g5
S'\xc0\xf3\xfd\xd4x\xe9\xf7?'
tRp113
F0.071736812591552734
tp114
a(I1
g3
(g5
S'\xc0\xf3\xfd\xd4x\xe9\xf7?'
tRp115
F0.066107034683227539
tp116
a(I1
g3
(g5
S'\xc0\xf3\xfd\xd4x\xe9\xf7?'
tRp117
F4.4005980491638184
tp118
a(I1
g3
(g5
S'\xc0\xf3\xfd\xd4x\xe9\xf7?'
tRp119
F0.083909988403320312
tp120
a(I1
g3
(g5
S'\xc0\xf3\xfd\xd4x\xe9\xf7?'
tRp121
F0.045660018920898438
tp122
a(I1
g3
(g5
S'\xc0\xf3\xfd\xd4x\xe9\xf7?'
tRp123
F0.042410135269165039
tp124
a(I1
g3
(g5
S'\xc0\xf3\xfd\xd4x\xe9\xf7?'
tRp125
F0.046175003051757812
tp126
a(I1
g3
(g5
S'\xc0\xf3\xfd\xd4x\xe9\xf7?'
tRp127
F4.8495969772338867
tp128
a(I1
g3
(g5
S'\xc0\xf3\xfd\xd4x\xe9\xf7?'
tRp129
F0.043527126312255859
tp130
a(I1
g3
(g5
S'\xc0\xf3\xfd\xd4x\xe9\xf7?'
tRp131
F0.048228025436401367
tp132
a(I1
g3
(g5
S'\xc0\xf3\xfd\xd4x\xe9\xf7?'
tRp133
F0.044163942337036133
tp134
a(I1
g3
(g5
S'\xc0\xf3\xfd\xd4x\xe9\xf7?'
tRp135
F0.057455062866210938
tp136
a(I1
g3
(g5
S'\xc0\xf3\xfd\xd4x\xe9\xf7?'
tRp137
F5.2985250949859619
tp138
a(I1
g3
(g5
S'\xc0\xf3\xfd\xd4x\xe9\xf7?'
tRp139
F0.057526111602783203
tp140
a(I1
g3
(g5
S'\xc0\xf3\xfd\xd4x\xe9\xf7?'
tRp141
F0.057941913604736328
tp142
a(I1
g3
(g5
S'\xc0\xf3\xfd\xd4x\xe9\xf7?'
tRp143
F0.047091007232666016
tp144
a(I1
g3
(g5
S'\xc0\xf3\xfd\xd4x\xe9\xf7?'
tRp145
F0.059767007827758789
tp146
a(I1
g3
(g5
S'\xc0\xf3\xfd\xd4x\xe9\xf7?'
tRp147
F5.9456050395965576
tp148
a(I1
g3
(g5
S'\xc0\xf3\xfd\xd4x\xe9\xf7?'
tRp149
F0.063252925872802734
tp150
a(I1
g3
(g5
S'\xc0\xf3\xfd\xd4x\xe9\xf7?'
tRp151
F0.053915977478027344
tp152
a(I1
g3
(g5
S'\xc0\xf3\xfd\xd4x\xe9\xf7?'
tRp153
F0.063392162322998047
tp154
a(I1
g3
(g5
S'\xc0\xf3\xfd\xd4x\xe9\xf7?'
tRp155
F0.0625
tp156
a(I1
g3
(g5
S'\xc0\xf3\xfd\xd4x\xe9\xf7?'
tRp157
F5.990501880645752
tp158
a(I1
g3
(g5
S'\xc0\xf3\xfd\xd4x\xe9\xf7?'
tRp159
F0.061374187469482422
tp160
a(I1
g3
(g5
S'\xc0\xf3\xfd\xd4x\xe9\xf7?'
tRp161
F0.053317785263061523
tp162
a(I1
g3
(g5
S'\xc0\xf3\xfd\xd4x\xe9\xf7?'
tRp163
F0.055171966552734375
tp164
a(I1
g3
(g5
S'\xc0\xf3\xfd\xd4x\xe9\xf7?'
tRp165
F0.055040121078491211
tp166
a(I1
g3
(g5
S'\xc0\xf3\xfd\xd4x\xe9\xf7?'
tRp167
F6.437067985534668
tp168
a(I1
g3
(g5
S'\xc0\xf3\xfd\xd4x\xe9\xf7?'
tRp169
F0.059846878051757812
tp170
a(I1
g3
(g5
S'\xc0\xf3\xfd\xd4x\xe9\xf7?'
tRp171
F0.060769081115722656
tp172
a(I1
g3
(g5
S'\xc0\xf3\xfd\xd4x\xe9\xf7?'
tRp173
F0.062214136123657227
tp174
a(I1
g3
(g5
S'\xc0\xf3\xfd\xd4x\xe9\xf7?'
tRp175
F0.056926965713500977
tp176
a(I1
g3
(g5
S'\xc0\xf3\xfd\xd4x\xe9\xf7?'
tRp177
F6.6347520351409912
tp178
a(I1
g3
(g5
S'\xc0\xf3\xfd\xd4x\xe9\xf7?'
tRp179
F0.077697992324829102
tp180
a(I1
g3
(g5
S'\xc0\xf3\xfd\xd4x\xe9\xf7?'
tRp181
F0.063055038452148438
tp182
a(I1
g3
(g5
S'\xc0\xf3\xfd\xd4x\xe9\xf7?'
tRp183
F0.056231021881103516
tp184
a(I1
g3
(g5
S'\xc0\xf3\xfd\xd4x\xe9\xf7?'
tRp185
F0.052767038345336914
tp186
a(I1
g3
(g5
S'\xc0\xf3\xfd\xd4x\xe9\xf7?'
tRp187
F7.0740630626678467
tp188
a(I1
g3
(g5
S'\xc0\xf3\xfd\xd4x\xe9\xf7?'
tRp189
F0.052923917770385742
tp190
a(I1
g3
(g5
S'\xc0\xf3\xfd\xd4x\xe9\xf7?'
tRp191
F0.05963587760925293
tp192
a(I1
g3
(g5
S'\xc0\xf3\xfd\xd4x\xe9\xf7?'
tRp193
F0.054671049118041992
tp194
a(I1
g3
(g5
S'\xc0\xf3\xfd\xd4x\xe9\xf7?'
tRp195
F0.062031984329223633
tp196
a(I1
g3
(g5
S'\xc0\xf3\xfd\xd4x\xe9\xf7?'
tRp197
F6.9848132133483887
tp198
a(I1
g3
(g5
S'\xc0\xf3\xfd\xd4x\xe9\xf7?'
tRp199
F0.071413993835449219
tp200
a(I1
g3
(g5
S'\xc0\xf3\xfd\xd4x\xe9\xf7?'
tRp201
F0.062690973281860352
tp202
a(I1
g3
(g5
S'\xc0\xf3\xfd\xd4x\xe9\xf7?'
tRp203
F0.062463045120239258
tp204
a(I1
g3
(g5
S'\xc0\xf3\xfd\xd4x\xe9\xf7?'
tRp205
F0.06128382682800293
tp206
a(I1
g3
(g5
S'\xc0\xf3\xfd\xd4x\xe9\xf7?'
tRp207
F7.1289629936218262
tp208
a(I1
g3
(g5
S'\x00\x00\x00\x00\x00\x00\x00\x00'
tRp209
F0.43302202224731445
tp210
aa(lp211
(I1
g3
(g5
S'\x16\xd9\xce\xf7S_d@'
tRp212
F0.016106843948364258
tp213
a(I1
g3
(g5
S'\x16\xd9\xce\xf7S_d@'
tRp214
F0.037698030471801758
tp215
a(I1
g3
(g5
S'\x08\xd7\xa3p=*V@'
tRp216
F0.018233060836791992
tp217
a(I1
g3
(g5
S'8\xdfO\x8d\x97\xf6R@'
tRp218
F0.047605037689208984
tp219
a(I1
g3
(g5
S'\x00\x06\x81\x95C\x8b\xf8?'
tRp220
F0.018306970596313477
tp221
a(I1
g3
(g5
S'\x00\x06\x81\x95C\x8b\xf8?'
tRp222
F2.539715051651001
tp223
a(I1
g3
(g5
S'\x00\x06\x81\x95C\x8b\xf8?'
tRp224
F0.056006908416748047
tp225
a(I1
g3
(g5
S'\x00\x06\x81\x95C\x8b\xf8?'
tRp226
F0.075617074966430664
tp227
a(I1
g3
(g5
S'\x00\x06\x81\x95C\x8b\xf8?'
tRp228
F0.06498408317565918
tp229
a(I1
g3
(g5
S'\x00\x06\x81\x95C\x8b\xf8?'
tRp230
F0.062117815017700195
tp231
a(I1
g3
(g5
S'\x00\x06\x81\x95C\x8b\xf8?'
tRp232
F3.8489120006561279
tp233
a(I1
g3
(g5
S'\x00\x06\x81\x95C\x8b\xf8?'
tRp234
F0.044450998306274414
tp235
a(I1
g3
(g5
S'\x00\x06\x81\x95C\x8b\xf8?'
tRp236
F0.039732933044433594
tp237
a(I1
g3
(g5
S'\x00\x06\x81\x95C\x8b\xf8?'
tRp238
F0.046913862228393555
tp239
a(I1
g3
(g5
S'\x00\x06\x81\x95C\x8b\xf8?'
tRp240
F0.049183130264282227
tp241
a(I1
g3
(g5
S'\x00\x06\x81\x95C\x8b\xf8?'
tRp242
F4.0171539783477783
tp243
a(I1
g3
(g5
S'\x00\x06\x81\x95C\x8b\xf8?'
tRp244
F0.045831918716430664
tp245
a(I1
g3
(g5
S'\x00\x06\x81\x95C\x8b\xf8?'
tRp246
F0.045557975769042969
tp247
a(I1
g3
(g5
S'\x00\x06\x81\x95C\x8b\xf8?'
tRp248
F0.04584503173828125
tp249
a(I1
g3
(g5
S'\x00\x06\x81\x95C\x8b\xf8?'
tRp250
F0.046123981475830078
tp251
a(I1
g3
(g5
S'\x00\x06\x81\x95C\x8b\xf8?'
tRp252
F4.1463510990142822
tp253
a(I1
g3
(g5
S'\x00\x06\x81\x95C\x8b\xf8?'
tRp254
F0.051991939544677734
tp255
a(I1
g3
(g5
S'\x00\x06\x81\x95C\x8b\xf8?'
tRp256
F0.057096958160400391
tp257
a(I1
g3
(g5
S'\x00\x06\x81\x95C\x8b\xf8?'
tRp258
F0.060220956802368164
tp259
a(I1
g3
(g5
S'\x00\x06\x81\x95C\x8b\xf8?'
tRp260
F0.050409078598022461
tp261
a(I1
g3
(g5
S'<\n\xd7\xa3p\x1dQ@'
tRp262
F4.1511499881744385
tp263
a(I1
g3
(g5
S'<\n\xd7\xa3p\x1dQ@'
tRp264
F0.023580074310302734
tp265
a(I1
g3
(g5
S'<\n\xd7\xa3p\x1dQ@'
tRp266
F0.023782014846801758
tp267
a(I1
g3
(g5
S'<\n\xd7\xa3p\x1dQ@'
tRp268
F0.024084091186523438
tp269
a(I1
g3
(g5
S'<\n\xd7\xa3p\x1dQ@'
tRp270
F0.024572849273681641
tp271
a(I1
g3
(g5
S'\x00\x06\x81\x95C\x8b\xf8?'
tRp272
F4.2788290977478027
tp273
a(I1
g3
(g5
S'\x00\x06\x81\x95C\x8b\xf8?'
tRp274
F0.086503982543945312
tp275
a(I1
g3
(g5
S'<\n\xd7\xa3p\x1dQ@'
tRp276
F0.096700906753540039
tp277
a(I1
g3
(g5
S'\x00\x06\x81\x95C\x8b\xf8?'
tRp278
F0.10052084922790527
tp279
a(I1
g3
(g5
S'\x00\x00\x00\x00\x00\x00\x00\x00'
tRp280
F0.087833166122436523
tp281
aa(lp282
(I1
g3
(g5
S'\xbaI\x0c\x02+\xf7@@'
tRp283
F0.015180110931396484
tp284
a(I1
g3
(g5
S'\x00\x00\x00\x00\x00\x00\x00\x00'
tRp285
F0.052655220031738281
tp286
aa(lp287
(I1
g3
(g5
S'4\xef8EG\xe6U@'
tRp288
F0.015127182006835938
tp289
a(I1
g3
(g5
S'4\xef8EG\xe6U@'
tRp290
F0.035783052444458008
tp291
a(I1
g3
(g5
S'\xd2Mb\x10X\xe9E@'
tRp292
F0.034377813339233398
tp293
a(I1
g3
(g5
S'\xd2Mb\x10X\xe9E@'
tRp294
F0.044953823089599609
tp295
a(I1
g3
(g5
S'\xd2Mb\x10X\xe9E@'
tRp296
F0.061993837356567383
tp297
a(I1
g3
(g5
S',\xd4\x9a\xe6\x1d\xafC@'
tRp298
F2.4794759750366211
tp299
a(I1
g3
(g5
S',\xd4\x9a\xe6\x1d\xafC@'
tRp300
F0.021360158920288086
tp301
a(I1
g3
(g5
S',\xd4\x9a\xe6\x1d\xafC@'
tRp302
F0.056035041809082031
tp303
a(I1
g3
(g5
S',\xd4\x9a\xe6\x1d\xafC@'
tRp304
F0.035801172256469727
tp305
a(I1
g3
(g5
S',\xd4\x9a\xe6\x1d\xafC@'
tRp306
F0.018732070922851562
tp307
a(I1
g3
(g5
S'\xd2Mb\x10X\xe9E@'
tRp308
F2.7414090633392334
tp309
a(I1
g3
(g5
S'\xd2Mb\x10X\xe9E@'
tRp310
F0.023369073867797852
tp311
a(I1
g3
(g5
S'\xd2Mb\x10X\xe9E@'
tRp312
F0.023637056350708008
tp313
a(I1
g3
(g5
S'\xd2Mb\x10X\xe9E@'
tRp314
F0.023931980133056641
tp315
a(I1
g3
(g5
S'\xd2Mb\x10X\xe9E@'
tRp316
F0.025300979614257812
tp317
a(I1
g3
(g5
S'\x88A`\xe5\xd0\x825@'
tRp318
F3.4986460208892822
tp319
a(I1
g3
(g5
S'\x88A`\xe5\xd0\x825@'
tRp320
F0.097993135452270508
tp321
a(I1
g3
(g5
S'\x88A`\xe5\xd0\x825@'
tRp322
F0.16096401214599609
tp323
a(I1
g3
(g5
S'\x88A`\xe5\xd0\x825@'
tRp324
F0.31484007835388184
tp325
a(I1
g3
(g5
S'\x88A`\xe5\xd0\x825@'
tRp326
F0.27236604690551758
tp327
a(I1
g3
(g5
S'\x00\x00\x00\x00\x00\x00\x00\x00'
tRp328
F4.1310389041900635
tp329
aa(lp330
(I1
g3
(g5
S'\xbaI\x0c\x02+WL@'
tRp331
F0.015203952789306641
tp332
a(I1
g3
(g5
S'\xbaI\x0c\x02+WL@'
tRp333
F0.042953014373779297
tp334
a(I1
g3
(g5
S'\x00\x00\x00\x00\x00\x00\x00\x00'
tRp335
F0.038240909576416016
tp336
aa(lp337
(I1
g3
(g5
S'\xa3p=\n\xd7KT@'
tRp338
F0.015404939651489258
tp339
a(I1
g3
(g5
S'\xa3p=\n\xd7KT@'
tRp340
F0.059515953063964844
tp341
a(I1
g3
(g5
S'\xf4(\\\x8f\xc2\xc5L@'
tRp342
F0.032206058502197266
tp343
a(I1
g3
(g5
S'\xf4(\\\x8f\xc2\xc5L@'
tRp344
F0.035300016403198242
tp345
a(I1
g3
(g5
S'\xf4(\\\x8f\xc2\xc5L@'
tRp346
F0.0169830322265625
tp347
a(I1
g3
(g5
S'\xf4(\\\x8f\xc2\xc5L@'
tRp348
F2.4860799312591553
tp349
a(I1
g3
(g5
S'\xf4(\\\x8f\xc2\xc5L@'
tRp350
F0.043630123138427734
tp351
a(I1
g3
(g5
S'\xf4(\\\x8f\xc2\xc5L@'
tRp352
F0.049023151397705078
tp353
a(I1
g3
(g5
S'\x00\x00\x00\x00\x00\x00\x00\x00'
tRp354
F0.059592008590698242
tp355
aa(lp356
(I1
g3
(g5
S'\x92\x18\x04V\x0e\x1dY@'
tRp357
F0.015314817428588867
tp358
a(I1
g3
(g5
S'\xa3p=\n\xd7\xa3_@'
tRp359
F0.069402933120727539
tp360
a(I1
g3
(g5
S'\x08\xac\x1cZd{A@'
tRp361
F0.018908023834228516
tp362
a(I1
g3
(g5
S'\x08\xac\x1cZd{A@'
tRp363
F0.038677215576171875
tp364
a(I1
g3
(g5
S'\xa0\xef\xa7\xc6K\xb7!@'
tRp365
F0.045552968978881836
tp366
a(I1
g3
(g5
S'\xa0\xef\xa7\xc6K\xb7!@'
tRp367
F2.732187032699585
tp368
a(I1
g3
(g5
S'\xa0\xef\xa7\xc6K\xb7!@'
tRp369
F0.047872066497802734
tp370
a(I1
g3
(g5
S'\xa0\xef\xa7\xc6K\xb7!@'
tRp371
F0.063933134078979492
tp372
a(I1
g3
(g5
S'`\xe5\xd0"\xdb\xc9j@'
tRp373
F0.055525064468383789
tp374
a(I1
g3
(g5
S'`\xe5\xd0"\xdb\xc9j@'
tRp375
F0.038663148880004883
tp376
a(I1
g3
(g5
S'\x92\x18\x04V\x0e\x1dY@'
tRp377
F3.3119978904724121
tp378
a(I1
g3
(g5
S'\x00\x00\x00\x00\x00\x00\x00\x00'
tRp379
F0.03825688362121582
tp380
aa(lp381
(I1
g3
(g5
S'i\x91\xed|?EO@'
tRp382
F0.015091896057128906
tp383
a(I1
g3
(g5
S'\xee|?5^\xbaA@'
tRp384
F0.049826860427856445
tp385
a(I1
g3
(g5
S'\xee|?5^\xbaA@'
tRp386
F0.04189610481262207
tp387
a(I1
g3
(g5
S'\xee|?5^\xbaA@'
tRp388
F0.016700029373168945
tp389
a(I1
g3
(g5
S'\xee|?5^\xbaA@'
tRp390
F0.038906097412109375
tp391
a(I1
g3
(g5
S'\xee|?5^\xbaA@'
tRp392
F2.6803810596466064
tp393
a(I1
g3
(g5
S'\xee|?5^\xbaA@'
tRp394
F0.074994087219238281
tp395
a(I1
g3
(g5
S'\xee|?5^\xbaA@'
tRp396
F0.10282683372497559
tp397
a(I1
g3
(g5
S'\xee|?5^\xbaA@'
tRp398
F0.067929983139038086
tp399
a(I1
g3
(g5
S'\xc4\xca\xa1E\xb6\xb3:@'
tRp400
F0.10039401054382324
tp401
a(I1
g3
(g5
S'\xc4\xca\xa1E\xb6\xb3:@'
tRp402
F4.2013089656829834
tp403
a(I1
g3
(g5
S'\xc4\xca\xa1E\xb6\xb3:@'
tRp404
F0.096117019653320312
tp405
a(I1
g3
(g5
S'\xc4\xca\xa1E\xb6\xb3:@'
tRp406
F0.065248012542724609
tp407
a(I1
g3
(g5
S'\x00\x00\x00\x00\x00\x00\x00\x00'
tRp408
F0.072276115417480469
tp409
aa(lp410
(I1
g3
(g5
S'P0*\xa9\x13\x90\x10@'
tRp411
F0.015285968780517578
tp412
a(I1
g3
(g5
S'P0*\xa9\x13\x90\x10@'
tRp413
F0.038898944854736328
tp414
a(I1
g3
(g5
S'P0*\xa9\x13\x90\x10@'
tRp415
F0.019135951995849609
tp416
a(I1
g3
(g5
S'P0*\xa9\x13\x90\x10@'
tRp417
F0.055353879928588867
tp418
a(I1
g3
(g5
S'P0*\xa9\x13\x90\x10@'
tRp419
F0.047083139419555664
tp420
a(I1
g3
(g5
S'\xca\xc3B\xadiJY@'
tRp421
F2.9250679016113281
tp422
a(I1
g3
(g5
S'\xca\xc3B\xadiJY@'
tRp423
F0.017432928085327148
tp424
a(I1
g3
(g5
S'\xca\xc3B\xadiJY@'
tRp425
F0.017882108688354492
tp426
a(I1
g3
(g5
S'\xca\xc3B\xadiJY@'
tRp427
F0.018154144287109375
tp428
a(I1
g3
(g5
S'\xca\xc3B\xadiJY@'
tRp429
F0.018572092056274414
tp430
a(I1
g3
(g5
S'\xca\xc3B\xadiJY@'
tRp431
F3.0468349456787109
tp432
a(I1
g3
(g5
S'\xca\xc3B\xadiJY@'
tRp433
F0.019221067428588867
tp434
a(I1
g3
(g5
S'\xca\xc3B\xadiJY@'
tRp435
F0.019614934921264648
tp436
a(I1
g3
(g5
S'\xca\xc3B\xadiJY@'
tRp437
F0.02159881591796875
tp438
a(I1
g3
(g5
S'\xca\xc3B\xadiJY@'
tRp439
F0.020391941070556641
tp440
a(I1
g3
(g5
S'\xca\xc3B\xadiJY@'
tRp441
F3.1413669586181641
tp442
a(I1
g3
(g5
S'\xca\xc3B\xadiJY@'
tRp443
F0.020973920822143555
tp444
a(I1
g3
(g5
S'\xca\xc3B\xadiJY@'
tRp445
F0.021302938461303711
tp446
a(I1
g3
(g5
S'\xca\xc3B\xadiJY@'
tRp447
F0.021793127059936523
tp448
a(I1
g3
(g5
S'\xca\xc3B\xadiJY@'
tRp449
F0.022163152694702148
tp450
a(I1
g3
(g5
S'\xca\xc3B\xadiJY@'
tRp451
F3.386038064956665
tp452
a(I1
g3
(g5
S'\xca\xc3B\xadiJY@'
tRp453
F0.022825002670288086
tp454
a(I1
g3
(g5
S'\xca\xc3B\xadiJY@'
tRp455
F0.023334026336669922
tp456
a(I1
g3
(g5
S'\xca\xc3B\xadiJY@'
tRp457
F0.023605108261108398
tp458
a(I1
g3
(g5
S'\xca\xc3B\xadiJY@'
tRp459
F0.023930072784423828
tp460
a(I1
g3
(g5
S'\xca\xc3B\xadiJY@'
tRp461
F3.6263270378112793
tp462
a(I1
g3
(g5
S'\xca\xc3B\xadiJY@'
tRp463
F0.024534940719604492
tp464
a(I1
g3
(g5
S'\xca\xc3B\xadiJY@'
tRp465
F0.024920225143432617
tp466
a(I1
g3
(g5
S'\xca\xc3B\xadiJY@'
tRp467
F0.025155067443847656
tp468
a(I1
g3
(g5
S'\xca\xc3B\xadiJY@'
tRp469
F0.025643110275268555
tp470
a(I1
g3
(g5
S'\xca\xc3B\xadiJY@'
tRp471
F3.8522391319274902
tp472
a(I1
g3
(g5
S'\xca\xc3B\xadiJY@'
tRp473
F0.026196002960205078
tp474
a(I1
g3
(g5
S'\xca\xc3B\xadiJY@'
tRp475
F0.026559829711914062
tp476
a(I1
g3
(g5
S'\xca\xc3B\xadiJY@'
tRp477
F0.026946067810058594
tp478
a(I1
g3
(g5
S'\xca\xc3B\xadiJY@'
tRp479
F0.027146100997924805
tp480
a(I1
g3
(g5
S'\xca\xc3B\xadiJY@'
tRp481
F4.0617990493774414
tp482
a(I1
g3
(g5
S'\xca\xc3B\xadiJY@'
tRp483
F0.028185129165649414
tp484
a(I1
g3
(g5
S'\xca\xc3B\xadiJY@'
tRp485
F0.028342008590698242
tp486
a(I1
g3
(g5
S'\xca\xc3B\xadiJY@'
tRp487
F0.028855085372924805
tp488
a(I1
g3
(g5
S'\xca\xc3B\xadiJY@'
tRp489
F0.02914118766784668
tp490
a(I1
g3
(g5
S'\xca\xc3B\xadiJY@'
tRp491
F4.2066650390625
tp492
a(I1
g3
(g5
S'\xca\xc3B\xadiJY@'
tRp493
F0.029256105422973633
tp494
a(I1
g3
(g5
S'\xca\xc3B\xadiJY@'
tRp495
F0.031470060348510742
tp496
a(I1
g3
(g5
S'\xca\xc3B\xadiJY@'
tRp497
F0.030149221420288086
tp498
a(I1
g3
(g5
S'\xca\xc3B\xadiJY@'
tRp499
F0.030306100845336914
tp500
a(I1
g3
(g5
S'\xca\xc3B\xadiJY@'
tRp501
F4.3970820903778076
tp502
a(I1
g3
(g5
S'\xca\xc3B\xadiJY@'
tRp503
F0.031002044677734375
tp504
a(I1
g3
(g5
S'\xca\xc3B\xadiJY@'
tRp505
F0.031463146209716797
tp506
a(I1
g3
(g5
S'\xca\xc3B\xadiJY@'
tRp507
F0.031694889068603516
tp508
a(I1
g3
(g5
S'\xca\xc3B\xadiJY@'
tRp509
F0.031891107559204102
tp510
a(I1
g3
(g5
S'\xca\xc3B\xadiJY@'
tRp511
F4.6284928321838379
tp512
a(I1
g3
(g5
S'\xca\xc3B\xadiJY@'
tRp513
F0.032624006271362305
tp514
a(I1
g3
(g5
S'\xca\xc3B\xadiJY@'
tRp515
F0.032929897308349609
tp516
a(I1
g3
(g5
S'\xca\xc3B\xadiJY@'
tRp517
F0.033169031143188477
tp518
a(I1
g3
(g5
S'\xca\xc3B\xadiJY@'
tRp519
F0.033624887466430664
tp520
a(I1
g3
(g5
S'\xca\xc3B\xadiJY@'
tRp521
F4.8404841423034668
tp522
a(I1
g3
(g5
S'\xca\xc3B\xadiJY@'
tRp523
F0.034178018569946289
tp524
a(I1
g3
(g5
S'\xca\xc3B\xadiJY@'
tRp525
F0.034765005111694336
tp526
a(I1
g3
(g5
S'\xca\xc3B\xadiJY@'
tRp527
F0.036671161651611328
tp528
a(I1
g3
(g5
S'\xca\xc3B\xadiJY@'
tRp529
F0.035406112670898438
tp530
a(I1
g3
(g5
S'\xca\xc3B\xadiJY@'
tRp531
F5.0464811325073242
tp532
a(I1
g3
(g5
S'\xca\xc3B\xadiJY@'
tRp533
F0.035873889923095703
tp534
a(I1
g3
(g5
S'\xca\xc3B\xadiJY@'
tRp535
F0.036271095275878906
tp536
a(I1
g3
(g5
S'\xca\xc3B\xadiJY@'
tRp537
F0.038253068923950195
tp538
a(I1
g3
(g5
S'\xca\xc3B\xadiJY@'
tRp539
F0.037019968032836914
tp540
a(I1
g3
(g5
S'\xca\xc3B\xadiJY@'
tRp541
F5.257728099822998
tp542
a(I1
g3
(g5
S'\xca\xc3B\xadiJY@'
tRp543
F0.037835836410522461
tp544
a(I1
g3
(g5
S'\xca\xc3B\xadiJY@'
tRp545
F0.038061141967773438
tp546
a(I1
g3
(g5
S'\xca\xc3B\xadiJY@'
tRp547
F0.038326025009155273
tp548
a(I1
g3
(g5
S'\xca\xc3B\xadiJY@'
tRp549
F0.038395881652832031
tp550
a(I1
g3
(g5
S'\xca\xc3B\xadiJY@'
tRp551
F5.4585831165313721
tp552
a(I1
g3
(g5
S'\xca\xc3B\xadiJY@'
tRp553
F0.041197776794433594
tp554
a(I1
g3
(g5
S'\xca\xc3B\xadiJY@'
tRp555
F0.039695024490356445
tp556
a(I1
g3
(g5
S'\xca\xc3B\xadiJY@'
tRp557
F0.042001962661743164
tp558
a(I1
g3
(g5
S'\xca\xc3B\xadiJY@'
tRp559
F0.04053497314453125
tp560
a(I1
g3
(g5
S'\xca\xc3B\xadiJY@'
tRp561
F5.6670680046081543
tp562
a(I1
g3
(g5
S'\xca\xc3B\xadiJY@'
tRp563
F0.040603160858154297
tp564
a(I1
g3
(g5
S'\xca\xc3B\xadiJY@'
tRp565
F0.040796041488647461
tp566
a(I1
g3
(g5
S'\xca\xc3B\xadiJY@'
tRp567
F0.041031122207641602
tp568
a(I1
g3
(g5
S'\xca\xc3B\xadiJY@'
tRp569
F0.041535139083862305
tp570
a(I1
g3
(g5
S'\xca\xc3B\xadiJY@'
tRp571
F5.9504871368408203
tp572
a(I1
g3
(g5
S'\xca\xc3B\xadiJY@'
tRp573
F0.042587041854858398
tp574
a(I1
g3
(g5
S'\xca\xc3B\xadiJY@'
tRp575
F0.042521953582763672
tp576
a(I1
g3
(g5
S'\xca\xc3B\xadiJY@'
tRp577
F0.042908906936645508
tp578
a(I1
g3
(g5
S'\xca\xc3B\xadiJY@'
tRp579
F0.043577909469604492
tp580
a(I1
g3
(g5
S'\xca\xc3B\xadiJY@'
tRp581
F6.0525689125061035
tp582
a(I1
g3
(g5
S'\xca\xc3B\xadiJY@'
tRp583
F0.045851945877075195
tp584
a(I1
g3
(g5
S'\xca\xc3B\xadiJY@'
tRp585
F0.044423103332519531
tp586
a(I1
g3
(g5
S'\xca\xc3B\xadiJY@'
tRp587
F0.044587135314941406
tp588
a(I1
g3
(g5
S'\xca\xc3B\xadiJY@'
tRp589
F0.044929981231689453
tp590
a(I1
g3
(g5
S'\xca\xc3B\xadiJY@'
tRp591
F6.2725338935852051
tp592
a(I1
g3
(g5
S'\xca\xc3B\xadiJY@'
tRp593
F0.045454025268554688
tp594
a(I1
g3
(g5
S'\xca\xc3B\xadiJY@'
tRp595
F0.045819997787475586
tp596
a(I1
g3
(g5
S'\xca\xc3B\xadiJY@'
tRp597
F0.046234846115112305
tp598
a(I1
g3
(g5
S'\xca\xc3B\xadiJY@'
tRp599
F0.046595096588134766
tp600
a(I1
g3
(g5
S'\xca\xc3B\xadiJY@'
tRp601
F6.5685060024261475
tp602
a(I1
g3
(g5
S'\xca\xc3B\xadiJY@'
tRp603
F0.049799919128417969
tp604
a(I1
g3
(g5
S'\xca\xc3B\xadiJY@'
tRp605
F0.047570943832397461
tp606
a(I1
g3
(g5
S'\xca\xc3B\xadiJY@'
tRp607
F0.047863006591796875
tp608
a(I1
g3
(g5
S'\xca\xc3B\xadiJY@'
tRp609
F0.048047065734863281
tp610
aa(lp611
(I1
g3
(g5
S'\xbaI\x0c\x02+\xa3`@'
tRp612
F0.015023946762084961
tp613
a(I1
g3
(g5
S'\xe8\xfb\xa9\xf1\xd2\x8dN@'
tRp614
F0.048125028610229492
tp615
a(I1
g3
(g5
S'\x8c\x97n\x12\x83\x10H@'
tRp616
F0.018391847610473633
tp617
a(I1
g3
(g5
S'\x8c\x97n\x12\x83\x10H@'
tRp618
F0.049877166748046875
tp619
a(I1
g3
(g5
S'\x8c\x97n\x12\x83\x10H@'
tRp620
F0.016844987869262695
tp621
a(I1
g3
(g5
S'\x8c\x97n\x12\x83\x10H@'
tRp622
F2.5292818546295166
tp623
a(I1
g3
(g5
S'\x8c\x97n\x12\x83\x10H@'
tRp624
F0.01795506477355957
tp625
a(I1
g3
(g5
S'\x8c\x97n\x12\x83\x10H@'
tRp626
F0.098659038543701172
tp627
a(I1
g3
(g5
S'\x8c\x97n\x12\x83\x10H@'
tRp628
F0.11201000213623047
tp629
a(I1
g3
(g5
S'\x8c\x97n\x12\x83\x10H@'
tRp630
F0.17506599426269531
tp631
a(I1
g3
(g5
S'\x00\x00\x00\x00\x00\x00\x00\x00'
tRp632
F3.5829100608825684
tp633
aa(lp634
(I1
g3
(g5
S'\x8f\xc2\xf5(\\\x0f^@'
tRp635
F0.015195131301879883
tp636
a(I1
g3
(g5
S'\xf4(\\\x8f\xc2%M@'
tRp637
F0.035364866256713867
tp638
a(I1
g3
(g5
S'\xf4(\\\x8f\xc2%M@'
tRp639
F0.01794886589050293
tp640
a(I1
g3
(g5
S'\x10-\xb2\x9d\xef\xa74@'
tRp641
F0.047196149826049805
tp642
a(I1
g3
(g5
S'\x10-\xb2\x9d\xef\xa74@'
tRp643
F0.018270015716552734
tp644
a(I1
g3
(g5
S'\x10-\xb2\x9d\xef\xa74@'
tRp645
F2.5389788150787354
tp646
a(I1
g3
(g5
S'\x10-\xb2\x9d\xef\xa74@'
tRp647
F0.022482156753540039
tp648
a(I1
g3
(g5
S'\x10-\xb2\x9d\xef\xa74@'
tRp649
F0.10024309158325195
tp650
a(I1
g3
(g5
S'p\x12\x83\xc0\xca\xd1B@'
tRp651
F0.058055877685546875
tp652
a(I1
g3
(g5
S'\x00\x00\x00\x00\x00\x00\x00\x00'
tRp653
F0.076519012451171875
tp654
aa(lp655
(I1
g3
(g5
S'\xecQ\xb8\x1e\x85\xcf`@'
tRp656
F0.01597905158996582
tp657
a(I1
g3
(g5
S'\xd9\xce\xf7S\xe3\xf5V@'
tRp658
F0.051743984222412109
tp659
a(I1
g3
(g5
S'\xd9\xce\xf7S\xe3\xf5V@'
tRp660
F0.033667802810668945
tp661
a(I1
g3
(g5
S'<\n\xd7\xa3pmD@'
tRp662
F0.018019914627075195
tp663
a(I1
g3
(g5
S'<\n\xd7\xa3pmD@'
tRp664
F0.051496982574462891
tp665
a(I1
g3
(g5
S'<\n\xd7\xa3pmD@'
tRp666
F2.6679718494415283
tp667
a(I1
g3
(g5
S'<\n\xd7\xa3pmD@'
tRp668
F0.033327102661132812
tp669
a(I1
g3
(g5
S'\x00\x00\x00\x00\x00\x00\x00\x00'
tRp670
F0.03956294059753418
tp671
aa(lp672
(I1
g3
(g5
S'\x8c\x97n\x12\x83\xe04@'
tRp673
F0.015012025833129883
tp674
a(I1
g3
(g5
S'\x8c\x97n\x12\x83\xe04@'
tRp675
F0.045712947845458984
tp676
a(I1
g3
(g5
S'\x8c\x97n\x12\x83\xe04@'
tRp677
F0.018453836441040039
tp678
a(I1
g3
(g5
S'\x8c\x97n\x12\x83\xe04@'
tRp679
F0.037352085113525391
tp680
a(I1
g3
(g5
S'\x8c\x97n\x12\x83\xe04@'
tRp681
F0.017086982727050781
tp682
a(I1
g3
(g5
S'\x00\x00\x00\x00\x00\x00\x00\x00'
tRp683
F2.5188581943511963
tp684
aa(lp685
(I1
g3
(g5
S'\x00\x00\x00\x00\x00ld@'
tRp686
F0.015770912170410156
tp687
a(I1
g3
(g5
S'\xc8K7\x89A\xf0S@'
tRp688
F0.039656877517700195
tp689
a(I1
g3
(g5
S'\xc8K7\x89A\xf0S@'
tRp690
F0.018410921096801758
tp691
a(I1
g3
(g5
S'\xb0p=\n\xd7\xa31@'
tRp692
F0.047331094741821289
tp693
a(I1
g3
(g5
S'\xb0p=\n\xd7\xa31@'
tRp694
F0.016827106475830078
tp695
a(I1
g3
(g5
S'\xb0p=\n\xd7\xa31@'
tRp696
F2.5349681377410889
tp697
a(I1
g3
(g5
S'\xb0p=\n\xd7\xa31@'
tRp698
F0.035094976425170898
tp699
a(I1
g3
(g5
S'\xb0p=\n\xd7\xa31@'
tRp700
F0.049543142318725586
tp701
a(I1
g3
(g5
S'\xb0p=\n\xd7\xa31@'
tRp702
F0.042726993560791016
tp703
a(I1
g3
(g5
S'\xb0p=\n\xd7\xa31@'
tRp704
F0.033987998962402344
tp705
a(I1
g3
(g5
S'\xb0p=\n\xd7\xa31@'
tRp706
F2.9789028167724609
tp707
a(I1
g3
(g5
S'\xb0p=\n\xd7\xa31@'
tRp708
F0.041035890579223633
tp709
a(I1
g3
(g5
S'\xb0p=\n\xd7\xa31@'
tRp710
F0.036567926406860352
tp711
a(I1
g3
(g5
S'\xb0p=\n\xd7\xa31@'
tRp712
F0.047268867492675781
tp713
a(I1
g3
(g5
S'\xb0p=\n\xd7\xa31@'
tRp714
F0.041763067245483398
tp715
a(I1
g3
(g5
S'\xb0p=\n\xd7\xa31@'
tRp716
F2.9517240524291992
tp717
a(I1
g3
(g5
S'\xb0p=\n\xd7\xa31@'
tRp718
F0.048293113708496094
tp719
a(I1
g3
(g5
S'\xb0p=\n\xd7\xa31@'
tRp720
F0.040533065795898438
tp721
a(I1
g3
(g5
S'\xb0p=\n\xd7\xa31@'
tRp722
F0.043821811676025391
tp723
a(I1
g3
(g5
S'\xb0p=\n\xd7\xa31@'
tRp724
F0.041387081146240234
tp725
a(I1
g3
(g5
S'\xb0p=\n\xd7\xa31@'
tRp726
F3.1147091388702393
tp727
a(I1
g3
(g5
S'\xb0p=\n\xd7\xa31@'
tRp728
F0.060392856597900391
tp729
a(I1
g3
(g5
S'\x00\x00\x00\x00\x00\x00\x00\x00'
tRp730
F0.047597885131835938
tp731
aa(lp732
(I1
g3
(g5
S'`+\xf6\x97\xdd\x93\x0c@'
tRp733
F0.015100002288818359
tp734
a(I1
g3
(g5
S'`+\xf6\x97\xdd\x93\x0c@'
tRp735
F0.051500082015991211
tp736
a(I1
g3
(g5
S'\x00\x00\x00\x00\x00\x00\x00\x00'
tRp737
F0.035917997360229492
tp738
aa.