(lp1
(lp2
(I6
cnumpy.core.multiarray
scalar
p3
(cnumpy
dtype
p4
(S'f8'
I0
I1
tRp5
(I3
S'<'
NNNI-1
I-1
I0
tbS'\x10-\xb2\x9d\xefg/@'
tRp6
F0.11315608024597168
tp7
a(I6
g3
(g5
S'fffff>T@'
tRp8
F0.099030017852783203
tp9
a(I6
g3
(g5
S'fffff>T@'
tRp10
F0.054364919662475586
tp11
a(I6
g3
(g5
S'fffff>T@'
tRp12
F0.055737972259521484
tp13
a(I6
g3
(g5
S'fffff>T@'
tRp14
F0.058978080749511719
tp15
a(I6
g3
(g5
S'\xb0\x9d\xef\xa7\xc6\x0b*@'
tRp16
F4.0243890285491943
tp17
a(I6
g3
(g5
S'\x00\x00\x00\x00\x00\x00\x00\x00'
tRp18
F0.5561220645904541
tp19
aa(lp20
(I6
g3
(g5
S'\xc4K7\x89A\xc0B@'
tRp21
F0.12026000022888184
tp22
a(I6
g3
(g5
S'\x90\xed|?5\x06X@'
tRp23
F0.11770391464233398
tp24
a(I6
g3
(g5
S'\x90\xed|?5\x06X@'
tRp25
F0.10214805603027344
tp26
a(I6
g3
(g5
S'\x90\xed|?5\x06X@'
tRp27
F0.093385934829711914
tp28
a(I6
g3
(g5
S'\x90\xed|?5\x06X@'
tRp29
F0.11458301544189453
tp30
a(I6
g3
(g5
S'\x00\x00\x00\x00\x00\x00\x00\x00'
tRp31
F4.6109821796417236
tp32
aa(lp33
(I6
g3
(g5
S'\xc0\xf5(\\\x8f\xc2\x15@'
tRp34
F0.11405706405639648
tp35
a(I6
g3
(g5
S'v\xb5\x15\xfb\xcb\xeeU@'
tRp36
F0.098959207534790039
tp37
a(I6
g3
(g5
S'v\xb5\x15\xfb\xcb\xeeU@'
tRp38
F0.052991151809692383
tp39
a(I6
g3
(g5
S'v\xb5\x15\xfb\xcb\xeeU@'
tRp40
F0.056777000427246094
tp41
a(I6
g3
(g5
S'v\xb5\x15\xfb\xcb\xeeU@'
tRp42
F0.061985015869140625
tp43
a(I6
g3
(g5
S'\x00\x00\x00\x00\x00\x00\x00\x00'
tRp44
F4.3875150680541992
tp45
aa(lp46
(I6
g3
(g5
S'`;\xdfO\x8dW$@'
tRp47
F0.11963987350463867
tp48
a(I6
g3
(g5
S'$\x06\x81\x95C3S@'
tRp49
F0.1163630485534668
tp50
a(I6
g3
(g5
S'$\x06\x81\x95C3S@'
tRp51
F0.050148963928222656
tp52
a(I6
g3
(g5
S'$\x06\x81\x95C3S@'
tRp53
F0.045135021209716797
tp54
a(I6
g3
(g5
S'$\x06\x81\x95C3S@'
tRp55
F0.048472881317138672
tp56
a(I6
g3
(g5
S'$\x06\x81\x95C3S@'
tRp57
F3.169903039932251
tp58
a(I6
g3
(g5
S'$\x06\x81\x95C3S@'
tRp59
F0.058553934097290039
tp60
a(I6
g3
(g5
S'$\x06\x81\x95C3S@'
tRp61
F0.058604001998901367
tp62
a(I6
g3
(g5
S'$\x06\x81\x95C3S@'
tRp63
F0.061875104904174805
tp64
a(I6
g3
(g5
S'$\x06\x81\x95C3S@'
tRp65
F0.064934968948364258
tp66
a(I6
g3
(g5
S'\x88\xc2\xf5(\\\xef6@'
tRp67
F4.2092058658599854
tp68
a(I6
g3
(g5
S'\x88\xc2\xf5(\\\xef6@'
tRp69
F0.081500053405761719
tp70
a(I6
g3
(g5
S'\x88\xc2\xf5(\\\xef6@'
tRp71
F0.084796905517578125
tp72
a(I6
g3
(g5
S'\x88\xc2\xf5(\\\xef6@'
tRp73
F0.088321924209594727
tp74
a(I6
g3
(g5
S'\x88\xc2\xf5(\\\xef6@'
tRp75
F0.092120885848999023
tp76
a(I6
g3
(g5
S'\x88\xc2\xf5(\\\xef6@'
tRp77
F5.2526669502258301
tp78
a(I6
g3
(g5
S'\x88\xc2\xf5(\\\xef6@'
tRp79
F0.10000205039978027
tp80
a(I6
g3
(g5
S'\x88\xc2\xf5(\\\xef6@'
tRp81
F0.10357213020324707
tp82
a(I6
g3
(g5
S'\x88\xc2\xf5(\\\xef6@'
tRp83
F0.10703086853027344
tp84
a(I6
g3
(g5
S'\x88\xc2\xf5(\\\xef6@'
tRp85
F0.11068296432495117
tp86
a(I6
g3
(g5
S'\x88\xc2\xf5(\\\xef6@'
tRp87
F6.3797669410705566
tp88
a(I6
g3
(g5
S'\x88\xc2\xf5(\\\xef6@'
tRp89
F0.11892819404602051
tp90
a(I6
g3
(g5
S'\x88\xc2\xf5(\\\xef6@'
tRp91
F0.12250590324401855
tp92
a(I6
g3
(g5
S'\x88\xc2\xf5(\\\xef6@'
tRp93
F0.12729597091674805
tp94
a(I6
g3
(g5
S'\x88\xc2\xf5(\\\xef6@'
tRp95
F0.12971305847167969
tp96
a(I6
g3
(g5
S'\x88\xc2\xf5(\\\xef6@'
tRp97
F7.3236868381500244
tp98
a(I6
g3
(g5
S'\x88\xc2\xf5(\\\xef6@'
tRp99
F0.13774704933166504
tp100
a(I6
g3
(g5
S'\x88\xc2\xf5(\\\xef6@'
tRp101
F0.14193201065063477
tp102
a(I6
g3
(g5
S'\x88\xc2\xf5(\\\xef6@'
tRp103
F0.14508700370788574
tp104
a(I6
g3
(g5
S'\x88\xc2\xf5(\\\xef6@'
tRp105
F0.14868021011352539
tp106
a(I6
g3
(g5
S'\x88\xc2\xf5(\\\xef6@'
tRp107
F8.4671468734741211
tp108
a(I6
g3
(g5
S'\x88\xc2\xf5(\\\xef6@'
tRp109
F0.160736083984375
tp110
a(I6
g3
(g5
S'\x88\xc2\xf5(\\\xef6@'
tRp111
F0.16113805770874023
tp112
a(I6
g3
(g5
S'\x88\xc2\xf5(\\\xef6@'
tRp113
F0.16401004791259766
tp114
a(I6
g3
(g5
S'\x88\xc2\xf5(\\\xef6@'
tRp115
F0.16839003562927246
tp116
a(I6
g3
(g5
S'\x88\xc2\xf5(\\\xef6@'
tRp117
F9.4611310958862305
tp118
a(I6
g3
(g5
S'\x88\xc2\xf5(\\\xef6@'
tRp119
F0.17592906951904297
tp120
a(I6
g3
(g5
S'\x88\xc2\xf5(\\\xef6@'
tRp121
F0.1791679859161377
tp122
a(I6
g3
(g5
S'\x88\xc2\xf5(\\\xef6@'
tRp123
F0.18720102310180664
tp124
a(I6
g3
(g5
S'`;\xdfO\x8dW$@'
tRp125
F0.18836808204650879
tp126
a(I6
g3
(g5
S'`;\xdfO\x8dW$@'
tRp127
F12.20901894569397
tp128
a(I6
g3
(g5
S'`;\xdfO\x8dW$@'
tRp129
F0.22959685325622559
tp130
a(I6
g3
(g5
S'`;\xdfO\x8dW$@'
tRp131
F0.22007298469543457
tp132
a(I6
g3
(g5
S'`;\xdfO\x8dW$@'
tRp133
F0.2184910774230957
tp134
a(I6
g3
(g5
S'`;\xdfO\x8dW$@'
tRp135
F0.2241818904876709
tp136
a(I6
g3
(g5
S'`;\xdfO\x8dW$@'
tRp137
F13.122810125350952
tp138
a(I6
g3
(g5
S'`;\xdfO\x8dW$@'
tRp139
F0.23988795280456543
tp140
a(I6
g3
(g5
S'`;\xdfO\x8dW$@'
tRp141
F0.25144100189208984
tp142
a(I6
g3
(g5
S'`;\xdfO\x8dW$@'
tRp143
F0.34063100814819336
tp144
a(I6
g3
(g5
S'`;\xdfO\x8dW$@'
tRp145
F0.25055480003356934
tp146
aa(lp147
(I6
g3
(g5
S'\x00\x00\x00\x00\x00\x00\x00\x00'
tRp148
F0.10894989967346191
tp149
aa(lp150
(I6
g3
(g5
S'\x00\x00\x00\x00\x00\x00\x00\x00'
tRp151
F0.11899900436401367
tp152
aa(lp153
(I6
g3
(g5
S'\x10\x04V\x0e-r1@'
tRp154
F0.10738897323608398
tp155
a(I6
g3
(g5
S'\xe4\xd0"\xdb\xf9Jd@'
tRp156
F0.1007080078125
tp157
a(I6
g3
(g5
S'\xe4\xd0"\xdb\xf9Jd@'
tRp158
F0.04779505729675293
tp159
a(I6
g3
(g5
S'\xe4\xd0"\xdb\xf9Jd@'
tRp160
F0.051800966262817383
tp161
a(I6
g3
(g5
S'\xe4\xd0"\xdb\xf9Jd@'
tRp162
F0.055503129959106445
tp163
a(I6
g3
(g5
S'\x00\x00\x00\x00\x00\x00\x00\x00'
tRp164
F3.5636241436004639
tp165
aa(lp166
(I6
g3
(g5
S'\xe8&1\x08\xacLK@'
tRp167
F0.11023283004760742
tp168
a(I6
g3
(g5
S'P\x8d\x97n\x12C9@'
tRp169
F0.10396099090576172
tp170
a(I6
g3
(g5
S'P\x8d\x97n\x12C9@'
tRp171
F0.083451986312866211
tp172
a(I6
g3
(g5
S'P\x8d\x97n\x12C9@'
tRp173
F0.083674907684326172
tp174
a(I6
g3
(g5
S'P\x8d\x97n\x12C9@'
tRp175
F0.087182044982910156
tp176
a(I6
g3
(g5
S'\xb0\xc8v\xbe\x9f\x1a(@'
tRp177
F4.4500970840454102
tp178
a(I6
g3
(g5
S'\xb0\xc8v\xbe\x9f\x1a(@'
tRp179
F1.1528909206390381
tp180
a(I6
g3
(g5
S'\x00\x00\x00\x00\x00\x00\x00\x00'
tRp181
F0.81168007850646973
tp182
aa(lp183
(I6
g3
(g5
S'\xd0x\xe9&1(>@'
tRp184
F0.10904192924499512
tp185
a(I6
g3
(g5
S'h\x91\xed|?uG@'
tRp186
F0.13776803016662598
tp187
a(I6
g3
(g5
S'h\x91\xed|?uG@'
tRp188
F0.04826807975769043
tp189
a(I6
g3
(g5
S'h\x91\xed|?uG@'
tRp190
F0.045068979263305664
tp191
a(I6
g3
(g5
S'h\x91\xed|?uG@'
tRp192
F0.048573017120361328
tp193
a(I6
g3
(g5
S'\x00\x00\x00\x00\x00\x00\x00\x00'
tRp194
F3.1753189563751221
tp195
aa(lp196
(I6
g3
(g5
S'\xe8Q\xb8\x1e\x85\xcb9@'
tRp197
F0.11579203605651855
tp198
a(I6
g3
(g5
S'\xd4\xe7j+\xf6?R@'
tRp199
F0.1057279109954834
tp200
a(I6
g3
(g5
S'\xd4\xe7j+\xf6?R@'
tRp201
F0.049313783645629883
tp202
a(I6
g3
(g5
S'\xd4\xe7j+\xf6?R@'
tRp203
F0.053068161010742188
tp204
a(I6
g3
(g5
S'\xd4\xe7j+\xf6?R@'
tRp205
F0.056190967559814453
tp206
a(I6
g3
(g5
S'\x00\x00\x00\x00\x00\x00\x00\x00'
tRp207
F3.2014460563659668
tp208
aa(lp209
(I6
g3
(g5
S'\xb0\x1cZd;_2@'
tRp210
F0.11730098724365234
tp211
a(I6
g3
(g5
S' /\xdd$\x06\x01\x19@'
tRp212
F0.09407496452331543
tp213
a(I6
g3
(g5
S' /\xdd$\x06\x01\x19@'
tRp214
F0.047669887542724609
tp215
a(I6
g3
(g5
S' /\xdd$\x06\x01\x19@'
tRp216
F0.059494972229003906
tp217
a(I6
g3
(g5
S' /\xdd$\x06\x01\x19@'
tRp218
F0.062295913696289062
tp219
a(I6
g3
(g5
S'\x00\x00\x00\x00\x00\x00\x00\x00'
tRp220
F4.8943591117858887
tp221
aa(lp222
(I6
g3
(g5
S'\x10\xc7\xba\xb8\x8d6H@'
tRp223
F0.11478209495544434
tp224
a(I6
g3
(g5
S'i\xb3\xeas\xb5\x85^@'
tRp225
F0.087957143783569336
tp226
a(I6
g3
(g5
S'i\xb3\xeas\xb5\x85^@'
tRp227
F0.081819057464599609
tp228
a(I6
g3
(g5
S'i\xb3\xeas\xb5\x85^@'
tRp229
F0.10410308837890625
tp230
a(I6
g3
(g5
S'i\xb3\xeas\xb5\x85^@'
tRp231
F0.091539859771728516
tp232
a(I6
g3
(g5
S'\x10\xac\x1cZd\xbb @'
tRp233
F4.2748019695281982
tp234
a(I6
g3
(g5
S'`\xbaI\x0c\x02+\x13@'
tRp235
F0.86711502075195312
tp236
a(I6
g3
(g5
S'\x00\x00\x00\x00\x00\x00\x00\x00'
tRp237
F1.061837911605835
tp238
aa(lp239
(I6
g3
(g5
S'p\x91\xed|?\xb57@'
tRp240
F0.11357998847961426
tp241
a(I6
g3
(g5
S'\x88\xebQ\xb8\x1eUK@'
tRp242
F0.088984012603759766
tp243
a(I6
g3
(g5
S'\x88\xebQ\xb8\x1eUK@'
tRp244
F0.048423051834106445
tp245
a(I6
g3
(g5
S'\x88\xebQ\xb8\x1eUK@'
tRp246
F0.052204132080078125
tp247
a(I6
g3
(g5
S'\x88\xebQ\xb8\x1eUK@'
tRp248
F0.056300878524780273
tp249
a(I6
g3
(g5
S'\x00\x00\x00\x00\x00\x00\x00\x00'
tRp250
F4.3987700939178467
tp251
aa(lp252
(I6
g3
(g5
S'\x00\x00\x00\x00\x00\x00\x00\x00'
tRp253
F0.12106513977050781
tp254
aa(lp255
(I6
g3
(g5
S"\xb8'\x0f\x0b\xb5\xc6N@"
tRp256
F0.1185309886932373
tp257
a(I6
g3
(g5
S'\x81\xc0\xca\xa1E\x86\\@'
tRp258
F0.099730014801025391
tp259
a(I6
g3
(g5
S'\x81\xc0\xca\xa1E\x86\\@'
tRp260
F0.10836195945739746
tp261
a(I6
g3
(g5
S'\x81\xc0\xca\xa1E\x86\\@'
tRp262
F0.10009598731994629
tp263
a(I6
g3
(g5
S'\x81\xc0\xca\xa1E\x86\\@'
tRp264
F0.068269014358520508
tp265
a(I6
g3
(g5
S'\x00\x00\x00\x00\x00\x00\x00\x00'
tRp266
F4.3690371513366699
tp267
aa(lp268
(I6
g3
(g5
S'\x98\xe6\x1d\xa7\xe8\xd8E@'
tRp269
F0.11549496650695801
tp270
a(I6
g3
(g5
S'\xcc\xf7S\xe3\xa5\xbbH@'
tRp271
F0.10970401763916016
tp272
a(I6
g3
(g5
S'\xcc\xf7S\xe3\xa5\xbbH@'
tRp273
F0.050926923751831055
tp274
a(I6
g3
(g5
S'\xcc\xf7S\xe3\xa5\xbbH@'
tRp275
F0.053776025772094727
tp276
a(I6
g3
(g5
S'\xcc\xf7S\xe3\xa5\xbbH@'
tRp277
F0.057137012481689453
tp278
a(I6
g3
(g5
S'\x00\x00\x00\x00\x00\x00\x00\x00'
tRp279
F3.6949448585510254
tp280
aa(lp281
(I6
g3
(g5
S'\x00\x00\x00\x00\x00\x00\x00\x00'
tRp282
F0.11162185668945312
tp283
aa(lp284
(I6
g3
(g5
S'\xe8&1\x08\xac\x9cB@'
tRp285
F0.11511802673339844
tp286
a(I6
g3
(g5
S'\xc0\xf5(\\\x8f\xd2H@'
tRp287
F0.087280035018920898
tp288
a(I6
g3
(g5
S'\xc0\xf5(\\\x8f\xd2H@'
tRp289
F0.080728054046630859
tp290
a(I6
g3
(g5
S'\xc0\xf5(\\\x8f\xd2H@'
tRp291
F0.095268964767456055
tp292
a(I6
g3
(g5
S'\xc0\xf5(\\\x8f\xd2H@'
tRp293
F0.091670036315917969
tp294
a(I6
g3
(g5
S'\x00\x00\x00\x00\x00\x00\x00\x00'
tRp295
F4.0525100231170654
tp296
aa(lp297
(I6
g3
(g5
S'\x00\x00\x00\x00\x00\x00\x00\x00'
tRp298
F0.1120140552520752
tp299
aa(lp300
(I6
g3
(g5
S'\xb4\xc8v\xbe\x9f\x9aI@'
tRp301
F0.11044907569885254
tp302
a(I6
g3
(g5
S'6\x89A`\xe5\xf0Z@'
tRp303
F0.087265968322753906
tp304
a(I6
g3
(g5
S'6\x89A`\xe5\xf0Z@'
tRp305
F0.095881938934326172
tp306
a(I6
g3
(g5
S'6\x89A`\xe5\xf0Z@'
tRp307
F0.096004962921142578
tp308
a(I6
g3
(g5
S'6\x89A`\xe5\xf0Z@'
tRp309
F0.10302114486694336
tp310
a(I6
g3
(g5
S'\x00\x00\x00\x00\x00\x00\x00\x00'
tRp311
F4.5740330219268799
tp312
aa.