(lp1
(lp2
(I6
cnumpy.core.multiarray
scalar
p3
(cnumpy
dtype
p4
(S'f8'
I0
I1
tRp5
(I3
S'<'
NNNI-1
I-1
I0
tbS'\x10-\xb2\x9d\xefg/@'
tRp6
F0.11349606513977051
tp7
a(I6
g3
(g5
S'fffff>T@'
tRp8
F0.087620019912719727
tp9
a(I6
g3
(g5
S'fffff>T@'
tRp10
F0.046400070190429688
tp11
a(I6
g3
(g5
S'fffff>T@'
tRp12
F0.051132917404174805
tp13
a(I6
g3
(g5
S'fffff>T@'
tRp14
F0.052792072296142578
tp15
a(I6
g3
(g5
S'\xb0\x9d\xef\xa7\xc6\x0b*@'
tRp16
F3.7125210762023926
tp17
a(I6
g3
(g5
S'\x00\x00\x00\x00\x00\x00\x00\x00'
tRp18
F0.54834794998168945
tp19
aa(lp20
(I6
g3
(g5
S'\xc4K7\x89A\xc0B@'
tRp21
F0.11797595024108887
tp22
a(I6
g3
(g5
S'\x90\xed|?5\x06X@'
tRp23
F0.11203694343566895
tp24
a(I6
g3
(g5
S'\x90\xed|?5\x06X@'
tRp25
F0.10335803031921387
tp26
a(I6
g3
(g5
S'\x90\xed|?5\x06X@'
tRp27
F0.090981960296630859
tp28
a(I6
g3
(g5
S'\x90\xed|?5\x06X@'
tRp29
F0.11119294166564941
tp30
a(I6
g3
(g5
S'\x00\x00\x00\x00\x00\x00\x00\x00'
tRp31
F4.2232232093811035
tp32
aa(lp33
(I6
g3
(g5
S'\xc0\xf5(\\\x8f\xc2\x15@'
tRp34
F0.12707996368408203
tp35
a(I6
g3
(g5
S'v\xb5\x15\xfb\xcb\xeeU@'
tRp36
F0.0933380126953125
tp37
a(I6
g3
(g5
S'v\xb5\x15\xfb\xcb\xeeU@'
tRp38
F0.047850847244262695
tp39
a(I6
g3
(g5
S'v\xb5\x15\xfb\xcb\xeeU@'
tRp40
F0.050337076187133789
tp41
a(I6
g3
(g5
S'v\xb5\x15\xfb\xcb\xeeU@'
tRp42
F0.055358171463012695
tp43
a(I6
g3
(g5
S'\x00\x00\x00\x00\x00\x00\x00\x00'
tRp44
F4.0910940170288086
tp45
aa(lp46
(I6
g3
(g5
S'`;\xdfO\x8dW$@'
tRp47
F0.11501193046569824
tp48
a(I6
g3
(g5
S'$\x06\x81\x95C3S@'
tRp49
F0.11461687088012695
tp50
a(I6
g3
(g5
S'$\x06\x81\x95C3S@'
tRp51
F0.045271873474121094
tp52
a(I6
g3
(g5
S'$\x06\x81\x95C3S@'
tRp53
F0.039640903472900391
tp54
a(I6
g3
(g5
S'$\x06\x81\x95C3S@'
tRp55
F0.042573928833007812
tp56
a(I6
g3
(g5
S'$\x06\x81\x95C3S@'
tRp57
F2.9573769569396973
tp58
a(I6
g3
(g5
S'$\x06\x81\x95C3S@'
tRp59
F0.049267053604125977
tp60
a(I6
g3
(g5
S'$\x06\x81\x95C3S@'
tRp61
F0.052564859390258789
tp62
a(I6
g3
(g5
S'$\x06\x81\x95C3S@'
tRp63
F0.055778980255126953
tp64
a(I6
g3
(g5
S'$\x06\x81\x95C3S@'
tRp65
F0.05891108512878418
tp66
a(I6
g3
(g5
S'\x88\xc2\xf5(\\\xef6@'
tRp67
F3.9832789897918701
tp68
a(I6
g3
(g5
S'\x88\xc2\xf5(\\\xef6@'
tRp69
F0.074872016906738281
tp70
a(I6
g3
(g5
S'\x88\xc2\xf5(\\\xef6@'
tRp71
F0.078567028045654297
tp72
a(I6
g3
(g5
S'\x88\xc2\xf5(\\\xef6@'
tRp73
F0.082517862319946289
tp74
a(I6
g3
(g5
S'\x88\xc2\xf5(\\\xef6@'
tRp75
F0.086400985717773438
tp76
a(I6
g3
(g5
S'\x88\xc2\xf5(\\\xef6@'
tRp77
F4.9761910438537598
tp78
a(I6
g3
(g5
S'\x88\xc2\xf5(\\\xef6@'
tRp79
F0.092552900314331055
tp80
aa(lp81
(I6
g3
(g5
S'\x00\x00\x00\x00\x00\x00\x00\x00'
tRp82
F0.12932991981506348
tp83
aa(lp84
(I6
g3
(g5
S'\x00\x00\x00\x00\x00\x00\x00\x00'
tRp85
F0.11406183242797852
tp86
aa(lp87
(I6
g3
(g5
S'\x10\x04V\x0e-r1@'
tRp88
F0.1148371696472168
tp89
a(I6
g3
(g5
S'\xe4\xd0"\xdb\xf9Jd@'
tRp90
F0.10146498680114746
tp91
a(I6
g3
(g5
S'\xe4\xd0"\xdb\xf9Jd@'
tRp92
F0.042567968368530273
tp93
a(I6
g3
(g5
S'\xe4\xd0"\xdb\xf9Jd@'
tRp94
F0.045487165451049805
tp95
a(I6
g3
(g5
S'\xe4\xd0"\xdb\xf9Jd@'
tRp96
F0.049034833908081055
tp97
a(I6
g3
(g5
S'\x00\x00\x00\x00\x00\x00\x00\x00'
tRp98
F3.3263580799102783
tp99
aa(lp100
(I6
g3
(g5
S'\xe8&1\x08\xacLK@'
tRp101
F0.11593484878540039
tp102
a(I6
g3
(g5
S'P\x8d\x97n\x12C9@'
tRp103
F0.10058403015136719
tp104
a(I6
g3
(g5
S'P\x8d\x97n\x12C9@'
tRp105
F0.088757038116455078
tp106
a(I6
g3
(g5
S'P\x8d\x97n\x12C9@'
tRp107
F0.082496881484985352
tp108
a(I6
g3
(g5
S'P\x8d\x97n\x12C9@'
tRp109
F0.089818954467773438
tp110
a(I6
g3
(g5
S'\xb0\xc8v\xbe\x9f\x1a(@'
tRp111
F4.1601598262786865
tp112
a(I6
g3
(g5
S'\x00\x00\x00\x00\x00\x00\x00\x00'
tRp113
F0.84687614440917969
tp114
aa(lp115
(I6
g3
(g5
S'\xd0x\xe9&1(>@'
tRp116
F0.12380886077880859
tp117
a(I6
g3
(g5
S'h\x91\xed|?uG@'
tRp118
F0.12154603004455566
tp119
a(I6
g3
(g5
S'h\x91\xed|?uG@'
tRp120
F0.04185795783996582
tp121
a(I6
g3
(g5
S'h\x91\xed|?uG@'
tRp122
F0.047945022583007812
tp123
a(I6
g3
(g5
S'h\x91\xed|?uG@'
tRp124
F0.048901081085205078
tp125
a(I6
g3
(g5
S'\x00\x00\x00\x00\x00\x00\x00\x00'
tRp126
F3.2714550495147705
tp127
aa(lp128
(I6
g3
(g5
S'\xe8Q\xb8\x1e\x85\xcb9@'
tRp129
F0.10471200942993164
tp130
a(I6
g3
(g5
S'\xd4\xe7j+\xf6?R@'
tRp131
F0.11567211151123047
tp132
a(I6
g3
(g5
S'\xd4\xe7j+\xf6?R@'
tRp133
F0.043615818023681641
tp134
a(I6
g3
(g5
S'\xd4\xe7j+\xf6?R@'
tRp135
F0.047321081161499023
tp136
a(I6
g3
(g5
S'\xd4\xe7j+\xf6?R@'
tRp137
F0.041546106338500977
tp138
a(I6
g3
(g5
S'\x00\x00\x00\x00\x00\x00\x00\x00'
tRp139
F2.9400711059570312
tp140
aa(lp141
(I6
g3
(g5
S'\xb0\x1cZd;_2@'
tRp142
F0.11210083961486816
tp143
a(I6
g3
(g5
S' /\xdd$\x06\x01\x19@'
tRp144
F0.092048168182373047
tp145
a(I6
g3
(g5
S' /\xdd$\x06\x01\x19@'
tRp146
F0.041121006011962891
tp147
a(I6
g3
(g5
S' /\xdd$\x06\x01\x19@'
tRp148
F0.052831888198852539
tp149
a(I6
g3
(g5
S' /\xdd$\x06\x01\x19@'
tRp150
F0.05536198616027832
tp151
a(I6
g3
(g5
S'\x00\x00\x00\x00\x00\x00\x00\x00'
tRp152
F4.396824836730957
tp153
aa(lp154
(I6
g3
(g5
S'\x10\xc7\xba\xb8\x8d6H@'
tRp155
F0.10934591293334961
tp156
a(I6
g3
(g5
S'i\xb3\xeas\xb5\x85^@'
tRp157
F0.078954935073852539
tp158
a(I6
g3
(g5
S'i\xb3\xeas\xb5\x85^@'
tRp159
F0.075900077819824219
tp160
a(I6
g3
(g5
S'i\xb3\xeas\xb5\x85^@'
tRp161
F0.086710929870605469
tp162
a(I6
g3
(g5
S'i\xb3\xeas\xb5\x85^@'
tRp163
F0.0861358642578125
tp164
a(I6
g3
(g5
S'\x10\xac\x1cZd\xbb @'
tRp165
F3.8128600120544434
tp166
a(I6
g3
(g5
S'`\xbaI\x0c\x02+\x13@'
tRp167
F0.87122416496276855
tp168
a(I6
g3
(g5
S'\x00\x00\x00\x00\x00\x00\x00\x00'
tRp169
F1.0584590435028076
tp170
aa(lp171
(I6
g3
(g5
S'p\x91\xed|?\xb57@'
tRp172
F0.10216093063354492
tp173
a(I6
g3
(g5
S'\x88\xebQ\xb8\x1eUK@'
tRp174
F0.088479042053222656
tp175
a(I6
g3
(g5
S'\x88\xebQ\xb8\x1eUK@'
tRp176
F0.042037010192871094
tp177
a(I6
g3
(g5
S'\x88\xebQ\xb8\x1eUK@'
tRp178
F0.045501947402954102
tp179
a(I6
g3
(g5
S'\x88\xebQ\xb8\x1eUK@'
tRp180
F0.049352884292602539
tp181
a(I6
g3
(g5
S'\x00\x00\x00\x00\x00\x00\x00\x00'
tRp182
F3.6576099395751953
tp183
aa(lp184
(I6
g3
(g5
S'\x00\x00\x00\x00\x00\x00\x00\x00'
tRp185
F0.099388837814331055
tp186
aa(lp187
(I6
g3
(g5
S"\xb8'\x0f\x0b\xb5\xc6N@"
tRp188
F0.10981488227844238
tp189
a(I6
g3
(g5
S'\x81\xc0\xca\xa1E\x86\\@'
tRp190
F0.099014043807983398
tp191
a(I6
g3
(g5
S'\x81\xc0\xca\xa1E\x86\\@'
tRp192
F0.10213112831115723
tp193
a(I6
g3
(g5
S'\x81\xc0\xca\xa1E\x86\\@'
tRp194
F0.090759038925170898
tp195
a(I6
g3
(g5
S'\x81\xc0\xca\xa1E\x86\\@'
tRp196
F0.061306953430175781
tp197
a(I6
g3
(g5
S'\x00\x00\x00\x00\x00\x00\x00\x00'
tRp198
F3.9613897800445557
tp199
aa(lp200
(I6
g3
(g5
S'Xm\xc5\xfe\xb2\xbb4@'
tRp201
F0.11162900924682617
tp202
a(I6
g3
(g5
S'\xcc\xf7S\xe3\xa5\xbbH@'
tRp203
F0.082928895950317383
tp204
a(I6
g3
(g5
S'\xcc\xf7S\xe3\xa5\xbbH@'
tRp205
F0.084239959716796875
tp206
a(I6
g3
(g5
S'\xcc\xf7S\xe3\xa5\xbbH@'
tRp207
F0.09071803092956543
tp208
a(I6
g3
(g5
S'\xcc\xf7S\xe3\xa5\xbbH@'
tRp209
F0.11435413360595703
tp210
a(I6
g3
(g5
S'Xm\xc5\xfe\xb2\xbb4@'
tRp211
F4.1002740859985352
tp212
a(I6
g3
(g5
S'\x00\x00\x00\x00\x00\x00\x00\x00'
tRp213
F0.79466605186462402
tp214
aa(lp215
(I6
g3
(g5
S'\x10/\xdd$\x06\x817@'
tRp216
F0.10491800308227539
tp217
a(I6
g3
(g5
S'@`\xe5\xd0"[,@'
tRp218
F0.10126805305480957
tp219
a(I6
g3
(g5
S'@`\xe5\xd0"[,@'
tRp220
F0.087427854537963867
tp221
a(I6
g3
(g5
S'@`\xe5\xd0"[,@'
tRp222
F0.10213398933410645
tp223
a(I6
g3
(g5
S'@`\xe5\xd0"[,@'
tRp224
F0.14321184158325195
tp225
a(I6
g3
(g5
S'@`\xe5\xd0"[,@'
tRp226
F3.7701339721679688
tp227
a(I6
g3
(g5
S'\x00\x00\x00\x00\x00\x00\x00\x00'
tRp228
F0.47291302680969238
tp229
aa(lp230
(I6
g3
(g5
S'\xe8&1\x08\xac\x9cB@'
tRp231
F0.11377215385437012
tp232
a(I6
g3
(g5
S'\xc0\xf5(\\\x8f\xd2H@'
tRp233
F0.088804960250854492
tp234
a(I6
g3
(g5
S'\xc0\xf5(\\\x8f\xd2H@'
tRp235
F0.15499687194824219
tp236
a(I6
g3
(g5
S'\xc0\xf5(\\\x8f\xd2H@'
tRp237
F0.093033075332641602
tp238
a(I6
g3
(g5
S'\xc0\xf5(\\\x8f\xd2H@'
tRp239
F0.085726022720336914
tp240
a(I6
g3
(g5
S'\x00\x00\x00\x00\x00\x00\x00\x00'
tRp241
F3.7933599948883057
tp242
aa(lp243
(I6
g3
(g5
S'\x00\x00\x00\x00\x00\x00\x00\x00'
tRp244
F0.10362887382507324
tp245
aa(lp246
(I6
g3
(g5
S'\x00\x00\x00\x00\x00\x00\x00\x00'
tRp247
F0.11429309844970703
tp248
aa.