(lp1
(lp2
(I6
cnumpy.core.multiarray
scalar
p3
(cnumpy
dtype
p4
(S'f8'
I0
I1
tRp5
(I3
S'<'
NNNI-1
I-1
I0
tbS'\x00\x00\x00\x00\x00\x00\x00\x00'
tRp6
F0.11217212677001953
tp7
aa(lp8
(I6
g3
(g5
S'r=\n\xd7\xa3\xc0@@'
tRp9
F0.10458087921142578
tp10
a(I6
g3
(g5
S'\x80\x91\xed|?5\x07@'
tRp11
F0.099476099014282227
tp12
a(I6
g3
(g5
S'\x80\x12\x83\xc0\xca\xa1\x08@'
tRp13
F0.090323925018310547
tp14
a(I6
g3
(g5
S'\x80\x12\x83\xc0\xca\xa1\x08@'
tRp15
F0.041193008422851562
tp16
a(I6
g3
(g5
S'\x80\x12\x83\xc0\xca\xa1\x08@'
tRp17
F0.042142868041992188
tp18
a(I6
g3
(g5
S'\x00\x00\x00\x00\x00\x00\x00\x00'
tRp19
F2.9111068248748779
tp20
aa(lp21
(I6
g3
(g5
S'\x00\x00\x00\x00\x00\x00\x00\x00'
tRp22
F0.11903810501098633
tp23
aa(lp24
(I6
g3
(g5
S'\xc0K7\x89A\xe0/@'
tRp25
F0.11529803276062012
tp26
a(I6
g3
(g5
S'\xa0\x1a/\xdd$\x86&@'
tRp27
F0.078910112380981445
tp28
a(I6
g3
(g5
S'\xa0\x1a/\xdd$\x86&@'
tRp29
F0.11151885986328125
tp30
a(I6
g3
(g5
S'V\x0e-\xb2\x9d\xcf>@'
tRp31
F0.10359096527099609
tp32
a(I6
g3
(g5
S'V\x0e-\xb2\x9d\xcf>@'
tRp33
F0.041865110397338867
tp34
a(I6
g3
(g5
S'\xf8S\xe3\xa5\x9bD8@'
tRp35
F4.4518609046936035
tp36
a(I6
g3
(g5
S'\xf8S\xe3\xa5\x9bD8@'
tRp37
F0.14344096183776855
tp38
a(I6
g3
(g5
S'\xf8S\xe3\xa5\x9bD8@'
tRp39
F0.13649892807006836
tp40
a(I6
g3
(g5
S'\xf8S\xe3\xa5\x9bD8@'
tRp41
F0.15062618255615234
tp42
a(I6
g3
(g5
S'\xf8S\xe3\xa5\x9bD8@'
tRp43
F0.13622593879699707
tp44
a(I6
g3
(g5
S'\xf8S\xe3\xa5\x9bD8@'
tRp45
F5.2938549518585205
tp46
a(I6
g3
(g5
S'\xf8S\xe3\xa5\x9bD8@'
tRp47
F0.16699719429016113
tp48
a(I6
g3
(g5
S'\xf8S\xe3\xa5\x9bD8@'
tRp49
F0.14372611045837402
tp50
a(I6
g3
(g5
S'\xf8S\xe3\xa5\x9bD8@'
tRp51
F0.14816594123840332
tp52
a(I6
g3
(g5
S'\xf8S\xe3\xa5\x9bD8@'
tRp53
F0.14377093315124512
tp54
a(I6
g3
(g5
S'\xf8S\xe3\xa5\x9bD8@'
tRp55
F6.0951550006866455
tp56
a(I6
g3
(g5
S'\xf8S\xe3\xa5\x9bD8@'
tRp57
F0.15887808799743652
tp58
aa(lp59
(I6
g3
(g5
S'x\xbe\x9f\x1a/\x1d#@'
tRp60
F0.11972904205322266
tp61
a(I6
g3
(g5
S'x\xbe\x9f\x1a/\x1d#@'
tRp62
F0.031957149505615234
tp63
a(I6
g3
(g5
S'x\xbe\x9f\x1a/\x1d#@'
tRp64
F0.035967826843261719
tp65
a(I6
g3
(g5
S'x\xbe\x9f\x1a/\x1d#@'
tRp66
F0.039152860641479492
tp67
a(I6
g3
(g5
S'x\xbe\x9f\x1a/\x1d#@'
tRp68
F0.041985034942626953
tp69
a(I6
g3
(g5
S'8\xdfO\x8d\x97.&@'
tRp70
F2.8878371715545654
tp71
a(I6
g3
(g5
S'8\xdfO\x8d\x97.&@'
tRp72
F0.062063932418823242
tp73
a(I6
g3
(g5
S'8\xdfO\x8d\x97.&@'
tRp74
F0.062484025955200195
tp75
a(I6
g3
(g5
S'8\xdfO\x8d\x97.&@'
tRp76
F0.070393085479736328
tp77
a(I6
g3
(g5
S'8\xdfO\x8d\x97.&@'
tRp78
F0.074288845062255859
tp79
a(I6
g3
(g5
S'8\xdfO\x8d\x97.&@'
tRp80
F3.824660062789917
tp81
a(I6
g3
(g5
S'8\xdfO\x8d\x97.&@'
tRp82
F0.08166193962097168
tp83
a(I6
g3
(g5
S'8\xdfO\x8d\x97.&@'
tRp84
F0.085695028305053711
tp85
a(I6
g3
(g5
S'8\xdfO\x8d\x97.&@'
tRp86
F0.090759038925170898
tp87
a(I6
g3
(g5
S'8\xdfO\x8d\x97.&@'
tRp88
F0.092925071716308594
tp89
a(I6
g3
(g5
S'8\xdfO\x8d\x97.&@'
tRp90
F4.8495321273803711
tp91
a(I6
g3
(g5
S'8\xdfO\x8d\x97.&@'
tRp92
F0.096682071685791016
tp93
aa(lp94
(I6
g3
(g5
S'8\xdfO\x8d\x97.-@'
tRp95
F0.1118168830871582
tp96
a(I6
g3
(g5
S'(\xa9\x13\xd0D\xc8:@'
tRp97
F0.099531888961791992
tp98
a(I6
g3
(g5
S'(\xa9\x13\xd0D\xc8:@'
tRp99
F0.077898979187011719
tp100
a(I6
g3
(g5
S'(\xa9\x13\xd0D\xc8:@'
tRp101
F0.10359096527099609
tp102
a(I6
g3
(g5
S'(\xa9\x13\xd0D\xc8:@'
tRp103
F0.11184406280517578
tp104
a(I6
g3
(g5
S'\xc0\xfb\xa9\xf1\xd2M\xf8?'
tRp105
F4.5509729385375977
tp106
a(I6
g3
(g5
S'\xc0\xfb\xa9\xf1\xd2M\xf8?'
tRp107
F0.83337688446044922
tp108
a(I6
g3
(g5
S'(\xa9\x13\xd0D\xc8:@'
tRp109
F0.76089096069335938
tp110
a(I6
g3
(g5
S'(\xa9\x13\xd0D\xc8:@'
tRp111
F0.056740999221801758
tp112
a(I6
g3
(g5
S'(\xa9\x13\xd0D\xc8:@'
tRp113
F0.05988001823425293
tp114
a(I6
g3
(g5
S'P\xe3\xa5\x9b\xc4 \x13@'
tRp115
F5.5707089900970459
tp116
a(I6
g3
(g5
S'\xc0\xfb\xa9\xf1\xd2M\xf8?'
tRp117
F0.24935483932495117
tp118
a(I6
g3
(g5
S'\x00\x00\x00\x00\x00\x00\x00\x00'
tRp119
F0.23086786270141602
tp120
aa(lp121
(I6
g3
(g5
S'\x00\x00\x00\x00\x00\x00\x00\x00'
tRp122
F0.10586786270141602
tp123
aa(lp124
(I6
g3
(g5
S'\x00\x06\x81\x95C\x8b\xdc?'
tRp125
F0.11034798622131348
tp126
a(I6
g3
(g5
S'\x00\x06\x81\x95C\x8b\xdc?'
tRp127
F0.10059309005737305
tp128
a(I6
g3
(g5
S'\xe0\xa5\x9b\xc4 \x10<@'
tRp129
F0.10274100303649902
tp130
a(I6
g3
(g5
S'\xe0\xa5\x9b\xc4 \x10<@'
tRp131
F0.039865970611572266
tp132
a(I6
g3
(g5
S'\xe0\xa5\x9b\xc4 \x10<@'
tRp133
F0.042730093002319336
tp134
a(I6
g3
(g5
S'\xb8I\x0c\x02+G2@'
tRp135
F3.0653970241546631
tp136
a(I6
g3
(g5
S'\xb8I\x0c\x02+G2@'
tRp137
F0.057120084762573242
tp138
a(I6
g3
(g5
S'\xb8I\x0c\x02+G2@'
tRp139
F0.06125187873840332
tp140
a(I6
g3
(g5
S'\xb8I\x0c\x02+G2@'
tRp141
F0.063699960708618164
tp142
a(I6
g3
(g5
S'\xb8I\x0c\x02+G2@'
tRp143
F0.067945957183837891
tp144
a(I6
g3
(g5
S'\xb8I\x0c\x02+G2@'
tRp145
F3.9884438514709473
tp146
a(I6
g3
(g5
S'\xb8I\x0c\x02+G2@'
tRp147
F0.076464176177978516
tp148
a(I6
g3
(g5
S'\xb8I\x0c\x02+G2@'
tRp149
F0.079867124557495117
tp150
a(I6
g3
(g5
S'\xb8I\x0c\x02+G2@'
tRp151
F0.08351898193359375
tp152
a(I6
g3
(g5
S'\xb8I\x0c\x02+G2@'
tRp153
F0.088239192962646484
tp154
a(I6
g3
(g5
S'\xb8I\x0c\x02+G2@'
tRp155
F5.0870130062103271
tp156
a(I6
g3
(g5
S'\xb8I\x0c\x02+G2@'
tRp157
F0.093683958053588867
tp158
aa(lp159
(I6
g3
(g5
S'\x00\x00\x00\x00\x00\x00\x00\x00'
tRp160
F0.10712814331054688
tp161
aa(lp162
(I6
g3
(g5
S'\xe0z\x14\xaeG!?@'
tRp163
F0.11055183410644531
tp164
a(I6
g3
(g5
S'\x9e\xef\xa7\xc6KW@@'
tRp165
F0.10575103759765625
tp166
a(I6
g3
(g5
S'\x9e\xef\xa7\xc6KW@@'
tRp167
F0.10113215446472168
tp168
a(I6
g3
(g5
S'\x9e\xef\xa7\xc6KW@@'
tRp169
F0.14982295036315918
tp170
a(I6
g3
(g5
S'\x9e\xef\xa7\xc6KW@@'
tRp171
F0.14286518096923828
tp172
a(I6
g3
(g5
S'\x00\x00\x00\x00\x00\x00\x00\x00'
tRp173
F4.3683080673217773
tp174
aa(lp175
(I6
g3
(g5
S'\xe0$\x06\x81\x95\x83?@'
tRp176
F0.12553286552429199
tp177
a(I6
g3
(g5
S' \xdb\xf9~j<6@'
tRp178
F0.099554061889648438
tp179
a(I6
g3
(g5
S' \xdb\xf9~j<6@'
tRp180
F0.095440149307250977
tp181
a(I6
g3
(g5
S' \xdb\xf9~j<6@'
tRp182
F0.10011196136474609
tp183
a(I6
g3
(g5
S' \xdb\xf9~j<6@'
tRp184
F0.089433908462524414
tp185
a(I6
g3
(g5
S'\x00\x00\x00\x00\x00\x00\x00\x00'
tRp186
F3.4939000606536865
tp187
aa(lp188
(I6
g3
(g5
S'\x00\x00\x00\x00\x00\x00\x00\x00'
tRp189
F0.12476086616516113
tp190
aa(lp191
(I6
g3
(g5
S"0\xbb'\x0f\x0b\xb56@"
tRp192
F0.12210988998413086
tp193
a(I6
g3
(g5
S'z\x83/L\xa6ZD@'
tRp194
F0.087854146957397461
tp195
a(I6
g3
(g5
S'z\x83/L\xa6ZD@'
tRp196
F0.075935840606689453
tp197
a(I6
g3
(g5
S'z\x83/L\xa6ZD@'
tRp198
F0.038528919219970703
tp199
a(I6
g3
(g5
S'z\x83/L\xa6ZD@'
tRp200
F0.041568994522094727
tp201
a(I6
g3
(g5
S'\x00\x00\x00\x00\x00\x00\x00\x00'
tRp202
F4.2191181182861328
tp203
aa(lp204
(I6
g3
(g5
S"\x80\x95C\x8bl'!@"
tRp205
F0.12117099761962891
tp206
a(I6
g3
(g5
S"\x80\x95C\x8bl'!@"
tRp207
F0.08938288688659668
tp208
a(I6
g3
(g5
S'\x90\x18\x04V\x0e\xed*@'
tRp209
F0.10349917411804199
tp210
a(I6
g3
(g5
S'\x90\x18\x04V\x0e\xed*@'
tRp211
F0.03870391845703125
tp212
a(I6
g3
(g5
S'\x90\x18\x04V\x0e\xed*@'
tRp213
F0.042258024215698242
tp214
a(I6
g3
(g5
S'\x00\x00\x00\x00\x00\x00\x00\x00'
tRp215
F2.9502661228179932
tp216
aa(lp217
(I6
g3
(g5
S'\xd8\xa3p=\n\x97.@'
tRp218
F0.11509084701538086
tp219
a(I6
g3
(g5
S'\xa0\xef\xa7\xc6Kw @'
tRp220
F0.10046005249023438
tp221
a(I6
g3
(g5
S'\xa0\xef\xa7\xc6Kw @'
tRp222
F0.10839104652404785
tp223
a(I6
g3
(g5
S'\xa0\xef\xa7\xc6Kw @'
tRp224
F0.11090302467346191
tp225
a(I6
g3
(g5
S'\xa0\xef\xa7\xc6Kw @'
tRp226
F0.042396068572998047
tp227
a(I6
g3
(g5
S'@7\x89A`e\x1d@'
tRp228
F2.9156680107116699
tp229
a(I6
g3
(g5
S'@7\x89A`e\x1d@'
tRp230
F0.055830001831054688
tp231
a(I6
g3
(g5
S'@7\x89A`e\x1d@'
tRp232
F0.059231042861938477
tp233
a(I6
g3
(g5
S'@7\x89A`e\x1d@'
tRp234
F0.06258392333984375
tp235
a(I6
g3
(g5
S'@7\x89A`e\x1d@'
tRp236
F0.068886041641235352
tp237
a(I6
g3
(g5
S'@7\x89A`e\x1d@'
tRp238
F3.8995609283447266
tp239
a(I6
g3
(g5
S'@7\x89A`e\x1d@'
tRp240
F0.07361292839050293
tp241
a(I6
g3
(g5
S'@7\x89A`e\x1d@'
tRp242
F0.077799081802368164
tp243
a(I6
g3
(g5
S'@7\x89A`e\x1d@'
tRp244
F0.080667972564697266
tp245
a(I6
g3
(g5
S'@7\x89A`e\x1d@'
tRp246
F0.08405303955078125
tp247
a(I6
g3
(g5
S'@7\x89A`e\x1d@'
tRp248
F4.869675874710083
tp249
a(I6
g3
(g5
S'@7\x89A`e\x1d@'
tRp250
F0.092117786407470703
tp251
aa(lp252
(I6
g3
(g5
S"\xb8t\x93\x18\x04\x96'@"
tRp253
F0.11860895156860352
tp254
a(I6
g3
(g5
S'\x00\x00\x00\x00\x00\x00\x00\x00'
tRp255
F0.096022129058837891
tp256
aa(lp257
(I6
g3
(g5
S'\x80\x12\x83\xc0\xca\xa1\x08@'
tRp258
F0.11399698257446289
tp259
a(I6
g3
(g5
S'\x80h\x91\xed|?\x1c@'
tRp260
F0.089827775955200195
tp261
a(I6
g3
(g5
S'\x80h\x91\xed|?\x1c@'
tRp262
F0.10451316833496094
tp263
a(I6
g3
(g5
S'\x80h\x91\xed|?\x1c@'
tRp264
F0.052633047103881836
tp265
a(I6
g3
(g5
S'\x80h\x91\xed|?\x1c@'
tRp266
F0.053171157836914062
tp267
a(I6
g3
(g5
S'\x80h\x91\xed|?\x1c@'
tRp268
F3.3628289699554443
tp269
a(I6
g3
(g5
S'\x80h\x91\xed|?\x1c@'
tRp270
F0.050018072128295898
tp271
a(I6
g3
(g5
S'\x80h\x91\xed|?\x1c@'
tRp272
F0.053183078765869141
tp273
a(I6
g3
(g5
S'\x80h\x91\xed|?\x1c@'
tRp274
F0.056263923645019531
tp275
a(I6
g3
(g5
S'\x80h\x91\xed|?\x1c@'
tRp276
F0.059367895126342773
tp277
a(I6
g3
(g5
S'\x00V\x0e-\xb2\x9d\x01@'
tRp278
F4.1271560192108154
tp279
a(I6
g3
(g5
S'\x00V\x0e-\xb2\x9d\x01@'
tRp280
F0.12806415557861328
tp281
a(I6
g3
(g5
S'\x00V\x0e-\xb2\x9d\x01@'
tRp282
F0.21941399574279785
tp283
a(I6
g3
(g5
S'\x00V\x0e-\xb2\x9d\x01@'
tRp284
F0.12504005432128906
tp285
a(I6
g3
(g5
S'\x00V\x0e-\xb2\x9d\x01@'
tRp286
F0.13687801361083984
tp287
a(I6
g3
(g5
S'\x00V\x0e-\xb2\x9d\x01@'
tRp288
F5.5873911380767822
tp289
a(I6
g3
(g5
S'\x00V\x0e-\xb2\x9d\x01@'
tRp290
F0.13849711418151855
tp291
aa(lp292
(I6
g3
(g5
S"\xf8S\xe3\xa5\x9b\x04'@"
tRp293
F0.11155891418457031
tp294
a(I6
g3
(g5
S'\xe4\xa5\x9b\xc4 \xb09@'
tRp295
F0.095902919769287109
tp296
a(I6
g3
(g5
S'\xe4\xa5\x9b\xc4 \xb09@'
tRp297
F0.048591852188110352
tp298
a(I6
g3
(g5
S'\xe4\xa5\x9b\xc4 \xb09@'
tRp299
F0.051324844360351562
tp300
a(I6
g3
(g5
S'\xe4\xa5\x9b\xc4 \xb09@'
tRp301
F0.053928136825561523
tp302
a(I6
g3
(g5
S'\x00\x00\x00\x00\x00\x00\x00\x00'
tRp303
F4.4284019470214844
tp304
aa(lp305
(I6
g3
(g5
S'\xbaI\x0c\x02+\xc7>@'
tRp306
F0.11735820770263672
tp307
a(I6
g3
(g5
S'<\xdfO\x8d\x97\x0e3@'
tRp308
F0.11342787742614746
tp309
a(I6
g3
(g5
S'<\xdfO\x8d\x97\x0e3@'
tRp310
F0.045010089874267578
tp311
a(I6
g3
(g5
S'<\xdfO\x8d\x97\x0e3@'
tRp312
F0.048252105712890625
tp313
a(I6
g3
(g5
S'<\xdfO\x8d\x97\x0e3@'
tRp314
F0.044137001037597656
tp315
a(I6
g3
(g5
S'\x80\xed|?5^\x0e@'
tRp316
F2.9096379280090332
tp317
a(I6
g3
(g5
S'\x80\xed|?5^\x0e@'
tRp318
F0.05459284782409668
tp319
a(I6
g3
(g5
S'\x80\xed|?5^\x0e@'
tRp320
F0.057868003845214844
tp321
a(I6
g3
(g5
S'\x80\xed|?5^\x0e@'
tRp322
F0.061393976211547852
tp323
a(I6
g3
(g5
S'\x80\xed|?5^\x0e@'
tRp324
F0.064943075180053711
tp325
a(I6
g3
(g5
S'\x80\xed|?5^\x0e@'
tRp326
F3.9647088050842285
tp327
a(I6
g3
(g5
S'\x80\xed|?5^\x0e@'
tRp328
F0.072654008865356445
tp329
a(I6
g3
(g5
S'\x80\xed|?5^\x0e@'
tRp330
F0.076313972473144531
tp331
a(I6
g3
(g5
S'\x80\xed|?5^\x0e@'
tRp332
F0.079405069351196289
tp333
a(I6
g3
(g5
S'\x80\xed|?5^\x0e@'
tRp334
F0.083358049392700195
tp335
a(I6
g3
(g5
S'\x80\xed|?5^\x0e@'
tRp336
F4.958115816116333
tp337
a(I6
g3
(g5
S'\x80\xed|?5^\x0e@'
tRp338
F0.093713998794555664
tp339
aa(lp340
(I6
g3
(g5
S'(\x06\x81\x95C\x8b$@'
tRp341
F0.12105488777160645
tp342
a(I6
g3
(g5
S'(\x06\x81\x95C\x8b$@'
tRp343
F0.032016992568969727
tp344
a(I6
g3
(g5
S'(\x06\x81\x95C\x8b$@'
tRp345
F0.036679983139038086
tp346
a(I6
g3
(g5
S'(\x06\x81\x95C\x8b$@'
tRp347
F0.039369106292724609
tp348
a(I6
g3
(g5
S'(\x06\x81\x95C\x8b$@'
tRp349
F0.044348001480102539
tp350
a(I6
g3
(g5
S'\x00\x00\x00\x00\x00\x00\x00\x00'
tRp351
F3.9419481754302979
tp352
aa.