(lp1
(lp2
(I3
cnumpy.core.multiarray
scalar
p3
(cnumpy
dtype
p4
(S'f8'
I0
I1
tRp5
(I3
S'<'
NNNI-1
I-1
I0
tbS'\xc0\xf5(\\\x8f\xc23@'
tRp6
F0.035984992980957031
tp7
a(I3
g3
(g5
S'\xd0x\xe9&1\xf0Y@'
tRp8
F0.082926034927368164
tp9
a(I3
g3
(g5
S'\xc0 \xb0rhQ2@'
tRp10
F0.12182712554931641
tp11
a(I3
g3
(g5
S'\x08\xd7\xa3p=ZW@'
tRp12
F0.048395156860351562
tp13
a(I3
g3
(g5
S'\x08\xd7\xa3p=ZW@'
tRp14
F0.047086954116821289
tp15
a(I3
g3
(g5
S'\xc0\xf5(\\\x8f\xc23@'
tRp16
F4.2704508304595947
tp17
a(I3
g3
(g5
S'\x00\x00\x00\x00\x00\x00\x00\x00'
tRp18
F0.22855687141418457
tp19
aa(lp20
(I3
g3
(g5
S'0\xdd$\x06\x81eD@'
tRp21
F0.035609960556030273
tp22
a(I3
g3
(g5
S'p=\n\xd7\xa3\x900@'
tRp23
F0.078171014785766602
tp24
a(I3
g3
(g5
S'p=\n\xd7\xa3\x900@'
tRp25
F0.060353994369506836
tp26
a(I3
g3
(g5
S'F\xb6\xf3\xfd\xd4PY@'
tRp27
F0.095010995864868164
tp28
a(I3
g3
(g5
S'F\xb6\xf3\xfd\xd4PY@'
tRp29
F0.046582937240600586
tp30
a(I3
g3
(g5
S'\x00\x00\x00\x00\x00\x00\x00\x00'
tRp31
F4.3120739459991455
tp32
aa(lp33
(I3
g3
(g5
S'\xee|?5^\x0ee@'
tRp34
F0.035676002502441406
tp35
a(I3
g3
(g5
S'0\x89A`\xe5\xf00@'
tRp36
F0.083235979080200195
tp37
a(I3
g3
(g5
S'\x18\xd9\xce\xf7S#E@'
tRp38
F0.11738896369934082
tp39
a(I3
g3
(g5
S'\x18\xd9\xce\xf7S#E@'
tRp40
F0.098311901092529297
tp41
a(I3
g3
(g5
S'\x18\xd9\xce\xf7S#E@'
tRp42
F0.082050085067749023
tp43
a(I3
g3
(g5
S'\x18\xd9\xce\xf7S#E@'
tRp44
F3.8850400447845459
tp45
a(I3
g3
(g5
S'\x18\xd9\xce\xf7S#E@'
tRp46
F0.095538139343261719
tp47
a(I3
g3
(g5
S'\x18\xd9\xce\xf7S#E@'
tRp48
F0.10762596130371094
tp49
a(I3
g3
(g5
S'\x18\xd9\xce\xf7S#E@'
tRp50
F0.083349943161010742
tp51
a(I3
g3
(g5
S'\x18\xd9\xce\xf7S#E@'
tRp52
F0.091201066970825195
tp53
a(I3
g3
(g5
S'X\xb8\x1e\x85\xeb\xb1@@'
tRp54
F4.3550760746002197
tp55
a(I3
g3
(g5
S'x\x12\x83\xc0\xca\x91C@'
tRp56
F0.14330315589904785
tp57
a(I3
g3
(g5
S'X\xb8\x1e\x85\xeb\xb1@@'
tRp58
F0.2894890308380127
tp59
a(I3
g3
(g5
S'\xc0I\x0c\x02+\x07#@'
tRp60
F7.8219308853149414
tp61
a(I3
g3
(g5
S'\xc0I\x0c\x02+\x07#@'
tRp62
F3.9102129936218262
tp63
a(I3
g3
(g5
S'\xc0I\x0c\x02+\x07#@'
tRp64
F7.0232658386230469
tp65
a(I3
g3
(g5
S'\xc0I\x0c\x02+\x07#@'
tRp66
F0.25446200370788574
tp67
a(I3
g3
(g5
S'\xc0I\x0c\x02+\x07#@'
tRp68
F0.26813912391662598
tp69
a(I3
g3
(g5
S'\xc0I\x0c\x02+\x07#@'
tRp70
F0.26730084419250488
tp71
a(I3
g3
(g5
S'\xc0I\x0c\x02+\x07#@'
tRp72
F0.26753592491149902
tp73
a(I3
g3
(g5
S'\xc0I\x0c\x02+\x07#@'
tRp74
F8.2062630653381348
tp75
a(I3
g3
(g5
S'\xc0I\x0c\x02+\x07#@'
tRp76
F0.29688096046447754
tp77
a(I3
g3
(g5
S'\xc0I\x0c\x02+\x07#@'
tRp78
F0.29430413246154785
tp79
a(I3
g3
(g5
S'\xc0I\x0c\x02+\x07#@'
tRp80
F0.29880499839782715
tp81
a(I3
g3
(g5
S'\xc0I\x0c\x02+\x07#@'
tRp82
F0.30089306831359863
tp83
a(I3
g3
(g5
S'\xc0I\x0c\x02+\x07#@'
tRp84
F8.4949820041656494
tp85
a(I3
g3
(g5
S'\xc0I\x0c\x02+\x07#@'
tRp86
F0.32170319557189941
tp87
a(I3
g3
(g5
S'\xc0I\x0c\x02+\x07#@'
tRp88
F0.33835196495056152
tp89
a(I3
g3
(g5
S'\xc0I\x0c\x02+\x07#@'
tRp90
F0.32752418518066406
tp91
a(I3
g3
(g5
S'\xc0I\x0c\x02+\x07#@'
tRp92
F0.32823896408081055
tp93
a(I3
g3
(g5
S'\xc0I\x0c\x02+\x07#@'
tRp94
F9.3085470199584961
tp95
a(I3
g3
(g5
S'\xc0I\x0c\x02+\x07#@'
tRp96
F0.27214503288269043
tp97
a(I3
g3
(g5
S'\xc0I\x0c\x02+\x07#@'
tRp98
F0.2729341983795166
tp99
a(I3
g3
(g5
S'\xc0I\x0c\x02+\x07#@'
tRp100
F0.27635884284973145
tp101
a(I3
g3
(g5
S'\xc0I\x0c\x02+\x07#@'
tRp102
F0.28029108047485352
tp103
a(I3
g3
(g5
S'\xc0I\x0c\x02+\x07#@'
tRp104
F9.6166908740997314
tp105
a(I3
g3
(g5
S'\xc0I\x0c\x02+\x07#@'
tRp106
F0.3654179573059082
tp107
a(I3
g3
(g5
S'\xc0I\x0c\x02+\x07#@'
tRp108
F0.36354684829711914
tp109
a(I3
g3
(g5
S'\xc0I\x0c\x02+\x07#@'
tRp110
F0.36697602272033691
tp111
a(I3
g3
(g5
S'\xc0I\x0c\x02+\x07#@'
tRp112
F0.36787796020507812
tp113
a(I3
g3
(g5
S'\xc0I\x0c\x02+\x07#@'
tRp114
F10.326205968856812
tp115
a(I3
g3
(g5
S'\xc0I\x0c\x02+\x07#@'
tRp116
F0.33101701736450195
tp117
a(I3
g3
(g5
S'\xc0I\x0c\x02+\x07#@'
tRp118
F0.33366990089416504
tp119
a(I3
g3
(g5
S'\xc0I\x0c\x02+\x07#@'
tRp120
F0.33343291282653809
tp121
a(I3
g3
(g5
S'\xc0I\x0c\x02+\x07#@'
tRp122
F0.35139703750610352
tp123
a(I3
g3
(g5
S'\xc0I\x0c\x02+\x07#@'
tRp124
F10.808840990066528
tp125
a(I3
g3
(g5
S'\xc0I\x0c\x02+\x07#@'
tRp126
F0.34002900123596191
tp127
a(I3
g3
(g5
S'\xc0I\x0c\x02+\x07#@'
tRp128
F0.36678910255432129
tp129
a(I3
g3
(g5
S'\xc0I\x0c\x02+\x07#@'
tRp130
F0.34347081184387207
tp131
a(I3
g3
(g5
S'\xc0I\x0c\x02+\x07#@'
tRp132
F0.33945202827453613
tp133
aa(lp134
(I3
g3
(g5
S'\x90\x97n\x12\x83\x00I@'
tRp135
F0.036123991012573242
tp136
a(I3
g3
(g5
S'\x00\x00\x00\x00\x00\x00\x00\x00'
tRp137
F0.086424827575683594
tp138
aa(lp139
(I3
g3
(g5
S'\xca2\xc4\xb1.\xa6Z@'
tRp140
F0.036121129989624023
tp141
a(I3
g3
(g5
S'`\x91\xed|?\x95>@'
tRp142
F0.080122947692871094
tp143
a(I3
g3
(g5
S'\xbct\x93\x18\x04\xb0e@'
tRp144
F0.09235382080078125
tp145
a(I3
g3
(g5
S'\xbct\x93\x18\x04\xb0e@'
tRp146
F0.045136928558349609
tp147
a(I3
g3
(g5
S'\xbct\x93\x18\x04\xb0e@'
tRp148
F0.047784805297851562
tp149
a(I3
g3
(g5
S' \xdb\xf9~j\x9c4@'
tRp150
F3.7357368469238281
tp151
a(I3
g3
(g5
S'\x00\x00\x00\x00\x00\x00\x00\x00'
tRp152
F0.10033202171325684
tp153
aa(lp154
(I3
g3
(g5
S'\x88l\xe7\xfb\xa9YM@'
tRp155
F0.035874128341674805
tp156
a(I3
g3
(g5
S'\x96C\x8bl\xe7OV@'
tRp157
F0.082144021987915039
tp158
a(I3
g3
(g5
S'\x18/\xdd$\x06\x89K@'
tRp159
F0.11451196670532227
tp160
a(I3
g3
(g5
S'\x14\xaeG\xe1z|Q@'
tRp161
F0.084929943084716797
tp162
a(I3
g3
(g5
S'\x14\xaeG\xe1z|Q@'
tRp163
F0.10105490684509277
tp164
a(I3
g3
(g5
S'\x00\xd7\xa3p=\n\r@'
tRp165
F4.6763730049133301
tp166
a(I3
g3
(g5
S'\x00\xd7\xa3p=\n\r@'
tRp167
F0.052381992340087891
tp168
a(I3
g3
(g5
S'\x00\xd7\xa3p=\n\r@'
tRp169
F0.055589914321899414
tp170
a(I3
g3
(g5
S'\x00\xd7\xa3p=\n\r@'
tRp171
F0.057624101638793945
tp172
a(I3
g3
(g5
S'\x00\xd7\xa3p=\n\r@'
tRp173
F0.059298992156982422
tp174
a(I3
g3
(g5
S'\x00\xd7\xa3p=\n\r@'
tRp175
F4.0116958618164062
tp176
a(I3
g3
(g5
S'\x00\xd7\xa3p=\n\r@'
tRp177
F0.06170201301574707
tp178
a(I3
g3
(g5
S'\x00\xd7\xa3p=\n\r@'
tRp179
F0.063147068023681641
tp180
a(I3
g3
(g5
S'\x00\xd7\xa3p=\n\r@'
tRp181
F0.064651012420654297
tp182
a(I3
g3
(g5
S'\x00\xd7\xa3p=\n\r@'
tRp183
F0.066061019897460938
tp184
a(I3
g3
(g5
S'\x00\xd7\xa3p=\n\r@'
tRp185
F4.5980229377746582
tp186
a(I3
g3
(g5
S'\x00\xd7\xa3p=\n\r@'
tRp187
F0.069259881973266602
tp188
a(I3
g3
(g5
S'\x00\xd7\xa3p=\n\r@'
tRp189
F0.070841073989868164
tp190
a(I3
g3
(g5
S'\x00\xd7\xa3p=\n\r@'
tRp191
F0.072295904159545898
tp192
a(I3
g3
(g5
S'\x00\xd7\xa3p=\n\r@'
tRp193
F0.073710918426513672
tp194
a(I3
g3
(g5
S'\x00\xd7\xa3p=\n\r@'
tRp195
F5.1902589797973633
tp196
a(I3
g3
(g5
S'\x00\xd7\xa3p=\n\r@'
tRp197
F0.074680805206298828
tp198
a(I3
g3
(g5
S'\x00\xd7\xa3p=\n\r@'
tRp199
F0.076230049133300781
tp200
a(I3
g3
(g5
S'\x00\xd7\xa3p=\n\r@'
tRp201
F0.077942848205566406
tp202
a(I3
g3
(g5
S'\x00\xd7\xa3p=\n\r@'
tRp203
F0.079250812530517578
tp204
a(I3
g3
(g5
S'\x14\xaeG\xe1z|Q@'
tRp205
F5.7571280002593994
tp206
a(I3
g3
(g5
S'\x14\xaeG\xe1z|Q@'
tRp207
F0.07223200798034668
tp208
a(I3
g3
(g5
S'\x14\xaeG\xe1z|Q@'
tRp209
F0.074021100997924805
tp210
a(I3
g3
(g5
S'\x14\xaeG\xe1z|Q@'
tRp211
F0.0751190185546875
tp212
a(I3
g3
(g5
S'\x14\xaeG\xe1z|Q@'
tRp213
F0.076163053512573242
tp214
a(I3
g3
(g5
S'\x00\xd7\xa3p=\n\r@'
tRp215
F6.368635892868042
tp216
a(I3
g3
(g5
S'\x00\xd7\xa3p=\n\r@'
tRp217
F0.089839935302734375
tp218
a(I3
g3
(g5
S'\x00\xd7\xa3p=\n\r@'
tRp219
F0.091274023056030273
tp220
a(I3
g3
(g5
S'\x00\xd7\xa3p=\n\r@'
tRp221
F0.093142986297607422
tp222
a(I3
g3
(g5
S'\x00\xd7\xa3p=\n\r@'
tRp223
F0.09454798698425293
tp224
a(I3
g3
(g5
S'\x00\xd7\xa3p=\n\r@'
tRp225
F7.0937759876251221
tp226
a(I3
g3
(g5
S'\x00\xd7\xa3p=\n\r@'
tRp227
F0.099792957305908203
tp228
a(I3
g3
(g5
S'\x00\xd7\xa3p=\n\r@'
tRp229
F0.10170197486877441
tp230
a(I3
g3
(g5
S'\x00\xd7\xa3p=\n\r@'
tRp231
F0.10309886932373047
tp232
a(I3
g3
(g5
S'\x00\xd7\xa3p=\n\r@'
tRp233
F0.10403585433959961
tp234
a(I3
g3
(g5
S'\x00\xd7\xa3p=\n\r@'
tRp235
F7.5257251262664795
tp236
a(I3
g3
(g5
S'\x00\xd7\xa3p=\n\r@'
tRp237
F0.10282683372497559
tp238
a(I3
g3
(g5
S'\x00\xd7\xa3p=\n\r@'
tRp239
F0.10423588752746582
tp240
a(I3
g3
(g5
S'\x00\xd7\xa3p=\n\r@'
tRp241
F0.10617899894714355
tp242
a(I3
g3
(g5
S'\x00\xd7\xa3p=\n\r@'
tRp243
F0.10761094093322754
tp244
a(I3
g3
(g5
S'\x00\xd7\xa3p=\n\r@'
tRp245
F8.0754718780517578
tp246
a(I3
g3
(g5
S'\x00\xd7\xa3p=\n\r@'
tRp247
F0.11500096321105957
tp248
a(I3
g3
(g5
S'\x00\xd7\xa3p=\n\r@'
tRp249
F0.11666011810302734
tp250
a(I3
g3
(g5
S'\x00\xd7\xa3p=\n\r@'
tRp251
F0.11789178848266602
tp252
a(I3
g3
(g5
S'\x00\xd7\xa3p=\n\r@'
tRp253
F0.11994409561157227
tp254
aa(lp255
(I3
g3
(g5
S'\x00V\x0e-\xb2eW@'
tRp256
F0.035712003707885742
tp257
a(I3
g3
(g5
S'\xe0\xd0"\xdb\xf9NK@'
tRp258
F0.07613682746887207
tp259
a(I3
g3
(g5
S'\x80\xc0\xca\xa1Ev(@'
tRp260
F0.092533111572265625
tp261
a(I3
g3
(g5
S'\x80\xc0\xca\xa1Ev(@'
tRp262
F0.086688041687011719
tp263
a(I3
g3
(g5
S'\x80\xc0\xca\xa1Ev(@'
tRp264
F0.091468095779418945
tp265
a(I3
g3
(g5
S'\x10\xaeG\xe1z$F@'
tRp266
F4.1031279563903809
tp267
a(I3
g3
(g5
S'\x10\xaeG\xe1z$F@'
tRp268
F0.085814952850341797
tp269
a(I3
g3
(g5
S'\x10\xaeG\xe1z$F@'
tRp270
F0.061085939407348633
tp271
a(I3
g3
(g5
S'\x10\xaeG\xe1z$F@'
tRp272
F0.062707901000976562
tp273
a(I3
g3
(g5
S'\x10\xaeG\xe1z$F@'
tRp274
F0.064017057418823242
tp275
a(I3
g3
(g5
S'\x10\xaeG\xe1z$F@'
tRp276
F4.0302090644836426
tp277
a(I3
g3
(g5
S'\x10\xaeG\xe1z$F@'
tRp278
F0.062994956970214844
tp279
a(I3
g3
(g5
S'\x10\xaeG\xe1z$F@'
tRp280
F0.064347982406616211
tp281
a(I3
g3
(g5
S'\x10\xaeG\xe1z$F@'
tRp282
F0.065841197967529297
tp283
a(I3
g3
(g5
S'\x10\xaeG\xe1z$F@'
tRp284
F0.067492961883544922
tp285
a(I3
g3
(g5
S'\x10\xaeG\xe1z$F@'
tRp286
F4.6546988487243652
tp287
a(I3
g3
(g5
S'\x10\xaeG\xe1z$F@'
tRp288
F0.069229841232299805
tp289
a(I3
g3
(g5
S'\x10\xaeG\xe1z$F@'
tRp290
F0.07219696044921875
tp291
a(I3
g3
(g5
S'\x10\xaeG\xe1z$F@'
tRp292
F0.073691844940185547
tp293
a(I3
g3
(g5
S'\x10\xaeG\xe1z$F@'
tRp294
F0.074980020523071289
tp295
a(I3
g3
(g5
S'\x10\xaeG\xe1z$F@'
tRp296
F5.2681369781494141
tp297
a(I3
g3
(g5
S'\x10\xaeG\xe1z$F@'
tRp298
F0.081501007080078125
tp299
a(I3
g3
(g5
S'\x10\xaeG\xe1z$F@'
tRp300
F0.082920074462890625
tp301
a(I3
g3
(g5
S'\x10\xaeG\xe1z$F@'
tRp302
F0.084319114685058594
tp303
a(I3
g3
(g5
S'\x10\xaeG\xe1z$F@'
tRp304
F0.085973978042602539
tp305
a(I3
g3
(g5
S'\x10\xaeG\xe1z$F@'
tRp306
F5.8460929393768311
tp307
a(I3
g3
(g5
S'\x10\xaeG\xe1z$F@'
tRp308
F0.086447954177856445
tp309
a(I3
g3
(g5
S'\x10\xaeG\xe1z$F@'
tRp310
F0.21480989456176758
tp311
a(I3
g3
(g5
S'\x10\xaeG\xe1z$F@'
tRp312
F0.089932918548583984
tp313
a(I3
g3
(g5
S'\x10\xaeG\xe1z$F@'
tRp314
F0.091017007827758789
tp315
a(I3
g3
(g5
S'\x10\xaeG\xe1z$F@'
tRp316
F6.4490900039672852
tp317
a(I3
g3
(g5
S'\x10\xaeG\xe1z$F@'
tRp318
F0.094041824340820312
tp319
a(I3
g3
(g5
S'\x10\xaeG\xe1z$F@'
tRp320
F0.095509052276611328
tp321
a(I3
g3
(g5
S'\x10\xaeG\xe1z$F@'
tRp322
F0.097337961196899414
tp323
a(I3
g3
(g5
S'\x10\xaeG\xe1z$F@'
tRp324
F0.098964929580688477
tp325
a(I3
g3
(g5
S'\x10\xaeG\xe1z$F@'
tRp326
F7.0367190837860107
tp327
a(I3
g3
(g5
S'\x10\xaeG\xe1z$F@'
tRp328
F0.10043096542358398
tp329
a(I3
g3
(g5
S'\x10\xaeG\xe1z$F@'
tRp330
F0.1019289493560791
tp331
a(I3
g3
(g5
S'\x10\xaeG\xe1z$F@'
tRp332
F0.10341906547546387
tp333
a(I3
g3
(g5
S'\x10\xaeG\xe1z$F@'
tRp334
F0.1053459644317627
tp335
a(I3
g3
(g5
S'\x10\xaeG\xe1z$F@'
tRp336
F7.6081688404083252
tp337
a(I3
g3
(g5
S'\x10\xaeG\xe1z$F@'
tRp338
F0.10799598693847656
tp339
a(I3
g3
(g5
S'\x10\xaeG\xe1z$F@'
tRp340
F0.10988903045654297
tp341
a(I3
g3
(g5
S'\x10\xaeG\xe1z$F@'
tRp342
F0.11105895042419434
tp343
a(I3
g3
(g5
S'\x10\xaeG\xe1z$F@'
tRp344
F0.11275196075439453
tp345
a(I3
g3
(g5
S'\x10\xaeG\xe1z$F@'
tRp346
F8.2972450256347656
tp347
a(I3
g3
(g5
S'\x10\xaeG\xe1z$F@'
tRp348
F0.11488199234008789
tp349
a(I3
g3
(g5
S'\x10\xaeG\xe1z$F@'
tRp350
F0.11637020111083984
tp351
a(I3
g3
(g5
S'\x10\xaeG\xe1z$F@'
tRp352
F0.11813688278198242
tp353
a(I3
g3
(g5
S'\x10\xaeG\xe1z$F@'
tRp354
F0.11912298202514648
tp355
aa(lp356
(I3
g3
(g5
S'\xa8\xf1\xd2Mb@B@'
tRp357
F0.035673856735229492
tp358
a(I3
g3
(g5
S'\x80\xe9&1\x08\xec7@'
tRp359
F0.084164142608642578
tp360
a(I3
g3
(g5
S'\xc0\xca\xa1E\xb6S@@'
tRp361
F0.1132349967956543
tp362
a(I3
g3
(g5
S'\xa3E\xb6\xf3\xfd\x18e@'
tRp363
F0.074792146682739258
tp364
a(I3
g3
(g5
S'\xa3E\xb6\xf3\xfd\x18e@'
tRp365
F0.089581966400146484
tp366
a(I3
g3
(g5
S'\x00\x00\x00\x00\x00\x00\x00\x00'
tRp367
F5.0247759819030762
tp368
aa(lp369
(I3
g3
(g5
S'tq\x1b\r\xe0\xf9T@'
tRp370
F0.03587794303894043
tp371
a(I3
g3
(g5
S'\xaa\x1cZd;\x8fV@'
tRp372
F0.087618827819824219
tp373
a(I3
g3
(g5
S'\x00\x00\x00\x00\x00\x00\x00\x00'
tRp374
F0.10315799713134766
tp375
aa(lp376
(I3
g3
(g5
S'\x10\x04V\x0e-20@'
tRp377
F0.035775899887084961
tp378
a(I3
g3
(g5
S'\xa0\x1cZd;\x9f(@'
tRp379
F0.078781843185424805
tp380
a(I3
g3
(g5
S'\x16HP\xfc\x18\x03V@'
tRp381
F0.11625504493713379
tp382
a(I3
g3
(g5
S'\x16HP\xfc\x18\x03V@'
tRp383
F0.044468164443969727
tp384
a(I3
g3
(g5
S'\x16HP\xfc\x18\x03V@'
tRp385
F0.046432018280029297
tp386
a(I3
g3
(g5
S'`)\xcb\x10\xc7\xca9@'
tRp387
F3.4748749732971191
tp388
a(I3
g3
(g5
S'\x80\x14\xaeG\xe1z\x1b@'
tRp389
F0.14694786071777344
tp390
a(I3
g3
(g5
S'\x00\xaeG\xe1z\x14\x0f@'
tRp391
F0.21309900283813477
tp392
a(I3
g3
(g5
S'\x00\xaeG\xe1z\x14\x0f@'
tRp393
F0.21956706047058105
tp394
a(I3
g3
(g5
S'\x00\xaeG\xe1z\x14\x0f@'
tRp395
F0.26389384269714355
tp396
a(I3
g3
(g5
S'\x00\xaeG\xe1z\x14\x0f@'
tRp397
F7.0304012298583984
tp398
a(I3
g3
(g5
S'\x00\xaeG\xe1z\x14\x0f@'
tRp399
F0.48940491676330566
tp400
a(I3
g3
(g5
S'\x00\xaeG\xe1z\x14\x0f@'
tRp401
F3.6018800735473633
tp402
a(I3
g3
(g5
S'\x00\xaeG\xe1z\x14\x0f@'
tRp403
F3.5611739158630371
tp404
a(I3
g3
(g5
S'\x00\xaeG\xe1z\x14\x0f@'
tRp405
F0.66365718841552734
tp406
a(I3
g3
(g5
S'\x00\x7fj\xbct\x131@'
tRp407
F7.6827759742736816
tp408
a(I3
g3
(g5
S'\x00\xaeG\xe1z\x14\x0f@'
tRp409
F0.25510191917419434
tp410
a(I3
g3
(g5
S'\x00\xaeG\xe1z\x14\x0f@'
tRp411
F0.30264997482299805
tp412
a(I3
g3
(g5
S'\x00\xaeG\xe1z\x14\x0f@'
tRp413
F0.40484404563903809
tp414
a(I3
g3
(g5
S'\x00\xaeG\xe1z\x14\x0f@'
tRp415
F0.47935009002685547
tp416
a(I3
g3
(g5
S'\x00\xaeG\xe1z\x14\x0f@'
tRp417
F8.3095250129699707
tp418
a(I3
g3
(g5
S'\x00\xaeG\xe1z\x14\x0f@'
tRp419
F0.24109315872192383
tp420
a(I3
g3
(g5
S'\x00\xaeG\xe1z\x14\x0f@'
tRp421
F0.2443079948425293
tp422
a(I3
g3
(g5
S'\x00\xaeG\xe1z\x14\x0f@'
tRp423
F0.25023198127746582
tp424
a(I3
g3
(g5
S'\x00\xaeG\xe1z\x14\x0f@'
tRp425
F0.24322295188903809
tp426
a(I3
g3
(g5
S'\x00\xaeG\xe1z\x14\x0f@'
tRp427
F8.7971580028533936
tp428
a(I3
g3
(g5
S'\x00\xaeG\xe1z\x14\x0f@'
tRp429
F0.24247097969055176
tp430
a(I3
g3
(g5
S'\x00\xaeG\xe1z\x14\x0f@'
tRp431
F0.25428104400634766
tp432
a(I3
g3
(g5
S'\x00\xaeG\xe1z\x14\x0f@'
tRp433
F0.25035309791564941
tp434
a(I3
g3
(g5
S'\x00\xaeG\xe1z\x14\x0f@'
tRp435
F0.25246477127075195
tp436
a(I3
g3
(g5
S'\x80\x14\xaeG\xe1z\x1b@'
tRp437
F9.8195619583129883
tp438
a(I3
g3
(g5
S'\x80\x14\xaeG\xe1z\x1b@'
tRp439
F0.36511993408203125
tp440
a(I3
g3
(g5
S'\x80\x14\xaeG\xe1z\x1b@'
tRp441
F0.29513382911682129
tp442
a(I3
g3
(g5
S'\x80\x14\xaeG\xe1z\x1b@'
tRp443
F0.33667993545532227
tp444
a(I3
g3
(g5
S'\x80\x14\xaeG\xe1z\x1b@'
tRp445
F0.33178806304931641
tp446
a(I3
g3
(g5
S'\x00\xaeG\xe1z\x14\x0f@'
tRp447
F9.8713369369506836
tp448
a(I3
g3
(g5
S'\x00\xaeG\xe1z\x14\x0f@'
tRp449
F0.37053990364074707
tp450
a(I3
g3
(g5
S'\x00\xaeG\xe1z\x14\x0f@'
tRp451
F0.37379598617553711
tp452
a(I3
g3
(g5
S'\x00\xaeG\xe1z\x14\x0f@'
tRp453
F0.36325597763061523
tp454
a(I3
g3
(g5
S'\x00\xaeG\xe1z\x14\x0f@'
tRp455
F0.38176393508911133
tp456
a(I3
g3
(g5
S'\x00\xaeG\xe1z\x14\x0f@'
tRp457
F10.722728967666626
tp458
a(I3
g3
(g5
S'\x00\xaeG\xe1z\x14\x0f@'
tRp459
F0.29178118705749512
tp460
a(I3
g3
(g5
S'\x00\xaeG\xe1z\x14\x0f@'
tRp461
F0.26203083992004395
tp462
a(I3
g3
(g5
S'\x00\xaeG\xe1z\x14\x0f@'
tRp463
F0.28899288177490234
tp464
a(I3
g3
(g5
S'\x00\xaeG\xe1z\x14\x0f@'
tRp465
F0.30168509483337402
tp466
a(I3
g3
(g5
S'\x00\xaeG\xe1z\x14\x0f@'
tRp467
F10.762133836746216
tp468
a(I3
g3
(g5
S'\x00\xaeG\xe1z\x14\x0f@'
tRp469
F0.32956790924072266
tp470
a(I3
g3
(g5
S'\x00\xaeG\xe1z\x14\x0f@'
tRp471
F0.32195901870727539
tp472
a(I3
g3
(g5
S'\x00\xaeG\xe1z\x14\x0f@'
tRp473
F0.33590984344482422
tp474
a(I3
g3
(g5
S'\x00\xaeG\xe1z\x14\x0f@'
tRp475
F0.32092404365539551
tp476
aa(lp477
(I3
g3
(g5
S'\xbct\x93\x18\x04.W@'
tRp478
F0.036002874374389648
tp479
a(I3
g3
(g5
S' \x85\xebQ\xb8.\\@'
tRp480
F0.07484889030456543
tp481
a(I3
g3
(g5
S'\x8cA`\xe5\xd0\xd2V@'
tRp482
F0.10064816474914551
tp483
a(I3
g3
(g5
S'\x8cA`\xe5\xd0\xd2V@'
tRp484
F0.044831037521362305
tp485
a(I3
g3
(g5
S'\x8cA`\xe5\xd0\xd2V@'
tRp486
F0.046720027923583984
tp487
a(I3
g3
(g5
S'\x90\xc2\xf5(\\\x7fX@'
tRp488
F4.2675728797912598
tp489
a(I3
g3
(g5
S'\x90\xc2\xf5(\\\x7fX@'
tRp490
F0.044144868850708008
tp491
a(I3
g3
(g5
S'\x90\xc2\xf5(\\\x7fX@'
tRp492
F0.045705080032348633
tp493
a(I3
g3
(g5
S'\x90\xc2\xf5(\\\x7fX@'
tRp494
F0.046961069107055664
tp495
a(I3
g3
(g5
S'\x90\xc2\xf5(\\\x7fX@'
tRp496
F0.048618078231811523
tp497
a(I3
g3
(g5
S'\x00V\x0e-\xb2\x9d*@'
tRp498
F4.3597512245178223
tp499
a(I3
g3
(g5
S'\x00\x00\x00\x00\x00\x00\x00\x00'
tRp500
F0.11199688911437988
tp501
aa(lp502
(I3
g3
(g5
S'\x00\xd5x\xe9&\x91E@'
tRp503
F0.03572392463684082
tp504
a(I3
g3
(g5
S'\x00\xd5x\xe9&\x91E@'
tRp505
F0.072294950485229492
tp506
a(I3
g3
(g5
S'\xc0\x9d\xef\xa7\xc6K=@'
tRp507
F0.083266019821166992
tp508
a(I3
g3
(g5
S'\xc0\x9d\xef\xa7\xc6K=@'
tRp509
F0.045259952545166016
tp510
a(I3
g3
(g5
S'\xc0\x9d\xef\xa7\xc6K=@'
tRp511
F0.048187971115112305
tp512
a(I3
g3
(g5
S'\xc0Mb\x10Xy/@'
tRp513
F3.7219610214233398
tp514
a(I3
g3
(g5
S'\xc0Mb\x10Xy/@'
tRp515
F0.043961048126220703
tp516
a(I3
g3
(g5
S'\xc0Mb\x10Xy/@'
tRp517
F0.045325040817260742
tp518
a(I3
g3
(g5
S'\xc0Mb\x10Xy/@'
tRp519
F0.046701908111572266
tp520
a(I3
g3
(g5
S'\xc0Mb\x10Xy/@'
tRp521
F0.048753023147583008
tp522
a(I3
g3
(g5
S'\xc0Mb\x10Xy/@'
tRp523
F4.2511100769042969
tp524
a(I3
g3
(g5
S'\xc0Mb\x10Xy/@'
tRp525
F0.051701068878173828
tp526
a(I3
g3
(g5
S'\xc0Mb\x10Xy/@'
tRp527
F0.052458047866821289
tp528
a(I3
g3
(g5
S'\xc0Mb\x10Xy/@'
tRp529
F0.053910970687866211
tp530
a(I3
g3
(g5
S'\xc0Mb\x10Xy/@'
tRp531
F0.055217981338500977
tp532
a(I3
g3
(g5
S'\x00j\xbct\x93\x18\xe0?'
tRp533
F4.9296450614929199
tp534
a(I3
g3
(g5
S'\x00j\xbct\x93\x18\xe0?'
tRp535
F0.29645609855651855
tp536
a(I3
g3
(g5
S'\x00\x00\x00\x00\x00\x00\x00\x00'
tRp537
F3.6821548938751221
tp538
aa(lp539
(I3
g3
(g5
S'\x08+\x87\x16\xd9\xdeG@'
tRp540
F0.035773992538452148
tp541
a(I3
g3
(g5
S'\xdc\xce\xf7S\xe35K@'
tRp542
F0.095109939575195312
tp543
a(I3
g3
(g5
S'\x08+\x87\x16\xd9\xdeG@'
tRp544
F0.041420936584472656
tp545
a(I3
g3
(g5
S'X\x0e-\xb2\x9d\x17R@'
tRp546
F0.10283398628234863
tp547
a(I3
g3
(g5
S'X\x0e-\xb2\x9d\x17R@'
tRp548
F0.096032142639160156
tp549
a(I3
g3
(g5
S'H`\xe5\xd0"\xcbC@'
tRp550
F4.7231829166412354
tp551
a(I3
g3
(g5
S'\x00T\xe3\xa5\x9b\x04"@'
tRp552
F0.23136997222900391
tp553
a(I3
g3
(g5
S'\x80\xb0rh\x91\xed\x04@'
tRp554
F0.21137404441833496
tp555
a(I3
g3
(g5
S'\x80\xb0rh\x91\xed\x04@'
tRp556
F0.18598413467407227
tp557
a(I3
g3
(g5
S'\x80?5^\xba\xc9"@'
tRp558
F0.26181292533874512
tp559
a(I3
g3
(g5
S' X9\xb4\xc866@'
tRp560
F6.1738231182098389
tp561
a(I3
g3
(g5
S' X9\xb4\xc866@'
tRp562
F0.17234396934509277
tp563
a(I3
g3
(g5
S' X9\xb4\xc866@'
tRp564
F0.13524484634399414
tp565
a(I3
g3
(g5
S' X9\xb4\xc866@'
tRp566
F0.1407470703125
tp567
a(I3
g3
(g5
S' X9\xb4\xc866@'
tRp568
F0.15302515029907227
tp569
a(I3
g3
(g5
S' X9\xb4\xc866@'
tRp570
F6.6603419780731201
tp571
a(I3
g3
(g5
S' X9\xb4\xc866@'
tRp572
F0.18133997917175293
tp573
a(I3
g3
(g5
S' X9\xb4\xc866@'
tRp574
F0.16810107231140137
tp575
a(I3
g3
(g5
S' X9\xb4\xc866@'
tRp576
F0.17312097549438477
tp577
a(I3
g3
(g5
S' X9\xb4\xc866@'
tRp578
F0.16867995262145996
tp579
a(I3
g3
(g5
S' X9\xb4\xc866@'
tRp580
F7.4674670696258545
tp581
a(I3
g3
(g5
S' X9\xb4\xc866@'
tRp582
F0.21754002571105957
tp583
a(I3
g3
(g5
S' X9\xb4\xc866@'
tRp584
F0.24265098571777344
tp585
a(I3
g3
(g5
S' X9\xb4\xc866@'
tRp586
F0.24757981300354004
tp587
a(I3
g3
(g5
S' X9\xb4\xc866@'
tRp588
F0.24865913391113281
tp589
a(I3
g3
(g5
S'X\x0e-\xb2\x9d\x17R@'
tRp590
F7.3058431148529053
tp591
a(I3
g3
(g5
S'X\x0e-\xb2\x9d\x17R@'
tRp592
F0.073125839233398438
tp593
a(I3
g3
(g5
S'X\x0e-\xb2\x9d\x17R@'
tRp594
F0.073747158050537109
tp595
a(I3
g3
(g5
S'X\x0e-\xb2\x9d\x17R@'
tRp596
F0.075260162353515625
tp597
a(I3
g3
(g5
S'X\x0e-\xb2\x9d\x17R@'
tRp598
F0.076632976531982422
tp599
a(I3
g3
(g5
S' X9\xb4\xc866@'
tRp600
F8.6763339042663574
tp601
a(I3
g3
(g5
S' X9\xb4\xc866@'
tRp602
F0.21219205856323242
tp603
a(I3
g3
(g5
S' X9\xb4\xc866@'
tRp604
F0.21329188346862793
tp605
a(I3
g3
(g5
S' X9\xb4\xc866@'
tRp606
F0.21193289756774902
tp607
a(I3
g3
(g5
S' X9\xb4\xc866@'
tRp608
F0.2129061222076416
tp609
a(I3
g3
(g5
S'\x80?5^\xba\xc9"@'
tRp610
F9.0186498165130615
tp611
a(I3
g3
(g5
S'\x80?5^\xba\xc9"@'
tRp612
F0.18635821342468262
tp613
a(I3
g3
(g5
S'\x80?5^\xba\xc9"@'
tRp614
F0.18237996101379395
tp615
a(I3
g3
(g5
S'\x80?5^\xba\xc9"@'
tRp616
F0.1835939884185791
tp617
a(I3
g3
(g5
S'\x80?5^\xba\xc9"@'
tRp618
F0.19516205787658691
tp619
a(I3
g3
(g5
S' X9\xb4\xc866@'
tRp620
F9.8825130462646484
tp621
a(I3
g3
(g5
S' X9\xb4\xc866@'
tRp622
F0.2430729866027832
tp623
a(I3
g3
(g5
S' X9\xb4\xc866@'
tRp624
F0.25361299514770508
tp625
a(I3
g3
(g5
S' X9\xb4\xc866@'
tRp626
F0.24811482429504395
tp627
a(I3
g3
(g5
S' X9\xb4\xc866@'
tRp628
F0.21385908126831055
tp629
a(I3
g3
(g5
S' X9\xb4\xc866@'
tRp630
F10.485327005386353
tp631
a(I3
g3
(g5
S' X9\xb4\xc866@'
tRp632
F0.21427583694458008
tp633
a(I3
g3
(g5
S' X9\xb4\xc866@'
tRp634
F0.23032903671264648
tp635
a(I3
g3
(g5
S' X9\xb4\xc866@'
tRp636
F0.21901583671569824
tp637
a(I3
g3
(g5
S' X9\xb4\xc866@'
tRp638
F0.22462892532348633
tp639
aa(lp640
(I3
g3
(g5
S'\xbcI\x0c\x02+#c@'
tRp641
F0.036031007766723633
tp642
a(I3
g3
(g5
S'T\xe3\xa5\x9b\xc4\x08\\@'
tRp643
F0.03746795654296875
tp644
a(I3
g3
(g5
S'@5^\xbaI\xccF@'
tRp645
F0.10809516906738281
tp646
a(I3
g3
(g5
S'@5^\xbaI\xccF@'
tRp647
F0.11081314086914062
tp648
a(I3
g3
(g5
S'@5^\xbaI\xccF@'
tRp649
F0.088435173034667969
tp650
a(I3
g3
(g5
S'\x00\x00\x00\x00\x00\x00\x00\x00'
tRp651
F4.7882401943206787
tp652
aa(lp653
(I3
g3
(g5
S'\x80l\xe7\xfb\xa915@'
tRp654
F0.035787820816040039
tp655
a(I3
g3
(g5
S'\x00P\x8d\x97n\x92\x19@'
tRp656
F0.083585977554321289
tp657
a(I3
g3
(g5
S'\x00\x9d\xef\xa7\xc6K\x05@'
tRp658
F0.096085071563720703
tp659
a(I3
g3
(g5
S'\xa0\xb47\xf8\xc2\xd4U@'
tRp660
F0.083297014236450195
tp661
a(I3
g3
(g5
S'\xa0\xb47\xf8\xc2\xd4U@'
tRp662
F0.081135034561157227
tp663
a(I3
g3
(g5
S'`\x91\xed|?\xf5)@'
tRp664
F5.5571200847625732
tp665
a(I3
g3
(g5
S'`\x91\xed|?\xf5)@'
tRp666
F2.0605740547180176
tp667
a(I3
g3
(g5
S'\x00\x00\x00\x00\x00\x00\x00\x00'
tRp668
F2.6649599075317383
tp669
aa(lp670
(I3
g3
(g5
S'\xd8\xce\xf7S\xe3\x95G@'
tRp671
F0.035760879516601562
tp672
a(I3
g3
(g5
S'P\xb8\x1e\x85\xeb!@@'
tRp673
F0.075030803680419922
tp674
a(I3
g3
(g5
S'\x00\x00\x00\x00\x00\x00\x00\x00'
tRp675
F0.10897207260131836
tp676
aa(lp677
(I3
g3
(g5
S'\x0c\x02+\x87\x169c@'
tRp678
F0.035802841186523438
tp679
a(I3
g3
(g5
S'p=\n\xd7\xa3\x00]@'
tRp680
F0.078260183334350586
tp681
a(I3
g3
(g5
S'\x92\xcb\x7fH\xbf\x1dh@'
tRp682
F0.12324714660644531
tp683
a(I3
g3
(g5
S'\x92\xcb\x7fH\xbf\x1dh@'
tRp684
F0.04449009895324707
tp685
a(I3
g3
(g5
S'\x92\xcb\x7fH\xbf\x1dh@'
tRp686
F0.047469139099121094
tp687
a(I3
g3
(g5
S'\x80\x95C\x8bl\xb7H@'
tRp688
F5.3056051731109619
tp689
a(I3
g3
(g5
S'\x00\x00\x00\x00\x00\x00\x00\x00'
tRp690
F0.12361788749694824
tp691
aa(lp692
(I3
g3
(g5
S'\xa4p=\n\xd7\xef`@'
tRp693
F0.035618782043457031
tp694
a(I3
g3
(g5
S'\xbaI\x0c\x02+ca@'
tRp695
F0.077271938323974609
tp696
a(I3
g3
(g5
S'\xdc$\x06\x81\x95\xf3Z@'
tRp697
F0.10223913192749023
tp698
a(I3
g3
(g5
S'\xdc$\x06\x81\x95\xf3Z@'
tRp699
F0.044869899749755859
tp700
a(I3
g3
(g5
S'\xdc$\x06\x81\x95\xf3Z@'
tRp701
F0.048875093460083008
tp702
a(I3
g3
(g5
S' \x06\x81\x95C\x0b2@'
tRp703
F4.2358570098876953
tp704
a(I3
g3
(g5
S' \x06\x81\x95C\x0b2@'
tRp705
F0.066297054290771484
tp706
a(I3
g3
(g5
S' \x06\x81\x95C\x0b2@'
tRp707
F0.067245960235595703
tp708
a(I3
g3
(g5
S' \x06\x81\x95C\x0b2@'
tRp709
F0.068591117858886719
tp710
a(I3
g3
(g5
S' \x06\x81\x95C\x0b2@'
tRp711
F0.19674491882324219
tp712
a(I3
g3
(g5
S' \x06\x81\x95C\x0b2@'
tRp713
F3.9909758567810059
tp714
a(I3
g3
(g5
S' \x06\x81\x95C\x0b2@'
tRp715
F0.071115970611572266
tp716
a(I3
g3
(g5
S' \x06\x81\x95C\x0b2@'
tRp717
F0.069402933120727539
tp718
a(I3
g3
(g5
S' \x06\x81\x95C\x0b2@'
tRp719
F0.071104049682617188
tp720
a(I3
g3
(g5
S' \x06\x81\x95C\x0b2@'
tRp721
F0.072216033935546875
tp722
a(I3
g3
(g5
S'\xdc$\x06\x81\x95\xf3Z@'
tRp723
F4.4944581985473633
tp724
a(I3
g3
(g5
S'\xdc$\x06\x81\x95\xf3Z@'
tRp725
F0.057245016098022461
tp726
a(I3
g3
(g5
S'\xdc$\x06\x81\x95\xf3Z@'
tRp727
F0.059128046035766602
tp728
a(I3
g3
(g5
S'\xdc$\x06\x81\x95\xf3Z@'
tRp729
F0.060011863708496094
tp730
a(I3
g3
(g5
S'\xdc$\x06\x81\x95\xf3Z@'
tRp731
F0.061227083206176758
tp732
a(I3
g3
(g5
S' \x06\x81\x95C\x0b2@'
tRp733
F5.0912718772888184
tp734
a(I3
g3
(g5
S' \x06\x81\x95C\x0b2@'
tRp735
F0.08729100227355957
tp736
a(I3
g3
(g5
S' \x06\x81\x95C\x0b2@'
tRp737
F0.087674140930175781
tp738
a(I3
g3
(g5
S' \x06\x81\x95C\x0b2@'
tRp739
F0.089071035385131836
tp740
a(I3
g3
(g5
S' \x06\x81\x95C\x0b2@'
tRp741
F0.090684890747070312
tp742
a(I3
g3
(g5
S' \x06\x81\x95C\x0b2@'
tRp743
F5.6757731437683105
tp744
a(I3
g3
(g5
S' \x06\x81\x95C\x0b2@'
tRp745
F0.094055891036987305
tp746
a(I3
g3
(g5
S' \x06\x81\x95C\x0b2@'
tRp747
F0.095228195190429688
tp748
a(I3
g3
(g5
S' \x06\x81\x95C\x0b2@'
tRp749
F0.096687078475952148
tp750
a(I3
g3
(g5
S' \x06\x81\x95C\x0b2@'
tRp751
F0.098071098327636719
tp752
a(I3
g3
(g5
S' \x06\x81\x95C\x0b2@'
tRp753
F6.2364189624786377
tp754
a(I3
g3
(g5
S' \x06\x81\x95C\x0b2@'
tRp755
F0.092237949371337891
tp756
a(I3
g3
(g5
S' \x06\x81\x95C\x0b2@'
tRp757
F0.093638896942138672
tp758
a(I3
g3
(g5
S' \x06\x81\x95C\x0b2@'
tRp759
F0.095219135284423828
tp760
a(I3
g3
(g5
S' \x06\x81\x95C\x0b2@'
tRp761
F0.09620213508605957
tp762
a(I3
g3
(g5
S' \x06\x81\x95C\x0b2@'
tRp763
F6.810992956161499
tp764
a(I3
g3
(g5
S' \x06\x81\x95C\x0b2@'
tRp765
F0.099500894546508789
tp766
a(I3
g3
(g5
S' \x06\x81\x95C\x0b2@'
tRp767
F0.10102105140686035
tp768
a(I3
g3
(g5
S' \x06\x81\x95C\x0b2@'
tRp769
F0.10270786285400391
tp770
a(I3
g3
(g5
S' \x06\x81\x95C\x0b2@'
tRp771
F0.10394811630249023
tp772
a(I3
g3
(g5
S' \x06\x81\x95C\x0b2@'
tRp773
F7.4092481136322021
tp774
a(I3
g3
(g5
S' \x06\x81\x95C\x0b2@'
tRp775
F0.10673999786376953
tp776
a(I3
g3
(g5
S' \x06\x81\x95C\x0b2@'
tRp777
F0.10859012603759766
tp778
a(I3
g3
(g5
S' \x06\x81\x95C\x0b2@'
tRp779
F0.11009311676025391
tp780
a(I3
g3
(g5
S' \x06\x81\x95C\x0b2@'
tRp781
F0.11156296730041504
tp782
a(I3
g3
(g5
S' \x06\x81\x95C\x0b2@'
tRp783
F8.0036439895629883
tp784
a(I3
g3
(g5
S' \x06\x81\x95C\x0b2@'
tRp785
F0.11410880088806152
tp786
a(I3
g3
(g5
S' \x06\x81\x95C\x0b2@'
tRp787
F0.1167900562286377
tp788
a(I3
g3
(g5
S' \x06\x81\x95C\x0b2@'
tRp789
F0.11736488342285156
tp790
a(I3
g3
(g5
S' \x06\x81\x95C\x0b2@'
tRp791
F0.1194450855255127
tp792
aa(lp793
(I3
g3
(g5
S'X\xe3\xa5\x9b\xc4\xf8Y@'
tRp794
F0.035712003707885742
tp795
a(I3
g3
(g5
S'\xc0t\x93\x18\x04\x06E@'
tRp796
F0.078728914260864258
tp797
a(I3
g3
(g5
S'Q\x8d\x97n\x12wc@'
tRp798
F0.094218969345092773
tp799
a(I3
g3
(g5
S'Q\x8d\x97n\x12wc@'
tRp800
F0.04453587532043457
tp801
a(I3
g3
(g5
S'Q\x8d\x97n\x12wc@'
tRp802
F0.048076868057250977
tp803
a(I3
g3
(g5
S'\x00\x80\x14\xaeG\xe1\xca?'
tRp804
F4.2909500598907471
tp805
a(I3
g3
(g5
S'\x00\x80\x14\xaeG\xe1\xca?'
tRp806
F0.11676287651062012
tp807
a(I3
g3
(g5
S'\x00\x80\x14\xaeG\xe1\xca?'
tRp808
F0.17218589782714844
tp809
a(I3
g3
(g5
S'\x00\x80\x14\xaeG\xe1\xca?'
tRp810
F0.26912307739257812
tp811
a(I3
g3
(g5
S'\x00\x00\x00\x00\x00\x00\x00\x00'
tRp812
F0.4762108325958252
tp813
aa(lp814
(I3
g3
(g5
S'b\x10X9\xb4@R@'
tRp815
F0.036045074462890625
tp816
a(I3
g3
(g5
S'\xc8v\xbe\x9f\x1a\xafC@'
tRp817
F0.080239057540893555
tp818
a(I3
g3
(g5
S'\xdc\xb5\x84|\xd0\xf5h@'
tRp819
F0.12984585762023926
tp820
a(I3
g3
(g5
S'\xdc\xb5\x84|\xd0\xf5h@'
tRp821
F0.044470071792602539
tp822
a(I3
g3
(g5
S'\xdc\xb5\x84|\xd0\xf5h@'
tRp823
F0.047593116760253906
tp824
a(I3
g3
(g5
S'@7\x89A`e\x1f@'
tRp825
F4.7909350395202637
tp826
a(I3
g3
(g5
S'@7\x89A`e\x1f@'
tRp827
F0.085104942321777344
tp828
a(I3
g3
(g5
S'\x00\x00\x00\x00\x00\x00\x00\x00'
tRp829
F0.14388799667358398
tp830
aa.